
main.elf:     file format elf32-littleriscv


Disassembly of section .text:

00000000 <_start>:
   0:	123452b7          	lui	t0,0x12345
   4:	67828293          	addi	t0,t0,1656 # 12345678 <bss_end+0x12345570>
   8:	00029073          	csrw	ustatus,t0
   c:	000020f3          	csrr	ra,ustatus
  10:	00010137          	lui	sp,0x10
  14:	00001297          	auipc	t0,0x1
  18:	07c0006f          	j	94 <main>

0000001c <sequence>:
  1c:	fe010113          	addi	sp,sp,-32 # ffe0 <bss_end+0xfed8>
  20:	00112e23          	sw	ra,28(sp)
  24:	00812c23          	sw	s0,24(sp)
  28:	00912a23          	sw	s1,20(sp)
  2c:	02010413          	addi	s0,sp,32
  30:	fea42623          	sw	a0,-20(s0)
  34:	fec42783          	lw	a5,-20(s0)
  38:	00078863          	beqz	a5,48 <sequence+0x2c>
  3c:	fec42703          	lw	a4,-20(s0)
  40:	00100793          	li	a5,1
  44:	00f71663          	bne	a4,a5,50 <sequence+0x34>
  48:	00100793          	li	a5,1
  4c:	0300006f          	j	7c <sequence+0x60>
  50:	fec42783          	lw	a5,-20(s0)
  54:	fff78793          	addi	a5,a5,-1
  58:	00078513          	mv	a0,a5
  5c:	fc1ff0ef          	jal	ra,1c <sequence>
  60:	00050493          	mv	s1,a0
  64:	fec42783          	lw	a5,-20(s0)
  68:	ffe78793          	addi	a5,a5,-2
  6c:	00078513          	mv	a0,a5
  70:	fadff0ef          	jal	ra,1c <sequence>
  74:	00050793          	mv	a5,a0
  78:	00f487b3          	add	a5,s1,a5
  7c:	00078513          	mv	a0,a5
  80:	01c12083          	lw	ra,28(sp)
  84:	01812403          	lw	s0,24(sp)
  88:	01412483          	lw	s1,20(sp)
  8c:	02010113          	addi	sp,sp,32
  90:	00008067          	ret

00000094 <main>:
  94:	fe010113          	addi	sp,sp,-32
  98:	00112e23          	sw	ra,28(sp)
  9c:	00812c23          	sw	s0,24(sp)
  a0:	02010413          	addi	s0,sp,32
  a4:	00100793          	li	a5,1
  a8:	fef42423          	sw	a5,-24(s0)
  ac:	fe042623          	sw	zero,-20(s0)
  b0:	0340006f          	j	e4 <main+0x50>
  b4:	fec42503          	lw	a0,-20(s0)
  b8:	f65ff0ef          	jal	ra,1c <sequence>
  bc:	00050693          	mv	a3,a0
  c0:	fec42783          	lw	a5,-20(s0)
  c4:	00279793          	slli	a5,a5,0x2
  c8:	fe842703          	lw	a4,-24(s0)
  cc:	00f707b3          	add	a5,a4,a5
  d0:	00068713          	mv	a4,a3
  d4:	00e7a023          	sw	a4,0(a5)
  d8:	fec42783          	lw	a5,-20(s0)
  dc:	00178793          	addi	a5,a5,1
  e0:	fef42623          	sw	a5,-20(s0)
  e4:	fec42703          	lw	a4,-20(s0)
  e8:	00900793          	li	a5,9
  ec:	fce7d4e3          	bge	a5,a4,b4 <main+0x20>
  f0:	00000793          	li	a5,0
  f4:	00078513          	mv	a0,a5
  f8:	01c12083          	lw	ra,28(sp)
  fc:	01812403          	lw	s0,24(sp)
 100:	02010113          	addi	sp,sp,32
 104:	00008067          	ret

Disassembly of section .comment:

00000000 <.comment>:
   0:	3a434347          	fmsub.d	ft6,ft6,ft4,ft7,rmm
   4:	2820                	fld	fs0,80(s0)
   6:	20554e47          	fmsub.s	ft8,fa0,ft5,ft4,rmm
   a:	434d                	li	t1,19
   c:	2055                	jal	b0 <main+0x1c>
   e:	6345                	lui	t1,0x11
  10:	696c                	flw	fa1,84(a0)
  12:	7370                	flw	fa2,100(a4)
  14:	2065                	jal	bc <main+0x28>
  16:	4952                	lw	s2,20(sp)
  18:	562d4353          	0x562d4353
  1c:	4520                	lw	s0,72(a0)
  1e:	626d                	lui	tp,0x1b
  20:	6465                	lui	s0,0x19
  22:	6564                	flw	fs1,76(a0)
  24:	2064                	fld	fs1,192(s0)
  26:	2c434347          	0x2c434347
  2a:	3320                	fld	fs0,96(a4)
  2c:	2d32                	fld	fs10,264(sp)
  2e:	6962                	flw	fs2,24(sp)
  30:	2974                	fld	fa3,208(a0)
  32:	3820                	fld	fs0,112(s0)
  34:	322e                	fld	ft4,232(sp)
  36:	302e                	fld	ft0,232(sp)
	...
