
main.elf:     file format elf32-littleriscv


Disassembly of section .text:

00000000 <_start>:
   0:	00010137          	lui	sp,0x10
   4:	07c0006f          	j	80 <main>

00000008 <sequence>:
   8:	fe010113          	addi	sp,sp,-32 # ffe0 <bss_end+0xfea0>
   c:	00112e23          	sw	ra,28(sp)
  10:	00812c23          	sw	s0,24(sp)
  14:	00912a23          	sw	s1,20(sp)
  18:	02010413          	addi	s0,sp,32
  1c:	fea42623          	sw	a0,-20(s0)
  20:	fec42783          	lw	a5,-20(s0)
  24:	00078863          	beqz	a5,34 <sequence+0x2c>
  28:	fec42703          	lw	a4,-20(s0)
  2c:	00100793          	li	a5,1
  30:	00f71663          	bne	a4,a5,3c <sequence+0x34>
  34:	00100793          	li	a5,1
  38:	0300006f          	j	68 <sequence+0x60>
  3c:	fec42783          	lw	a5,-20(s0)
  40:	fff78793          	addi	a5,a5,-1
  44:	00078513          	mv	a0,a5
  48:	fc1ff0ef          	jal	ra,8 <sequence>
  4c:	00050493          	mv	s1,a0
  50:	fec42783          	lw	a5,-20(s0)
  54:	ffe78793          	addi	a5,a5,-2
  58:	00078513          	mv	a0,a5
  5c:	fadff0ef          	jal	ra,8 <sequence>
  60:	00050793          	mv	a5,a0
  64:	00f487b3          	add	a5,s1,a5
  68:	00078513          	mv	a0,a5
  6c:	01c12083          	lw	ra,28(sp)
  70:	01812403          	lw	s0,24(sp)
  74:	01412483          	lw	s1,20(sp)
  78:	02010113          	addi	sp,sp,32
  7c:	00008067          	ret

00000080 <main>:
  80:	fe010113          	addi	sp,sp,-32
  84:	00112e23          	sw	ra,28(sp)
  88:	00812c23          	sw	s0,24(sp)
  8c:	00912a23          	sw	s1,20(sp)
  90:	02010413          	addi	s0,sp,32
  94:	00100793          	li	a5,1
  98:	fef42423          	sw	a5,-24(s0)
  9c:	fe042623          	sw	zero,-20(s0)
  a0:	0540006f          	j	f4 <main+0x74>
  a4:	fec42503          	lw	a0,-20(s0)
  a8:	f61ff0ef          	jal	ra,8 <sequence>
  ac:	00050493          	mv	s1,a0
  b0:	fec42503          	lw	a0,-20(s0)
  b4:	f55ff0ef          	jal	ra,8 <sequence>
  b8:	00050793          	mv	a5,a0
  bc:	00078593          	mv	a1,a5
  c0:	00048513          	mv	a0,s1
  c4:	058000ef          	jal	ra,11c <__mulsi3>
  c8:	00050793          	mv	a5,a0
  cc:	00078693          	mv	a3,a5
  d0:	fec42783          	lw	a5,-20(s0)
  d4:	00279793          	slli	a5,a5,0x2
  d8:	fe842703          	lw	a4,-24(s0)
  dc:	00f707b3          	add	a5,a4,a5
  e0:	00068713          	mv	a4,a3
  e4:	00e7a023          	sw	a4,0(a5)
  e8:	fec42783          	lw	a5,-20(s0)
  ec:	00178793          	addi	a5,a5,1
  f0:	fef42623          	sw	a5,-20(s0)
  f4:	fec42703          	lw	a4,-20(s0)
  f8:	00900793          	li	a5,9
  fc:	fae7d4e3          	bge	a5,a4,a4 <main+0x24>
 100:	00000793          	li	a5,0
 104:	00078513          	mv	a0,a5
 108:	01c12083          	lw	ra,28(sp)
 10c:	01812403          	lw	s0,24(sp)
 110:	01412483          	lw	s1,20(sp)
 114:	02010113          	addi	sp,sp,32
 118:	00008067          	ret

0000011c <__mulsi3>:
 11c:	00050613          	mv	a2,a0
 120:	00000513          	li	a0,0
 124:	0015f693          	andi	a3,a1,1
 128:	00068463          	beqz	a3,130 <__mulsi3+0x14>
 12c:	00c50533          	add	a0,a0,a2
 130:	0015d593          	srli	a1,a1,0x1
 134:	00161613          	slli	a2,a2,0x1
 138:	fe0596e3          	bnez	a1,124 <__mulsi3+0x8>
 13c:	00008067          	ret

Disassembly of section .comment:

00000000 <.comment>:
   0:	3a434347          	fmsub.d	ft6,ft6,ft4,ft7,rmm
   4:	2820                	fld	fs0,80(s0)
   6:	20554e47          	fmsub.s	ft8,fa0,ft5,ft4,rmm
   a:	434d                	li	t1,19
   c:	2055                	jal	b0 <main+0x30>
   e:	6345                	lui	t1,0x11
  10:	696c                	flw	fa1,84(a0)
  12:	7370                	flw	fa2,100(a4)
  14:	2065                	jal	bc <main+0x3c>
  16:	4952                	lw	s2,20(sp)
  18:	562d4353          	0x562d4353
  1c:	4520                	lw	s0,72(a0)
  1e:	626d                	lui	tp,0x1b
  20:	6465                	lui	s0,0x19
  22:	6564                	flw	fs1,76(a0)
  24:	2064                	fld	fs1,192(s0)
  26:	2c434347          	0x2c434347
  2a:	3320                	fld	fs0,96(a4)
  2c:	2d32                	fld	fs10,264(sp)
  2e:	6962                	flw	fs2,24(sp)
  30:	2974                	fld	fa3,208(a0)
  32:	3820                	fld	fs0,112(s0)
  34:	322e                	fld	ft4,232(sp)
  36:	302e                	fld	ft0,232(sp)
	...
