
main.elf:     file format elf32-littleriscv


Disassembly of section .text:

00000000 <_start>:
       0:	00100137          	lui	sp,0x100
       4:	0040006f          	j	8 <main>

00000008 <main>:
       8:	ff010113          	addi	sp,sp,-16 # ffff0 <bss_end+0xd54c0>
       c:	00112623          	sw	ra,12(sp)
      10:	00812423          	sw	s0,8(sp)
      14:	01010413          	addi	s0,sp,16
      18:	0001e7b7          	lui	a5,0x1e
      1c:	24078593          	addi	a1,a5,576 # 1e240 <W+0x3770>
      20:	000197b7          	lui	a5,0x19
      24:	f9078513          	addi	a0,a5,-112 # 18f90 <__clzsi2+0x98>
      28:	21c030ef          	jal	ra,3244 <printf>
      2c:	00000793          	li	a5,0
      30:	00078513          	mv	a0,a5
      34:	00c12083          	lw	ra,12(sp)
      38:	00812403          	lw	s0,8(sp)
      3c:	01010113          	addi	sp,sp,16
      40:	00008067          	ret

00000044 <_system>:
      44:	fe010113          	addi	sp,sp,-32
      48:	00812e23          	sw	s0,28(sp)
      4c:	02010413          	addi	s0,sp,32
      50:	fea42623          	sw	a0,-20(s0)
      54:	00000013          	nop
      58:	00078513          	mv	a0,a5
      5c:	01c12403          	lw	s0,28(sp)
      60:	02010113          	addi	sp,sp,32
      64:	00008067          	ret

00000068 <_rename>:
      68:	fe010113          	addi	sp,sp,-32
      6c:	00812e23          	sw	s0,28(sp)
      70:	02010413          	addi	s0,sp,32
      74:	fea42623          	sw	a0,-20(s0)
      78:	feb42423          	sw	a1,-24(s0)
      7c:	00000013          	nop
      80:	00078513          	mv	a0,a5
      84:	01c12403          	lw	s0,28(sp)
      88:	02010113          	addi	sp,sp,32
      8c:	00008067          	ret

00000090 <_isatty>:
      90:	fe010113          	addi	sp,sp,-32
      94:	00812e23          	sw	s0,28(sp)
      98:	02010413          	addi	s0,sp,32
      9c:	fea42623          	sw	a0,-20(s0)
      a0:	00000013          	nop
      a4:	00078513          	mv	a0,a5
      a8:	01c12403          	lw	s0,28(sp)
      ac:	02010113          	addi	sp,sp,32
      b0:	00008067          	ret

000000b4 <_times>:
      b4:	fe010113          	addi	sp,sp,-32
      b8:	00812e23          	sw	s0,28(sp)
      bc:	02010413          	addi	s0,sp,32
      c0:	fea42623          	sw	a0,-20(s0)
      c4:	00000013          	nop
      c8:	00078513          	mv	a0,a5
      cc:	01c12403          	lw	s0,28(sp)
      d0:	02010113          	addi	sp,sp,32
      d4:	00008067          	ret

000000d8 <_gettimeofday>:
      d8:	fe010113          	addi	sp,sp,-32
      dc:	00812e23          	sw	s0,28(sp)
      e0:	02010413          	addi	s0,sp,32
      e4:	fea42623          	sw	a0,-20(s0)
      e8:	feb42423          	sw	a1,-24(s0)
      ec:	00000013          	nop
      f0:	00078513          	mv	a0,a5
      f4:	01c12403          	lw	s0,28(sp)
      f8:	02010113          	addi	sp,sp,32
      fc:	00008067          	ret

00000100 <_unlink>:
     100:	fe010113          	addi	sp,sp,-32
     104:	00812e23          	sw	s0,28(sp)
     108:	02010413          	addi	s0,sp,32
     10c:	fea42623          	sw	a0,-20(s0)
     110:	00000013          	nop
     114:	00078513          	mv	a0,a5
     118:	01c12403          	lw	s0,28(sp)
     11c:	02010113          	addi	sp,sp,32
     120:	00008067          	ret

00000124 <_link>:
     124:	ff010113          	addi	sp,sp,-16
     128:	00812623          	sw	s0,12(sp)
     12c:	01010413          	addi	s0,sp,16
     130:	00000013          	nop
     134:	00078513          	mv	a0,a5
     138:	00c12403          	lw	s0,12(sp)
     13c:	01010113          	addi	sp,sp,16
     140:	00008067          	ret

00000144 <_stat>:
     144:	fe010113          	addi	sp,sp,-32
     148:	00812e23          	sw	s0,28(sp)
     14c:	02010413          	addi	s0,sp,32
     150:	fea42623          	sw	a0,-20(s0)
     154:	feb42423          	sw	a1,-24(s0)
     158:	00000013          	nop
     15c:	00078513          	mv	a0,a5
     160:	01c12403          	lw	s0,28(sp)
     164:	02010113          	addi	sp,sp,32
     168:	00008067          	ret

0000016c <_fstat>:
     16c:	fe010113          	addi	sp,sp,-32
     170:	00812e23          	sw	s0,28(sp)
     174:	02010413          	addi	s0,sp,32
     178:	fea42623          	sw	a0,-20(s0)
     17c:	feb42423          	sw	a1,-24(s0)
     180:	00000013          	nop
     184:	00078513          	mv	a0,a5
     188:	01c12403          	lw	s0,28(sp)
     18c:	02010113          	addi	sp,sp,32
     190:	00008067          	ret

00000194 <_swistat>:
     194:	fe010113          	addi	sp,sp,-32
     198:	00812e23          	sw	s0,28(sp)
     19c:	02010413          	addi	s0,sp,32
     1a0:	fea42623          	sw	a0,-20(s0)
     1a4:	feb42423          	sw	a1,-24(s0)
     1a8:	00000013          	nop
     1ac:	00078513          	mv	a0,a5
     1b0:	01c12403          	lw	s0,28(sp)
     1b4:	02010113          	addi	sp,sp,32
     1b8:	00008067          	ret

000001bc <_sbrk>:
     1bc:	fe010113          	addi	sp,sp,-32
     1c0:	00812e23          	sw	s0,28(sp)
     1c4:	02010413          	addi	s0,sp,32
     1c8:	fea42623          	sw	a0,-20(s0)
     1cc:	00000013          	nop
     1d0:	00078513          	mv	a0,a5
     1d4:	01c12403          	lw	s0,28(sp)
     1d8:	02010113          	addi	sp,sp,32
     1dc:	00008067          	ret

000001e0 <_getpid>:
     1e0:	fe010113          	addi	sp,sp,-32
     1e4:	00812e23          	sw	s0,28(sp)
     1e8:	02010413          	addi	s0,sp,32
     1ec:	fea42623          	sw	a0,-20(s0)
     1f0:	00000013          	nop
     1f4:	00078513          	mv	a0,a5
     1f8:	01c12403          	lw	s0,28(sp)
     1fc:	02010113          	addi	sp,sp,32
     200:	00008067          	ret

00000204 <_close>:
     204:	fe010113          	addi	sp,sp,-32
     208:	00812e23          	sw	s0,28(sp)
     20c:	02010413          	addi	s0,sp,32
     210:	fea42623          	sw	a0,-20(s0)
     214:	00000013          	nop
     218:	00078513          	mv	a0,a5
     21c:	01c12403          	lw	s0,28(sp)
     220:	02010113          	addi	sp,sp,32
     224:	00008067          	ret

00000228 <_clock>:
     228:	ff010113          	addi	sp,sp,-16
     22c:	00812623          	sw	s0,12(sp)
     230:	01010413          	addi	s0,sp,16
     234:	00000013          	nop
     238:	00078513          	mv	a0,a5
     23c:	00c12403          	lw	s0,12(sp)
     240:	01010113          	addi	sp,sp,16
     244:	00008067          	ret

00000248 <_swiclose>:
     248:	fe010113          	addi	sp,sp,-32
     24c:	00812e23          	sw	s0,28(sp)
     250:	02010413          	addi	s0,sp,32
     254:	fea42623          	sw	a0,-20(s0)
     258:	00000013          	nop
     25c:	00078513          	mv	a0,a5
     260:	01c12403          	lw	s0,28(sp)
     264:	02010113          	addi	sp,sp,32
     268:	00008067          	ret

0000026c <_open>:
     26c:	fc010113          	addi	sp,sp,-64
     270:	00812e23          	sw	s0,28(sp)
     274:	02010413          	addi	s0,sp,32
     278:	fea42623          	sw	a0,-20(s0)
     27c:	feb42423          	sw	a1,-24(s0)
     280:	00c42423          	sw	a2,8(s0)
     284:	00d42623          	sw	a3,12(s0)
     288:	00e42823          	sw	a4,16(s0)
     28c:	00f42a23          	sw	a5,20(s0)
     290:	01042c23          	sw	a6,24(s0)
     294:	01142e23          	sw	a7,28(s0)
     298:	00000013          	nop
     29c:	00078513          	mv	a0,a5
     2a0:	01c12403          	lw	s0,28(sp)
     2a4:	04010113          	addi	sp,sp,64
     2a8:	00008067          	ret

000002ac <_swiopen>:
     2ac:	fe010113          	addi	sp,sp,-32
     2b0:	00812e23          	sw	s0,28(sp)
     2b4:	02010413          	addi	s0,sp,32
     2b8:	fea42623          	sw	a0,-20(s0)
     2bc:	feb42423          	sw	a1,-24(s0)
     2c0:	00000013          	nop
     2c4:	00078513          	mv	a0,a5
     2c8:	01c12403          	lw	s0,28(sp)
     2cc:	02010113          	addi	sp,sp,32
     2d0:	00008067          	ret

000002d4 <_write>:
     2d4:	fd010113          	addi	sp,sp,-48
     2d8:	02812623          	sw	s0,44(sp)
     2dc:	03010413          	addi	s0,sp,48
     2e0:	fca42e23          	sw	a0,-36(s0)
     2e4:	fcb42c23          	sw	a1,-40(s0)
     2e8:	fcc42a23          	sw	a2,-44(s0)
     2ec:	fe042623          	sw	zero,-20(s0)
     2f0:	0380006f          	j	328 <_write+0x54>
     2f4:	fec42783          	lw	a5,-20(s0)
     2f8:	fd842703          	lw	a4,-40(s0)
     2fc:	00f70733          	add	a4,a4,a5
     300:	0001a7b7          	lui	a5,0x1a
     304:	1187a783          	lw	a5,280(a5) # 1a118 <p.3176>
     308:	00178613          	addi	a2,a5,1
     30c:	0001a6b7          	lui	a3,0x1a
     310:	10c6ac23          	sw	a2,280(a3) # 1a118 <p.3176>
     314:	00074703          	lbu	a4,0(a4)
     318:	00e78023          	sb	a4,0(a5)
     31c:	fec42783          	lw	a5,-20(s0)
     320:	00178793          	addi	a5,a5,1
     324:	fef42623          	sw	a5,-20(s0)
     328:	fec42703          	lw	a4,-20(s0)
     32c:	fd442783          	lw	a5,-44(s0)
     330:	fcf742e3          	blt	a4,a5,2f4 <_write+0x20>
     334:	00000013          	nop
     338:	00078513          	mv	a0,a5
     33c:	02c12403          	lw	s0,44(sp)
     340:	03010113          	addi	sp,sp,48
     344:	00008067          	ret

00000348 <_swiwrite>:
     348:	fe010113          	addi	sp,sp,-32
     34c:	00812e23          	sw	s0,28(sp)
     350:	02010413          	addi	s0,sp,32
     354:	fea42623          	sw	a0,-20(s0)
     358:	feb42423          	sw	a1,-24(s0)
     35c:	fec42223          	sw	a2,-28(s0)
     360:	00000013          	nop
     364:	00078513          	mv	a0,a5
     368:	01c12403          	lw	s0,28(sp)
     36c:	02010113          	addi	sp,sp,32
     370:	00008067          	ret

00000374 <_lseek>:
     374:	fe010113          	addi	sp,sp,-32
     378:	00812e23          	sw	s0,28(sp)
     37c:	02010413          	addi	s0,sp,32
     380:	fea42623          	sw	a0,-20(s0)
     384:	feb42423          	sw	a1,-24(s0)
     388:	fec42223          	sw	a2,-28(s0)
     38c:	00000013          	nop
     390:	00078513          	mv	a0,a5
     394:	01c12403          	lw	s0,28(sp)
     398:	02010113          	addi	sp,sp,32
     39c:	00008067          	ret

000003a0 <_swilseek>:
     3a0:	fe010113          	addi	sp,sp,-32
     3a4:	00812e23          	sw	s0,28(sp)
     3a8:	02010413          	addi	s0,sp,32
     3ac:	fea42623          	sw	a0,-20(s0)
     3b0:	feb42423          	sw	a1,-24(s0)
     3b4:	fec42223          	sw	a2,-28(s0)
     3b8:	00000013          	nop
     3bc:	00078513          	mv	a0,a5
     3c0:	01c12403          	lw	s0,28(sp)
     3c4:	02010113          	addi	sp,sp,32
     3c8:	00008067          	ret

000003cc <_read>:
     3cc:	fe010113          	addi	sp,sp,-32
     3d0:	00812e23          	sw	s0,28(sp)
     3d4:	02010413          	addi	s0,sp,32
     3d8:	fea42623          	sw	a0,-20(s0)
     3dc:	feb42423          	sw	a1,-24(s0)
     3e0:	fec42223          	sw	a2,-28(s0)
     3e4:	00000013          	nop
     3e8:	00078513          	mv	a0,a5
     3ec:	01c12403          	lw	s0,28(sp)
     3f0:	02010113          	addi	sp,sp,32
     3f4:	00008067          	ret

000003f8 <_swiread>:
     3f8:	fe010113          	addi	sp,sp,-32
     3fc:	00812e23          	sw	s0,28(sp)
     400:	02010413          	addi	s0,sp,32
     404:	fea42623          	sw	a0,-20(s0)
     408:	feb42423          	sw	a1,-24(s0)
     40c:	fec42223          	sw	a2,-28(s0)
     410:	00000013          	nop
     414:	00078513          	mv	a0,a5
     418:	01c12403          	lw	s0,28(sp)
     41c:	02010113          	addi	sp,sp,32
     420:	00008067          	ret

00000424 <FFT>:
     424:	f7010113          	addi	sp,sp,-144
     428:	08112623          	sw	ra,140(sp)
     42c:	08812423          	sw	s0,136(sp)
     430:	08912223          	sw	s1,132(sp)
     434:	09212023          	sw	s2,128(sp)
     438:	07312e23          	sw	s3,124(sp)
     43c:	09010413          	addi	s0,sp,144
     440:	f6a42e23          	sw	a0,-132(s0)
     444:	f6b42c23          	sw	a1,-136(s0)
     448:	fc042423          	sw	zero,-56(s0)
     44c:	fa042823          	sw	zero,-80(s0)
     450:	fa042a23          	sw	zero,-76(s0)
     454:	f7c42783          	lw	a5,-132(s0)
     458:	260782e3          	beqz	a5,ebc <FFT+0xa98>
     45c:	f7842703          	lw	a4,-136(s0)
     460:	00100793          	li	a5,1
     464:	24f70ce3          	beq	a4,a5,ebc <FFT+0xa98>
     468:	f7c42783          	lw	a5,-132(s0)
     46c:	faf42623          	sw	a5,-84(s0)
     470:	fc042c23          	sw	zero,-40(s0)
     474:	0400006f          	j	4b4 <FFT+0x90>
     478:	fd842783          	lw	a5,-40(s0)
     47c:	00100713          	li	a4,1
     480:	00f717b3          	sll	a5,a4,a5
     484:	00078713          	mv	a4,a5
     488:	f7842783          	lw	a5,-136(s0)
     48c:	00f777b3          	and	a5,a4,a5
     490:	00078c63          	beqz	a5,4a8 <FFT+0x84>
     494:	fd842783          	lw	a5,-40(s0)
     498:	fcf42e23          	sw	a5,-36(s0)
     49c:	fc842783          	lw	a5,-56(s0)
     4a0:	00178793          	addi	a5,a5,1
     4a4:	fcf42423          	sw	a5,-56(s0)
     4a8:	fd842783          	lw	a5,-40(s0)
     4ac:	00178793          	addi	a5,a5,1
     4b0:	fcf42c23          	sw	a5,-40(s0)
     4b4:	fd842703          	lw	a4,-40(s0)
     4b8:	01f00793          	li	a5,31
     4bc:	fae7fee3          	bgeu	a5,a4,478 <FFT+0x54>
     4c0:	fc842703          	lw	a4,-56(s0)
     4c4:	00100793          	li	a5,1
     4c8:	1ef71ee3          	bne	a4,a5,ec4 <FFT+0xaa0>
     4cc:	0001b7b7          	lui	a5,0x1b
     4d0:	ac87a783          	lw	a5,-1336(a5) # 1aac8 <lastNum.2149>
     4d4:	f7842703          	lw	a4,-136(s0)
     4d8:	28f70263          	beq	a4,a5,75c <FFT+0x338>
     4dc:	f7842703          	lw	a4,-136(s0)
     4e0:	000027b7          	lui	a5,0x2
     4e4:	1ee7e4e3          	bltu	a5,a4,ecc <FFT+0xaa8>
     4e8:	0001b7b7          	lui	a5,0x1b
     4ec:	f7842703          	lw	a4,-136(s0)
     4f0:	ace7a423          	sw	a4,-1336(a5) # 1aac8 <lastNum.2149>
     4f4:	f7842783          	lw	a5,-136(s0)
     4f8:	0017d793          	srli	a5,a5,0x1
     4fc:	fcf42423          	sw	a5,-56(s0)
     500:	f7842503          	lw	a0,-136(s0)
     504:	328150ef          	jal	ra,1582c <__floatunsidf>
     508:	00050693          	mv	a3,a0
     50c:	00058713          	mv	a4,a1
     510:	000197b7          	lui	a5,0x19
     514:	00068613          	mv	a2,a3
     518:	00070693          	mv	a3,a4
     51c:	fa07a503          	lw	a0,-96(a5) # 18fa0 <__clzsi2+0xa8>
     520:	fa47a583          	lw	a1,-92(a5)
     524:	015130ef          	jal	ra,13d38 <__divdf3>
     528:	00050793          	mv	a5,a0
     52c:	00058813          	mv	a6,a1
     530:	00078513          	mv	a0,a5
     534:	00080593          	mv	a1,a6
     538:	4e5000ef          	jal	ra,121c <cos>
     53c:	00050793          	mv	a5,a0
     540:	00058813          	mv	a6,a1
     544:	f8f42c23          	sw	a5,-104(s0)
     548:	f9042e23          	sw	a6,-100(s0)
     54c:	f7842503          	lw	a0,-136(s0)
     550:	2dc150ef          	jal	ra,1582c <__floatunsidf>
     554:	00050693          	mv	a3,a0
     558:	00058713          	mv	a4,a1
     55c:	000197b7          	lui	a5,0x19
     560:	00068613          	mv	a2,a3
     564:	00070693          	mv	a3,a4
     568:	fa07a503          	lw	a0,-96(a5) # 18fa0 <__clzsi2+0xa8>
     56c:	fa47a583          	lw	a1,-92(a5)
     570:	7c8130ef          	jal	ra,13d38 <__divdf3>
     574:	00050793          	mv	a5,a0
     578:	00058813          	mv	a6,a1
     57c:	00078513          	mv	a0,a5
     580:	00080593          	mv	a1,a6
     584:	57d000ef          	jal	ra,1300 <sin>
     588:	00050793          	mv	a5,a0
     58c:	00058813          	mv	a6,a1
     590:	00078913          	mv	s2,a5
     594:	80000737          	lui	a4,0x80000
     598:	00e849b3          	xor	s3,a6,a4
     59c:	fb242023          	sw	s2,-96(s0)
     5a0:	fb342223          	sw	s3,-92(s0)
     5a4:	0001b737          	lui	a4,0x1b
     5a8:	000197b7          	lui	a5,0x19
     5ac:	fac7a803          	lw	a6,-84(a5) # 18fac <__clzsi2+0xb4>
     5b0:	fa87a783          	lw	a5,-88(a5)
     5b4:	acf72823          	sw	a5,-1328(a4) # 1aad0 <W>
     5b8:	ad072a23          	sw	a6,-1324(a4)
     5bc:	0001b7b7          	lui	a5,0x1b
     5c0:	ad078793          	addi	a5,a5,-1328 # 1aad0 <W>
     5c4:	0007a423          	sw	zero,8(a5)
     5c8:	0007a623          	sw	zero,12(a5)
     5cc:	00100793          	li	a5,1
     5d0:	fcf42623          	sw	a5,-52(s0)
     5d4:	17c0006f          	j	750 <FFT+0x32c>
     5d8:	0001b7b7          	lui	a5,0x1b
     5dc:	fcc42703          	lw	a4,-52(s0)
     5e0:	00471713          	slli	a4,a4,0x4
     5e4:	ad078793          	addi	a5,a5,-1328 # 1aad0 <W>
     5e8:	00f707b3          	add	a5,a4,a5
     5ec:	f9842583          	lw	a1,-104(s0)
     5f0:	f9c42603          	lw	a2,-100(s0)
     5f4:	fa042683          	lw	a3,-96(s0)
     5f8:	fa442703          	lw	a4,-92(s0)
     5fc:	00b7a023          	sw	a1,0(a5)
     600:	00c7a223          	sw	a2,4(a5)
     604:	00d7a423          	sw	a3,8(a5)
     608:	00e7a623          	sw	a4,12(a5)
     60c:	f9842783          	lw	a5,-104(s0)
     610:	f9c42803          	lw	a6,-100(s0)
     614:	0001b737          	lui	a4,0x1b
     618:	ad070713          	addi	a4,a4,-1328 # 1aad0 <W>
     61c:	01072683          	lw	a3,16(a4)
     620:	01472703          	lw	a4,20(a4)
     624:	00068613          	mv	a2,a3
     628:	00070693          	mv	a3,a4
     62c:	00078513          	mv	a0,a5
     630:	00080593          	mv	a1,a6
     634:	124140ef          	jal	ra,14758 <__muldf3>
     638:	00050793          	mv	a5,a0
     63c:	00058813          	mv	a6,a1
     640:	00078913          	mv	s2,a5
     644:	00080993          	mv	s3,a6
     648:	fa042783          	lw	a5,-96(s0)
     64c:	fa442803          	lw	a6,-92(s0)
     650:	0001b737          	lui	a4,0x1b
     654:	ad070713          	addi	a4,a4,-1328 # 1aad0 <W>
     658:	01872683          	lw	a3,24(a4)
     65c:	01c72703          	lw	a4,28(a4)
     660:	00068613          	mv	a2,a3
     664:	00070693          	mv	a3,a4
     668:	00078513          	mv	a0,a5
     66c:	00080593          	mv	a1,a6
     670:	0e8140ef          	jal	ra,14758 <__muldf3>
     674:	00050793          	mv	a5,a0
     678:	00058813          	mv	a6,a1
     67c:	00078613          	mv	a2,a5
     680:	00080693          	mv	a3,a6
     684:	00090513          	mv	a0,s2
     688:	00098593          	mv	a1,s3
     68c:	7e0140ef          	jal	ra,14e6c <__subdf3>
     690:	00050793          	mv	a5,a0
     694:	00058813          	mv	a6,a1
     698:	faf42823          	sw	a5,-80(s0)
     69c:	fb042a23          	sw	a6,-76(s0)
     6a0:	f9842783          	lw	a5,-104(s0)
     6a4:	f9c42803          	lw	a6,-100(s0)
     6a8:	0001b737          	lui	a4,0x1b
     6ac:	ad070713          	addi	a4,a4,-1328 # 1aad0 <W>
     6b0:	01872683          	lw	a3,24(a4)
     6b4:	01c72703          	lw	a4,28(a4)
     6b8:	00068613          	mv	a2,a3
     6bc:	00070693          	mv	a3,a4
     6c0:	00078513          	mv	a0,a5
     6c4:	00080593          	mv	a1,a6
     6c8:	090140ef          	jal	ra,14758 <__muldf3>
     6cc:	00050793          	mv	a5,a0
     6d0:	00058813          	mv	a6,a1
     6d4:	00078913          	mv	s2,a5
     6d8:	00080993          	mv	s3,a6
     6dc:	fa042783          	lw	a5,-96(s0)
     6e0:	fa442803          	lw	a6,-92(s0)
     6e4:	0001b737          	lui	a4,0x1b
     6e8:	ad070713          	addi	a4,a4,-1328 # 1aad0 <W>
     6ec:	01072683          	lw	a3,16(a4)
     6f0:	01472703          	lw	a4,20(a4)
     6f4:	00068613          	mv	a2,a3
     6f8:	00070693          	mv	a3,a4
     6fc:	00078513          	mv	a0,a5
     700:	00080593          	mv	a1,a6
     704:	054140ef          	jal	ra,14758 <__muldf3>
     708:	00050793          	mv	a5,a0
     70c:	00058813          	mv	a6,a1
     710:	00078613          	mv	a2,a5
     714:	00080693          	mv	a3,a6
     718:	00090513          	mv	a0,s2
     71c:	00098593          	mv	a1,s3
     720:	595120ef          	jal	ra,134b4 <__adddf3>
     724:	00050793          	mv	a5,a0
     728:	00058813          	mv	a6,a1
     72c:	faf42023          	sw	a5,-96(s0)
     730:	fb042223          	sw	a6,-92(s0)
     734:	fb042783          	lw	a5,-80(s0)
     738:	fb442803          	lw	a6,-76(s0)
     73c:	f8f42c23          	sw	a5,-104(s0)
     740:	f9042e23          	sw	a6,-100(s0)
     744:	fcc42783          	lw	a5,-52(s0)
     748:	00178793          	addi	a5,a5,1
     74c:	fcf42623          	sw	a5,-52(s0)
     750:	fcc42703          	lw	a4,-52(s0)
     754:	fc842783          	lw	a5,-56(s0)
     758:	e8f760e3          	bltu	a4,a5,5d8 <FFT+0x1b4>
     75c:	f7842783          	lw	a5,-136(s0)
     760:	fcf42223          	sw	a5,-60(s0)
     764:	00100793          	li	a5,1
     768:	faf42e23          	sw	a5,-68(s0)
     76c:	fc042823          	sw	zero,-48(s0)
     770:	62c0006f          	j	d9c <FFT+0x978>
     774:	fc442783          	lw	a5,-60(s0)
     778:	0017d793          	srli	a5,a5,0x1
     77c:	fcf42223          	sw	a5,-60(s0)
     780:	fc042c23          	sw	zero,-40(s0)
     784:	1e80006f          	j	96c <FFT+0x548>
     788:	fd842783          	lw	a5,-40(s0)
     78c:	00479793          	slli	a5,a5,0x4
     790:	fac42703          	lw	a4,-84(s0)
     794:	00f707b3          	add	a5,a4,a5
     798:	0047a803          	lw	a6,4(a5)
     79c:	0007a783          	lw	a5,0(a5)
     7a0:	fd842683          	lw	a3,-40(s0)
     7a4:	fc442703          	lw	a4,-60(s0)
     7a8:	00e68733          	add	a4,a3,a4
     7ac:	00471713          	slli	a4,a4,0x4
     7b0:	fac42683          	lw	a3,-84(s0)
     7b4:	00e68733          	add	a4,a3,a4
     7b8:	00072683          	lw	a3,0(a4)
     7bc:	00472703          	lw	a4,4(a4)
     7c0:	00068613          	mv	a2,a3
     7c4:	00070693          	mv	a3,a4
     7c8:	00078513          	mv	a0,a5
     7cc:	00080593          	mv	a1,a6
     7d0:	4e5120ef          	jal	ra,134b4 <__adddf3>
     7d4:	00050793          	mv	a5,a0
     7d8:	00058813          	mv	a6,a1
     7dc:	f8f42c23          	sw	a5,-104(s0)
     7e0:	f9042e23          	sw	a6,-100(s0)
     7e4:	fd842783          	lw	a5,-40(s0)
     7e8:	00479793          	slli	a5,a5,0x4
     7ec:	fac42703          	lw	a4,-84(s0)
     7f0:	00f707b3          	add	a5,a4,a5
     7f4:	00c7a803          	lw	a6,12(a5)
     7f8:	0087a783          	lw	a5,8(a5)
     7fc:	fd842683          	lw	a3,-40(s0)
     800:	fc442703          	lw	a4,-60(s0)
     804:	00e68733          	add	a4,a3,a4
     808:	00471713          	slli	a4,a4,0x4
     80c:	fac42683          	lw	a3,-84(s0)
     810:	00e68733          	add	a4,a3,a4
     814:	00872683          	lw	a3,8(a4)
     818:	00c72703          	lw	a4,12(a4)
     81c:	00068613          	mv	a2,a3
     820:	00070693          	mv	a3,a4
     824:	00078513          	mv	a0,a5
     828:	00080593          	mv	a1,a6
     82c:	489120ef          	jal	ra,134b4 <__adddf3>
     830:	00050793          	mv	a5,a0
     834:	00058813          	mv	a6,a1
     838:	faf42023          	sw	a5,-96(s0)
     83c:	fb042223          	sw	a6,-92(s0)
     840:	fd842783          	lw	a5,-40(s0)
     844:	00479793          	slli	a5,a5,0x4
     848:	fac42703          	lw	a4,-84(s0)
     84c:	00f707b3          	add	a5,a4,a5
     850:	0047a803          	lw	a6,4(a5)
     854:	0007a783          	lw	a5,0(a5)
     858:	fd842683          	lw	a3,-40(s0)
     85c:	fc442703          	lw	a4,-60(s0)
     860:	00e68733          	add	a4,a3,a4
     864:	00471713          	slli	a4,a4,0x4
     868:	fac42683          	lw	a3,-84(s0)
     86c:	00e68733          	add	a4,a3,a4
     870:	00072683          	lw	a3,0(a4)
     874:	00472703          	lw	a4,4(a4)
     878:	fd842583          	lw	a1,-40(s0)
     87c:	fc442603          	lw	a2,-60(s0)
     880:	00c58633          	add	a2,a1,a2
     884:	00461613          	slli	a2,a2,0x4
     888:	fac42583          	lw	a1,-84(s0)
     88c:	00c584b3          	add	s1,a1,a2
     890:	00068613          	mv	a2,a3
     894:	00070693          	mv	a3,a4
     898:	00078513          	mv	a0,a5
     89c:	00080593          	mv	a1,a6
     8a0:	5cc140ef          	jal	ra,14e6c <__subdf3>
     8a4:	00050793          	mv	a5,a0
     8a8:	00058813          	mv	a6,a1
     8ac:	00f4a023          	sw	a5,0(s1)
     8b0:	0104a223          	sw	a6,4(s1)
     8b4:	fd842783          	lw	a5,-40(s0)
     8b8:	00479793          	slli	a5,a5,0x4
     8bc:	fac42703          	lw	a4,-84(s0)
     8c0:	00f707b3          	add	a5,a4,a5
     8c4:	00c7a803          	lw	a6,12(a5)
     8c8:	0087a783          	lw	a5,8(a5)
     8cc:	fd842683          	lw	a3,-40(s0)
     8d0:	fc442703          	lw	a4,-60(s0)
     8d4:	00e68733          	add	a4,a3,a4
     8d8:	00471713          	slli	a4,a4,0x4
     8dc:	fac42683          	lw	a3,-84(s0)
     8e0:	00e68733          	add	a4,a3,a4
     8e4:	00872683          	lw	a3,8(a4)
     8e8:	00c72703          	lw	a4,12(a4)
     8ec:	fd842583          	lw	a1,-40(s0)
     8f0:	fc442603          	lw	a2,-60(s0)
     8f4:	00c58633          	add	a2,a1,a2
     8f8:	00461613          	slli	a2,a2,0x4
     8fc:	fac42583          	lw	a1,-84(s0)
     900:	00c584b3          	add	s1,a1,a2
     904:	00068613          	mv	a2,a3
     908:	00070693          	mv	a3,a4
     90c:	00078513          	mv	a0,a5
     910:	00080593          	mv	a1,a6
     914:	558140ef          	jal	ra,14e6c <__subdf3>
     918:	00050793          	mv	a5,a0
     91c:	00058813          	mv	a6,a1
     920:	00f4a423          	sw	a5,8(s1)
     924:	0104a623          	sw	a6,12(s1)
     928:	fd842783          	lw	a5,-40(s0)
     92c:	00479793          	slli	a5,a5,0x4
     930:	fac42703          	lw	a4,-84(s0)
     934:	00f707b3          	add	a5,a4,a5
     938:	f9842583          	lw	a1,-104(s0)
     93c:	f9c42603          	lw	a2,-100(s0)
     940:	fa042683          	lw	a3,-96(s0)
     944:	fa442703          	lw	a4,-92(s0)
     948:	00b7a023          	sw	a1,0(a5)
     94c:	00c7a223          	sw	a2,4(a5)
     950:	00d7a423          	sw	a3,8(a5)
     954:	00e7a623          	sw	a4,12(a5)
     958:	fc442783          	lw	a5,-60(s0)
     95c:	00179793          	slli	a5,a5,0x1
     960:	fd842703          	lw	a4,-40(s0)
     964:	00f707b3          	add	a5,a4,a5
     968:	fcf42c23          	sw	a5,-40(s0)
     96c:	fd842703          	lw	a4,-40(s0)
     970:	f7842783          	lw	a5,-136(s0)
     974:	e0f76ae3          	bltu	a4,a5,788 <FFT+0x364>
     978:	fbc42783          	lw	a5,-68(s0)
     97c:	fcf42023          	sw	a5,-64(s0)
     980:	00100793          	li	a5,1
     984:	fcf42c23          	sw	a5,-40(s0)
     988:	3f00006f          	j	d78 <FFT+0x954>
     98c:	0001b7b7          	lui	a5,0x1b
     990:	fc042703          	lw	a4,-64(s0)
     994:	00471713          	slli	a4,a4,0x4
     998:	ad078793          	addi	a5,a5,-1328 # 1aad0 <W>
     99c:	00f707b3          	add	a5,a4,a5
     9a0:	0007a603          	lw	a2,0(a5)
     9a4:	0047a683          	lw	a3,4(a5)
     9a8:	0087a703          	lw	a4,8(a5)
     9ac:	00c7a783          	lw	a5,12(a5)
     9b0:	f8c42423          	sw	a2,-120(s0)
     9b4:	f8d42623          	sw	a3,-116(s0)
     9b8:	f8e42823          	sw	a4,-112(s0)
     9bc:	f8f42a23          	sw	a5,-108(s0)
     9c0:	fd842783          	lw	a5,-40(s0)
     9c4:	fcf42a23          	sw	a5,-44(s0)
     9c8:	3880006f          	j	d50 <FFT+0x92c>
     9cc:	fd442783          	lw	a5,-44(s0)
     9d0:	00479793          	slli	a5,a5,0x4
     9d4:	fac42703          	lw	a4,-84(s0)
     9d8:	00f707b3          	add	a5,a4,a5
     9dc:	0047a803          	lw	a6,4(a5)
     9e0:	0007a783          	lw	a5,0(a5)
     9e4:	fd442683          	lw	a3,-44(s0)
     9e8:	fc442703          	lw	a4,-60(s0)
     9ec:	00e68733          	add	a4,a3,a4
     9f0:	00471713          	slli	a4,a4,0x4
     9f4:	fac42683          	lw	a3,-84(s0)
     9f8:	00e68733          	add	a4,a3,a4
     9fc:	00072683          	lw	a3,0(a4)
     a00:	00472703          	lw	a4,4(a4)
     a04:	00068613          	mv	a2,a3
     a08:	00070693          	mv	a3,a4
     a0c:	00078513          	mv	a0,a5
     a10:	00080593          	mv	a1,a6
     a14:	2a1120ef          	jal	ra,134b4 <__adddf3>
     a18:	00050793          	mv	a5,a0
     a1c:	00058813          	mv	a6,a1
     a20:	f8f42c23          	sw	a5,-104(s0)
     a24:	f9042e23          	sw	a6,-100(s0)
     a28:	fd442783          	lw	a5,-44(s0)
     a2c:	00479793          	slli	a5,a5,0x4
     a30:	fac42703          	lw	a4,-84(s0)
     a34:	00f707b3          	add	a5,a4,a5
     a38:	00c7a803          	lw	a6,12(a5)
     a3c:	0087a783          	lw	a5,8(a5)
     a40:	fd442683          	lw	a3,-44(s0)
     a44:	fc442703          	lw	a4,-60(s0)
     a48:	00e68733          	add	a4,a3,a4
     a4c:	00471713          	slli	a4,a4,0x4
     a50:	fac42683          	lw	a3,-84(s0)
     a54:	00e68733          	add	a4,a3,a4
     a58:	00872683          	lw	a3,8(a4)
     a5c:	00c72703          	lw	a4,12(a4)
     a60:	00068613          	mv	a2,a3
     a64:	00070693          	mv	a3,a4
     a68:	00078513          	mv	a0,a5
     a6c:	00080593          	mv	a1,a6
     a70:	245120ef          	jal	ra,134b4 <__adddf3>
     a74:	00050793          	mv	a5,a0
     a78:	00058813          	mv	a6,a1
     a7c:	faf42023          	sw	a5,-96(s0)
     a80:	fb042223          	sw	a6,-92(s0)
     a84:	fd442783          	lw	a5,-44(s0)
     a88:	00479793          	slli	a5,a5,0x4
     a8c:	fac42703          	lw	a4,-84(s0)
     a90:	00f707b3          	add	a5,a4,a5
     a94:	0047a803          	lw	a6,4(a5)
     a98:	0007a783          	lw	a5,0(a5)
     a9c:	fd442683          	lw	a3,-44(s0)
     aa0:	fc442703          	lw	a4,-60(s0)
     aa4:	00e68733          	add	a4,a3,a4
     aa8:	00471713          	slli	a4,a4,0x4
     aac:	fac42683          	lw	a3,-84(s0)
     ab0:	00e68733          	add	a4,a3,a4
     ab4:	00072683          	lw	a3,0(a4)
     ab8:	00472703          	lw	a4,4(a4)
     abc:	fd442583          	lw	a1,-44(s0)
     ac0:	fc442603          	lw	a2,-60(s0)
     ac4:	00c58633          	add	a2,a1,a2
     ac8:	00461613          	slli	a2,a2,0x4
     acc:	fac42583          	lw	a1,-84(s0)
     ad0:	00c584b3          	add	s1,a1,a2
     ad4:	00068613          	mv	a2,a3
     ad8:	00070693          	mv	a3,a4
     adc:	00078513          	mv	a0,a5
     ae0:	00080593          	mv	a1,a6
     ae4:	388140ef          	jal	ra,14e6c <__subdf3>
     ae8:	00050793          	mv	a5,a0
     aec:	00058813          	mv	a6,a1
     af0:	00f4a023          	sw	a5,0(s1)
     af4:	0104a223          	sw	a6,4(s1)
     af8:	fd442783          	lw	a5,-44(s0)
     afc:	00479793          	slli	a5,a5,0x4
     b00:	fac42703          	lw	a4,-84(s0)
     b04:	00f707b3          	add	a5,a4,a5
     b08:	00c7a803          	lw	a6,12(a5)
     b0c:	0087a783          	lw	a5,8(a5)
     b10:	fd442683          	lw	a3,-44(s0)
     b14:	fc442703          	lw	a4,-60(s0)
     b18:	00e68733          	add	a4,a3,a4
     b1c:	00471713          	slli	a4,a4,0x4
     b20:	fac42683          	lw	a3,-84(s0)
     b24:	00e68733          	add	a4,a3,a4
     b28:	00872683          	lw	a3,8(a4)
     b2c:	00c72703          	lw	a4,12(a4)
     b30:	fd442583          	lw	a1,-44(s0)
     b34:	fc442603          	lw	a2,-60(s0)
     b38:	00c58633          	add	a2,a1,a2
     b3c:	00461613          	slli	a2,a2,0x4
     b40:	fac42583          	lw	a1,-84(s0)
     b44:	00c584b3          	add	s1,a1,a2
     b48:	00068613          	mv	a2,a3
     b4c:	00070693          	mv	a3,a4
     b50:	00078513          	mv	a0,a5
     b54:	00080593          	mv	a1,a6
     b58:	314140ef          	jal	ra,14e6c <__subdf3>
     b5c:	00050793          	mv	a5,a0
     b60:	00058813          	mv	a6,a1
     b64:	00f4a423          	sw	a5,8(s1)
     b68:	0104a623          	sw	a6,12(s1)
     b6c:	fd442783          	lw	a5,-44(s0)
     b70:	00479793          	slli	a5,a5,0x4
     b74:	fac42703          	lw	a4,-84(s0)
     b78:	00f707b3          	add	a5,a4,a5
     b7c:	f9842583          	lw	a1,-104(s0)
     b80:	f9c42603          	lw	a2,-100(s0)
     b84:	fa042683          	lw	a3,-96(s0)
     b88:	fa442703          	lw	a4,-92(s0)
     b8c:	00b7a023          	sw	a1,0(a5)
     b90:	00c7a223          	sw	a2,4(a5)
     b94:	00d7a423          	sw	a3,8(a5)
     b98:	00e7a623          	sw	a4,12(a5)
     b9c:	fd442703          	lw	a4,-44(s0)
     ba0:	fc442783          	lw	a5,-60(s0)
     ba4:	00f707b3          	add	a5,a4,a5
     ba8:	00479793          	slli	a5,a5,0x4
     bac:	fac42703          	lw	a4,-84(s0)
     bb0:	00f707b3          	add	a5,a4,a5
     bb4:	0047a803          	lw	a6,4(a5)
     bb8:	0007a783          	lw	a5,0(a5)
     bbc:	f8842683          	lw	a3,-120(s0)
     bc0:	f8c42703          	lw	a4,-116(s0)
     bc4:	00068613          	mv	a2,a3
     bc8:	00070693          	mv	a3,a4
     bcc:	00078513          	mv	a0,a5
     bd0:	00080593          	mv	a1,a6
     bd4:	385130ef          	jal	ra,14758 <__muldf3>
     bd8:	00050793          	mv	a5,a0
     bdc:	00058813          	mv	a6,a1
     be0:	00078913          	mv	s2,a5
     be4:	00080993          	mv	s3,a6
     be8:	fd442703          	lw	a4,-44(s0)
     bec:	fc442783          	lw	a5,-60(s0)
     bf0:	00f707b3          	add	a5,a4,a5
     bf4:	00479793          	slli	a5,a5,0x4
     bf8:	fac42703          	lw	a4,-84(s0)
     bfc:	00f707b3          	add	a5,a4,a5
     c00:	00c7a803          	lw	a6,12(a5)
     c04:	0087a783          	lw	a5,8(a5)
     c08:	f9042683          	lw	a3,-112(s0)
     c0c:	f9442703          	lw	a4,-108(s0)
     c10:	00068613          	mv	a2,a3
     c14:	00070693          	mv	a3,a4
     c18:	00078513          	mv	a0,a5
     c1c:	00080593          	mv	a1,a6
     c20:	339130ef          	jal	ra,14758 <__muldf3>
     c24:	00050793          	mv	a5,a0
     c28:	00058813          	mv	a6,a1
     c2c:	00078613          	mv	a2,a5
     c30:	00080693          	mv	a3,a6
     c34:	00090513          	mv	a0,s2
     c38:	00098593          	mv	a1,s3
     c3c:	230140ef          	jal	ra,14e6c <__subdf3>
     c40:	00050793          	mv	a5,a0
     c44:	00058813          	mv	a6,a1
     c48:	f8f42c23          	sw	a5,-104(s0)
     c4c:	f9042e23          	sw	a6,-100(s0)
     c50:	fd442703          	lw	a4,-44(s0)
     c54:	fc442783          	lw	a5,-60(s0)
     c58:	00f707b3          	add	a5,a4,a5
     c5c:	00479793          	slli	a5,a5,0x4
     c60:	fac42703          	lw	a4,-84(s0)
     c64:	00f707b3          	add	a5,a4,a5
     c68:	0047a803          	lw	a6,4(a5)
     c6c:	0007a783          	lw	a5,0(a5)
     c70:	f9042683          	lw	a3,-112(s0)
     c74:	f9442703          	lw	a4,-108(s0)
     c78:	00068613          	mv	a2,a3
     c7c:	00070693          	mv	a3,a4
     c80:	00078513          	mv	a0,a5
     c84:	00080593          	mv	a1,a6
     c88:	2d1130ef          	jal	ra,14758 <__muldf3>
     c8c:	00050793          	mv	a5,a0
     c90:	00058813          	mv	a6,a1
     c94:	00078913          	mv	s2,a5
     c98:	00080993          	mv	s3,a6
     c9c:	fd442703          	lw	a4,-44(s0)
     ca0:	fc442783          	lw	a5,-60(s0)
     ca4:	00f707b3          	add	a5,a4,a5
     ca8:	00479793          	slli	a5,a5,0x4
     cac:	fac42703          	lw	a4,-84(s0)
     cb0:	00f707b3          	add	a5,a4,a5
     cb4:	00c7a803          	lw	a6,12(a5)
     cb8:	0087a783          	lw	a5,8(a5)
     cbc:	f8842683          	lw	a3,-120(s0)
     cc0:	f8c42703          	lw	a4,-116(s0)
     cc4:	00068613          	mv	a2,a3
     cc8:	00070693          	mv	a3,a4
     ccc:	00078513          	mv	a0,a5
     cd0:	00080593          	mv	a1,a6
     cd4:	285130ef          	jal	ra,14758 <__muldf3>
     cd8:	00050793          	mv	a5,a0
     cdc:	00058813          	mv	a6,a1
     ce0:	00078613          	mv	a2,a5
     ce4:	00080693          	mv	a3,a6
     ce8:	00090513          	mv	a0,s2
     cec:	00098593          	mv	a1,s3
     cf0:	7c4120ef          	jal	ra,134b4 <__adddf3>
     cf4:	00050793          	mv	a5,a0
     cf8:	00058813          	mv	a6,a1
     cfc:	faf42023          	sw	a5,-96(s0)
     d00:	fb042223          	sw	a6,-92(s0)
     d04:	fd442703          	lw	a4,-44(s0)
     d08:	fc442783          	lw	a5,-60(s0)
     d0c:	00f707b3          	add	a5,a4,a5
     d10:	00479793          	slli	a5,a5,0x4
     d14:	fac42703          	lw	a4,-84(s0)
     d18:	00f707b3          	add	a5,a4,a5
     d1c:	f9842583          	lw	a1,-104(s0)
     d20:	f9c42603          	lw	a2,-100(s0)
     d24:	fa042683          	lw	a3,-96(s0)
     d28:	fa442703          	lw	a4,-92(s0)
     d2c:	00b7a023          	sw	a1,0(a5)
     d30:	00c7a223          	sw	a2,4(a5)
     d34:	00d7a423          	sw	a3,8(a5)
     d38:	00e7a623          	sw	a4,12(a5)
     d3c:	fc442783          	lw	a5,-60(s0)
     d40:	00179793          	slli	a5,a5,0x1
     d44:	fd442703          	lw	a4,-44(s0)
     d48:	00f707b3          	add	a5,a4,a5
     d4c:	fcf42a23          	sw	a5,-44(s0)
     d50:	fd442703          	lw	a4,-44(s0)
     d54:	f7842783          	lw	a5,-136(s0)
     d58:	c6f76ae3          	bltu	a4,a5,9cc <FFT+0x5a8>
     d5c:	fc042703          	lw	a4,-64(s0)
     d60:	fbc42783          	lw	a5,-68(s0)
     d64:	00f707b3          	add	a5,a4,a5
     d68:	fcf42023          	sw	a5,-64(s0)
     d6c:	fd842783          	lw	a5,-40(s0)
     d70:	00178793          	addi	a5,a5,1
     d74:	fcf42c23          	sw	a5,-40(s0)
     d78:	fd842703          	lw	a4,-40(s0)
     d7c:	fc442783          	lw	a5,-60(s0)
     d80:	c0f766e3          	bltu	a4,a5,98c <FFT+0x568>
     d84:	fbc42783          	lw	a5,-68(s0)
     d88:	00179793          	slli	a5,a5,0x1
     d8c:	faf42e23          	sw	a5,-68(s0)
     d90:	fd042783          	lw	a5,-48(s0)
     d94:	00178793          	addi	a5,a5,1
     d98:	fcf42823          	sw	a5,-48(s0)
     d9c:	fd042703          	lw	a4,-48(s0)
     da0:	fdc42783          	lw	a5,-36(s0)
     da4:	9cf768e3          	bltu	a4,a5,774 <FFT+0x350>
     da8:	fc042c23          	sw	zero,-40(s0)
     dac:	1000006f          	j	eac <FFT+0xa88>
     db0:	fc042a23          	sw	zero,-44(s0)
     db4:	fc042823          	sw	zero,-48(s0)
     db8:	0300006f          	j	de8 <FFT+0x9c4>
     dbc:	fd442783          	lw	a5,-44(s0)
     dc0:	00179713          	slli	a4,a5,0x1
     dc4:	fd042783          	lw	a5,-48(s0)
     dc8:	fd842683          	lw	a3,-40(s0)
     dcc:	00f6d7b3          	srl	a5,a3,a5
     dd0:	0017f793          	andi	a5,a5,1
     dd4:	00f767b3          	or	a5,a4,a5
     dd8:	fcf42a23          	sw	a5,-44(s0)
     ddc:	fd042783          	lw	a5,-48(s0)
     de0:	00178793          	addi	a5,a5,1
     de4:	fcf42823          	sw	a5,-48(s0)
     de8:	fd042703          	lw	a4,-48(s0)
     dec:	fdc42783          	lw	a5,-36(s0)
     df0:	fcf766e3          	bltu	a4,a5,dbc <FFT+0x998>
     df4:	fd842703          	lw	a4,-40(s0)
     df8:	fd442783          	lw	a5,-44(s0)
     dfc:	0af77263          	bgeu	a4,a5,ea0 <FFT+0xa7c>
     e00:	fd842783          	lw	a5,-40(s0)
     e04:	00479793          	slli	a5,a5,0x4
     e08:	fac42703          	lw	a4,-84(s0)
     e0c:	00f707b3          	add	a5,a4,a5
     e10:	0007a603          	lw	a2,0(a5)
     e14:	0047a683          	lw	a3,4(a5)
     e18:	0087a703          	lw	a4,8(a5)
     e1c:	00c7a783          	lw	a5,12(a5)
     e20:	f8c42c23          	sw	a2,-104(s0)
     e24:	f8d42e23          	sw	a3,-100(s0)
     e28:	fae42023          	sw	a4,-96(s0)
     e2c:	faf42223          	sw	a5,-92(s0)
     e30:	fd442783          	lw	a5,-44(s0)
     e34:	00479793          	slli	a5,a5,0x4
     e38:	fac42703          	lw	a4,-84(s0)
     e3c:	00f70733          	add	a4,a4,a5
     e40:	fd842783          	lw	a5,-40(s0)
     e44:	00479793          	slli	a5,a5,0x4
     e48:	fac42683          	lw	a3,-84(s0)
     e4c:	00f687b3          	add	a5,a3,a5
     e50:	00072583          	lw	a1,0(a4)
     e54:	00472603          	lw	a2,4(a4)
     e58:	00872683          	lw	a3,8(a4)
     e5c:	00c72703          	lw	a4,12(a4)
     e60:	00b7a023          	sw	a1,0(a5)
     e64:	00c7a223          	sw	a2,4(a5)
     e68:	00d7a423          	sw	a3,8(a5)
     e6c:	00e7a623          	sw	a4,12(a5)
     e70:	fd442783          	lw	a5,-44(s0)
     e74:	00479793          	slli	a5,a5,0x4
     e78:	fac42703          	lw	a4,-84(s0)
     e7c:	00f707b3          	add	a5,a4,a5
     e80:	f9842583          	lw	a1,-104(s0)
     e84:	f9c42603          	lw	a2,-100(s0)
     e88:	fa042683          	lw	a3,-96(s0)
     e8c:	fa442703          	lw	a4,-92(s0)
     e90:	00b7a023          	sw	a1,0(a5)
     e94:	00c7a223          	sw	a2,4(a5)
     e98:	00d7a423          	sw	a3,8(a5)
     e9c:	00e7a623          	sw	a4,12(a5)
     ea0:	fd842783          	lw	a5,-40(s0)
     ea4:	00178793          	addi	a5,a5,1
     ea8:	fcf42c23          	sw	a5,-40(s0)
     eac:	fd842703          	lw	a4,-40(s0)
     eb0:	f7842783          	lw	a5,-136(s0)
     eb4:	eef76ee3          	bltu	a4,a5,db0 <FFT+0x98c>
     eb8:	0180006f          	j	ed0 <FFT+0xaac>
     ebc:	00000013          	nop
     ec0:	0100006f          	j	ed0 <FFT+0xaac>
     ec4:	00000013          	nop
     ec8:	0080006f          	j	ed0 <FFT+0xaac>
     ecc:	00000013          	nop
     ed0:	08c12083          	lw	ra,140(sp)
     ed4:	08812403          	lw	s0,136(sp)
     ed8:	08412483          	lw	s1,132(sp)
     edc:	08012903          	lw	s2,128(sp)
     ee0:	07c12983          	lw	s3,124(sp)
     ee4:	09010113          	addi	sp,sp,144
     ee8:	00008067          	ret

00000eec <memset>:
     eec:	00f00313          	li	t1,15
     ef0:	00050713          	mv	a4,a0
     ef4:	02c37e63          	bgeu	t1,a2,f30 <memset+0x44>
     ef8:	00f77793          	andi	a5,a4,15
     efc:	0a079063          	bnez	a5,f9c <memset+0xb0>
     f00:	08059263          	bnez	a1,f84 <memset+0x98>
     f04:	ff067693          	andi	a3,a2,-16
     f08:	00f67613          	andi	a2,a2,15
     f0c:	00e686b3          	add	a3,a3,a4
     f10:	00b72023          	sw	a1,0(a4)
     f14:	00b72223          	sw	a1,4(a4)
     f18:	00b72423          	sw	a1,8(a4)
     f1c:	00b72623          	sw	a1,12(a4)
     f20:	01070713          	addi	a4,a4,16
     f24:	fed766e3          	bltu	a4,a3,f10 <memset+0x24>
     f28:	00061463          	bnez	a2,f30 <memset+0x44>
     f2c:	00008067          	ret
     f30:	40c306b3          	sub	a3,t1,a2
     f34:	00269693          	slli	a3,a3,0x2
     f38:	00000297          	auipc	t0,0x0
     f3c:	005686b3          	add	a3,a3,t0
     f40:	00c68067          	jr	12(a3)
     f44:	00b70723          	sb	a1,14(a4)
     f48:	00b706a3          	sb	a1,13(a4)
     f4c:	00b70623          	sb	a1,12(a4)
     f50:	00b705a3          	sb	a1,11(a4)
     f54:	00b70523          	sb	a1,10(a4)
     f58:	00b704a3          	sb	a1,9(a4)
     f5c:	00b70423          	sb	a1,8(a4)
     f60:	00b703a3          	sb	a1,7(a4)
     f64:	00b70323          	sb	a1,6(a4)
     f68:	00b702a3          	sb	a1,5(a4)
     f6c:	00b70223          	sb	a1,4(a4)
     f70:	00b701a3          	sb	a1,3(a4)
     f74:	00b70123          	sb	a1,2(a4)
     f78:	00b700a3          	sb	a1,1(a4)
     f7c:	00b70023          	sb	a1,0(a4)
     f80:	00008067          	ret
     f84:	0ff5f593          	andi	a1,a1,255
     f88:	00859693          	slli	a3,a1,0x8
     f8c:	00d5e5b3          	or	a1,a1,a3
     f90:	01059693          	slli	a3,a1,0x10
     f94:	00d5e5b3          	or	a1,a1,a3
     f98:	f6dff06f          	j	f04 <memset+0x18>
     f9c:	00279693          	slli	a3,a5,0x2
     fa0:	00000297          	auipc	t0,0x0
     fa4:	005686b3          	add	a3,a3,t0
     fa8:	00008293          	mv	t0,ra
     fac:	fa0680e7          	jalr	-96(a3)
     fb0:	00028093          	mv	ra,t0
     fb4:	ff078793          	addi	a5,a5,-16
     fb8:	40f70733          	sub	a4,a4,a5
     fbc:	00f60633          	add	a2,a2,a5
     fc0:	f6c378e3          	bgeu	t1,a2,f30 <memset+0x44>
     fc4:	f3dff06f          	j	f00 <memset+0x14>

00000fc8 <strcmp>:
     fc8:	00b56733          	or	a4,a0,a1
     fcc:	fff00393          	li	t2,-1
     fd0:	00377713          	andi	a4,a4,3
     fd4:	10071063          	bnez	a4,10d4 <strcmp+0x10c>
     fd8:	7f7f87b7          	lui	a5,0x7f7f8
     fdc:	f7f78793          	addi	a5,a5,-129 # 7f7f7f7f <bss_end+0x7f7cd44f>
     fe0:	00052603          	lw	a2,0(a0)
     fe4:	0005a683          	lw	a3,0(a1)
     fe8:	00f672b3          	and	t0,a2,a5
     fec:	00f66333          	or	t1,a2,a5
     ff0:	00f282b3          	add	t0,t0,a5
     ff4:	0062e2b3          	or	t0,t0,t1
     ff8:	10729263          	bne	t0,t2,10fc <strcmp+0x134>
     ffc:	08d61663          	bne	a2,a3,1088 <strcmp+0xc0>
    1000:	00452603          	lw	a2,4(a0)
    1004:	0045a683          	lw	a3,4(a1)
    1008:	00f672b3          	and	t0,a2,a5
    100c:	00f66333          	or	t1,a2,a5
    1010:	00f282b3          	add	t0,t0,a5
    1014:	0062e2b3          	or	t0,t0,t1
    1018:	0c729e63          	bne	t0,t2,10f4 <strcmp+0x12c>
    101c:	06d61663          	bne	a2,a3,1088 <strcmp+0xc0>
    1020:	00852603          	lw	a2,8(a0)
    1024:	0085a683          	lw	a3,8(a1)
    1028:	00f672b3          	and	t0,a2,a5
    102c:	00f66333          	or	t1,a2,a5
    1030:	00f282b3          	add	t0,t0,a5
    1034:	0062e2b3          	or	t0,t0,t1
    1038:	0c729863          	bne	t0,t2,1108 <strcmp+0x140>
    103c:	04d61663          	bne	a2,a3,1088 <strcmp+0xc0>
    1040:	00c52603          	lw	a2,12(a0)
    1044:	00c5a683          	lw	a3,12(a1)
    1048:	00f672b3          	and	t0,a2,a5
    104c:	00f66333          	or	t1,a2,a5
    1050:	00f282b3          	add	t0,t0,a5
    1054:	0062e2b3          	or	t0,t0,t1
    1058:	0c729263          	bne	t0,t2,111c <strcmp+0x154>
    105c:	02d61663          	bne	a2,a3,1088 <strcmp+0xc0>
    1060:	01052603          	lw	a2,16(a0)
    1064:	0105a683          	lw	a3,16(a1)
    1068:	00f672b3          	and	t0,a2,a5
    106c:	00f66333          	or	t1,a2,a5
    1070:	00f282b3          	add	t0,t0,a5
    1074:	0062e2b3          	or	t0,t0,t1
    1078:	0a729c63          	bne	t0,t2,1130 <strcmp+0x168>
    107c:	01450513          	addi	a0,a0,20
    1080:	01458593          	addi	a1,a1,20
    1084:	f4d60ee3          	beq	a2,a3,fe0 <strcmp+0x18>
    1088:	01061713          	slli	a4,a2,0x10
    108c:	01069793          	slli	a5,a3,0x10
    1090:	00f71e63          	bne	a4,a5,10ac <strcmp+0xe4>
    1094:	01065713          	srli	a4,a2,0x10
    1098:	0106d793          	srli	a5,a3,0x10
    109c:	40f70533          	sub	a0,a4,a5
    10a0:	0ff57593          	andi	a1,a0,255
    10a4:	02059063          	bnez	a1,10c4 <strcmp+0xfc>
    10a8:	00008067          	ret
    10ac:	01075713          	srli	a4,a4,0x10
    10b0:	0107d793          	srli	a5,a5,0x10
    10b4:	40f70533          	sub	a0,a4,a5
    10b8:	0ff57593          	andi	a1,a0,255
    10bc:	00059463          	bnez	a1,10c4 <strcmp+0xfc>
    10c0:	00008067          	ret
    10c4:	0ff77713          	andi	a4,a4,255
    10c8:	0ff7f793          	andi	a5,a5,255
    10cc:	40f70533          	sub	a0,a4,a5
    10d0:	00008067          	ret
    10d4:	00054603          	lbu	a2,0(a0)
    10d8:	0005c683          	lbu	a3,0(a1)
    10dc:	00150513          	addi	a0,a0,1
    10e0:	00158593          	addi	a1,a1,1
    10e4:	00d61463          	bne	a2,a3,10ec <strcmp+0x124>
    10e8:	fe0616e3          	bnez	a2,10d4 <strcmp+0x10c>
    10ec:	40d60533          	sub	a0,a2,a3
    10f0:	00008067          	ret
    10f4:	00450513          	addi	a0,a0,4
    10f8:	00458593          	addi	a1,a1,4
    10fc:	fcd61ce3          	bne	a2,a3,10d4 <strcmp+0x10c>
    1100:	00000513          	li	a0,0
    1104:	00008067          	ret
    1108:	00850513          	addi	a0,a0,8
    110c:	00858593          	addi	a1,a1,8
    1110:	fcd612e3          	bne	a2,a3,10d4 <strcmp+0x10c>
    1114:	00000513          	li	a0,0
    1118:	00008067          	ret
    111c:	00c50513          	addi	a0,a0,12
    1120:	00c58593          	addi	a1,a1,12
    1124:	fad618e3          	bne	a2,a3,10d4 <strcmp+0x10c>
    1128:	00000513          	li	a0,0
    112c:	00008067          	ret
    1130:	01050513          	addi	a0,a0,16
    1134:	01058593          	addi	a1,a1,16
    1138:	f8d61ee3          	bne	a2,a3,10d4 <strcmp+0x10c>
    113c:	00000513          	li	a0,0
    1140:	00008067          	ret

00001144 <__mulsi3>:
    1144:	00050613          	mv	a2,a0
    1148:	00000513          	li	a0,0
    114c:	0015f693          	andi	a3,a1,1
    1150:	00068463          	beqz	a3,1158 <__mulsi3+0x14>
    1154:	00c50533          	add	a0,a0,a2
    1158:	0015d593          	srli	a1,a1,0x1
    115c:	00161613          	slli	a2,a2,0x1
    1160:	fe0596e3          	bnez	a1,114c <__mulsi3+0x8>
    1164:	00008067          	ret

00001168 <__divsi3>:
    1168:	06054063          	bltz	a0,11c8 <__umodsi3+0x10>
    116c:	0605c663          	bltz	a1,11d8 <__umodsi3+0x20>

00001170 <__udivsi3>:
    1170:	00058613          	mv	a2,a1
    1174:	00050593          	mv	a1,a0
    1178:	fff00513          	li	a0,-1
    117c:	02060c63          	beqz	a2,11b4 <__udivsi3+0x44>
    1180:	00100693          	li	a3,1
    1184:	00b67a63          	bgeu	a2,a1,1198 <__udivsi3+0x28>
    1188:	00c05863          	blez	a2,1198 <__udivsi3+0x28>
    118c:	00161613          	slli	a2,a2,0x1
    1190:	00169693          	slli	a3,a3,0x1
    1194:	feb66ae3          	bltu	a2,a1,1188 <__udivsi3+0x18>
    1198:	00000513          	li	a0,0
    119c:	00c5e663          	bltu	a1,a2,11a8 <__udivsi3+0x38>
    11a0:	40c585b3          	sub	a1,a1,a2
    11a4:	00d56533          	or	a0,a0,a3
    11a8:	0016d693          	srli	a3,a3,0x1
    11ac:	00165613          	srli	a2,a2,0x1
    11b0:	fe0696e3          	bnez	a3,119c <__udivsi3+0x2c>
    11b4:	00008067          	ret

000011b8 <__umodsi3>:
    11b8:	00008293          	mv	t0,ra
    11bc:	fb5ff0ef          	jal	ra,1170 <__udivsi3>
    11c0:	00058513          	mv	a0,a1
    11c4:	00028067          	jr	t0 # fa0 <memset+0xb4>
    11c8:	40a00533          	neg	a0,a0
    11cc:	0005d863          	bgez	a1,11dc <__umodsi3+0x24>
    11d0:	40b005b3          	neg	a1,a1
    11d4:	f9dff06f          	j	1170 <__udivsi3>
    11d8:	40b005b3          	neg	a1,a1
    11dc:	00008293          	mv	t0,ra
    11e0:	f91ff0ef          	jal	ra,1170 <__udivsi3>
    11e4:	40a00533          	neg	a0,a0
    11e8:	00028067          	jr	t0

000011ec <__modsi3>:
    11ec:	00008293          	mv	t0,ra
    11f0:	0005ca63          	bltz	a1,1204 <__modsi3+0x18>
    11f4:	00054c63          	bltz	a0,120c <__modsi3+0x20>
    11f8:	f79ff0ef          	jal	ra,1170 <__udivsi3>
    11fc:	00058513          	mv	a0,a1
    1200:	00028067          	jr	t0
    1204:	40b005b3          	neg	a1,a1
    1208:	fe0558e3          	bgez	a0,11f8 <__modsi3+0xc>
    120c:	40a00533          	neg	a0,a0
    1210:	f61ff0ef          	jal	ra,1170 <__udivsi3>
    1214:	40b00533          	neg	a0,a1
    1218:	00028067          	jr	t0

Disassembly of section .text.cos:

0000121c <cos>:
    121c:	fe010113          	addi	sp,sp,-32
    1220:	00812c23          	sw	s0,24(sp)
    1224:	80000437          	lui	s0,0x80000
    1228:	fff44793          	not	a5,s0
    122c:	3fe92737          	lui	a4,0x3fe92
    1230:	00112e23          	sw	ra,28(sp)
    1234:	00b7f7b3          	and	a5,a5,a1
    1238:	1fb70713          	addi	a4,a4,507 # 3fe921fb <bss_end+0x3fe676cb>
    123c:	06f75263          	bge	a4,a5,12a0 <cos+0x84>
    1240:	7ff00737          	lui	a4,0x7ff00
    1244:	02e7c063          	blt	a5,a4,1264 <cos+0x48>
    1248:	00058693          	mv	a3,a1
    124c:	00050613          	mv	a2,a0
    1250:	41d130ef          	jal	ra,14e6c <__subdf3>
    1254:	01c12083          	lw	ra,28(sp)
    1258:	01812403          	lw	s0,24(sp)
    125c:	02010113          	addi	sp,sp,32
    1260:	00008067          	ret
    1264:	00010613          	mv	a2,sp
    1268:	180000ef          	jal	ra,13e8 <__ieee754_rem_pio2>
    126c:	00357513          	andi	a0,a0,3
    1270:	00100793          	li	a5,1
    1274:	04f50463          	beq	a0,a5,12bc <cos+0xa0>
    1278:	00200793          	li	a5,2
    127c:	00812603          	lw	a2,8(sp)
    1280:	00c12683          	lw	a3,12(sp)
    1284:	06f50463          	beq	a0,a5,12ec <cos+0xd0>
    1288:	04050a63          	beqz	a0,12dc <cos+0xc0>
    128c:	00012503          	lw	a0,0(sp)
    1290:	00412583          	lw	a1,4(sp)
    1294:	00100713          	li	a4,1
    1298:	0d1010ef          	jal	ra,2b68 <__kernel_sin>
    129c:	fb9ff06f          	j	1254 <cos+0x38>
    12a0:	00000613          	li	a2,0
    12a4:	00000693          	li	a3,0
    12a8:	78c000ef          	jal	ra,1a34 <__kernel_cos>
    12ac:	01c12083          	lw	ra,28(sp)
    12b0:	01812403          	lw	s0,24(sp)
    12b4:	02010113          	addi	sp,sp,32
    12b8:	00008067          	ret
    12bc:	00812603          	lw	a2,8(sp)
    12c0:	00c12683          	lw	a3,12(sp)
    12c4:	00012503          	lw	a0,0(sp)
    12c8:	00412583          	lw	a1,4(sp)
    12cc:	00100713          	li	a4,1
    12d0:	099010ef          	jal	ra,2b68 <__kernel_sin>
    12d4:	00b445b3          	xor	a1,s0,a1
    12d8:	f7dff06f          	j	1254 <cos+0x38>
    12dc:	00012503          	lw	a0,0(sp)
    12e0:	00412583          	lw	a1,4(sp)
    12e4:	750000ef          	jal	ra,1a34 <__kernel_cos>
    12e8:	f6dff06f          	j	1254 <cos+0x38>
    12ec:	00012503          	lw	a0,0(sp)
    12f0:	00412583          	lw	a1,4(sp)
    12f4:	740000ef          	jal	ra,1a34 <__kernel_cos>
    12f8:	00b445b3          	xor	a1,s0,a1
    12fc:	f59ff06f          	j	1254 <cos+0x38>

Disassembly of section .text.sin:

00001300 <sin>:
    1300:	fe010113          	addi	sp,sp,-32
    1304:	00812c23          	sw	s0,24(sp)
    1308:	80000437          	lui	s0,0x80000
    130c:	fff44793          	not	a5,s0
    1310:	3fe92737          	lui	a4,0x3fe92
    1314:	00112e23          	sw	ra,28(sp)
    1318:	00b7f7b3          	and	a5,a5,a1
    131c:	1fb70713          	addi	a4,a4,507 # 3fe921fb <bss_end+0x3fe676cb>
    1320:	06f75263          	bge	a4,a5,1384 <sin+0x84>
    1324:	7ff00737          	lui	a4,0x7ff00
    1328:	02e7c063          	blt	a5,a4,1348 <sin+0x48>
    132c:	00058693          	mv	a3,a1
    1330:	00050613          	mv	a2,a0
    1334:	339130ef          	jal	ra,14e6c <__subdf3>
    1338:	01c12083          	lw	ra,28(sp)
    133c:	01812403          	lw	s0,24(sp)
    1340:	02010113          	addi	sp,sp,32
    1344:	00008067          	ret
    1348:	00010613          	mv	a2,sp
    134c:	09c000ef          	jal	ra,13e8 <__ieee754_rem_pio2>
    1350:	00357513          	andi	a0,a0,3
    1354:	00100793          	li	a5,1
    1358:	04f50663          	beq	a0,a5,13a4 <sin+0xa4>
    135c:	00200793          	li	a5,2
    1360:	00812603          	lw	a2,8(sp)
    1364:	00c12683          	lw	a3,12(sp)
    1368:	06f50463          	beq	a0,a5,13d0 <sin+0xd0>
    136c:	04050863          	beqz	a0,13bc <sin+0xbc>
    1370:	00012503          	lw	a0,0(sp)
    1374:	00412583          	lw	a1,4(sp)
    1378:	6bc000ef          	jal	ra,1a34 <__kernel_cos>
    137c:	00b445b3          	xor	a1,s0,a1
    1380:	fb9ff06f          	j	1338 <sin+0x38>
    1384:	00000713          	li	a4,0
    1388:	00000613          	li	a2,0
    138c:	00000693          	li	a3,0
    1390:	7d8010ef          	jal	ra,2b68 <__kernel_sin>
    1394:	01c12083          	lw	ra,28(sp)
    1398:	01812403          	lw	s0,24(sp)
    139c:	02010113          	addi	sp,sp,32
    13a0:	00008067          	ret
    13a4:	00812603          	lw	a2,8(sp)
    13a8:	00c12683          	lw	a3,12(sp)
    13ac:	00012503          	lw	a0,0(sp)
    13b0:	00412583          	lw	a1,4(sp)
    13b4:	680000ef          	jal	ra,1a34 <__kernel_cos>
    13b8:	f81ff06f          	j	1338 <sin+0x38>
    13bc:	00012503          	lw	a0,0(sp)
    13c0:	00412583          	lw	a1,4(sp)
    13c4:	00100713          	li	a4,1
    13c8:	7a0010ef          	jal	ra,2b68 <__kernel_sin>
    13cc:	f6dff06f          	j	1338 <sin+0x38>
    13d0:	00012503          	lw	a0,0(sp)
    13d4:	00412583          	lw	a1,4(sp)
    13d8:	00100713          	li	a4,1
    13dc:	78c010ef          	jal	ra,2b68 <__kernel_sin>
    13e0:	00b445b3          	xor	a1,s0,a1
    13e4:	f55ff06f          	j	1338 <sin+0x38>

Disassembly of section .text.__ieee754_rem_pio2:

000013e8 <__ieee754_rem_pio2>:
    13e8:	f9010113          	addi	sp,sp,-112
    13ec:	06812423          	sw	s0,104(sp)
    13f0:	3fe92737          	lui	a4,0x3fe92
    13f4:	00159413          	slli	s0,a1,0x1
    13f8:	06112623          	sw	ra,108(sp)
    13fc:	06912223          	sw	s1,100(sp)
    1400:	07212023          	sw	s2,96(sp)
    1404:	05312e23          	sw	s3,92(sp)
    1408:	05412c23          	sw	s4,88(sp)
    140c:	05512a23          	sw	s5,84(sp)
    1410:	05612823          	sw	s6,80(sp)
    1414:	05712623          	sw	s7,76(sp)
    1418:	05812423          	sw	s8,72(sp)
    141c:	05912223          	sw	s9,68(sp)
    1420:	05a12023          	sw	s10,64(sp)
    1424:	03b12e23          	sw	s11,60(sp)
    1428:	00145413          	srli	s0,s0,0x1
    142c:	1fb70713          	addi	a4,a4,507 # 3fe921fb <bss_end+0x3fe676cb>
    1430:	1e875263          	bge	a4,s0,1614 <__ieee754_rem_pio2+0x22c>
    1434:	4002e737          	lui	a4,0x4002e
    1438:	97b70713          	addi	a4,a4,-1669 # 4002d97b <bss_end+0x40002e4b>
    143c:	00060993          	mv	s3,a2
    1440:	0a874c63          	blt	a4,s0,14f8 <__ieee754_rem_pio2+0x110>
    1444:	00018797          	auipc	a5,0x18
    1448:	b6c78793          	addi	a5,a5,-1172 # 18fb0 <__clzsi2+0xb8>
    144c:	0007a603          	lw	a2,0(a5)
    1450:	0047a683          	lw	a3,4(a5)
    1454:	54b05463          	blez	a1,199c <__ieee754_rem_pio2+0x5b4>
    1458:	215130ef          	jal	ra,14e6c <__subdf3>
    145c:	3ff927b7          	lui	a5,0x3ff92
    1460:	1fb78793          	addi	a5,a5,507 # 3ff921fb <bss_end+0x3ff676cb>
    1464:	00050a13          	mv	s4,a0
    1468:	00058a93          	mv	s5,a1
    146c:	1ef40263          	beq	s0,a5,1650 <__ieee754_rem_pio2+0x268>
    1470:	00018417          	auipc	s0,0x18
    1474:	b4840413          	addi	s0,s0,-1208 # 18fb8 <__clzsi2+0xc0>
    1478:	00042603          	lw	a2,0(s0)
    147c:	00442683          	lw	a3,4(s0)
    1480:	00100493          	li	s1,1
    1484:	1e9130ef          	jal	ra,14e6c <__subdf3>
    1488:	00050613          	mv	a2,a0
    148c:	00058693          	mv	a3,a1
    1490:	00a9a023          	sw	a0,0(s3)
    1494:	00b9a223          	sw	a1,4(s3)
    1498:	000a0513          	mv	a0,s4
    149c:	000a8593          	mv	a1,s5
    14a0:	1cd130ef          	jal	ra,14e6c <__subdf3>
    14a4:	00042603          	lw	a2,0(s0)
    14a8:	00442683          	lw	a3,4(s0)
    14ac:	1c1130ef          	jal	ra,14e6c <__subdf3>
    14b0:	00a9a423          	sw	a0,8(s3)
    14b4:	00b9a623          	sw	a1,12(s3)
    14b8:	06c12083          	lw	ra,108(sp)
    14bc:	06812403          	lw	s0,104(sp)
    14c0:	00048513          	mv	a0,s1
    14c4:	06012903          	lw	s2,96(sp)
    14c8:	06412483          	lw	s1,100(sp)
    14cc:	05c12983          	lw	s3,92(sp)
    14d0:	05812a03          	lw	s4,88(sp)
    14d4:	05412a83          	lw	s5,84(sp)
    14d8:	05012b03          	lw	s6,80(sp)
    14dc:	04c12b83          	lw	s7,76(sp)
    14e0:	04812c03          	lw	s8,72(sp)
    14e4:	04412c83          	lw	s9,68(sp)
    14e8:	04012d03          	lw	s10,64(sp)
    14ec:	03c12d83          	lw	s11,60(sp)
    14f0:	07010113          	addi	sp,sp,112
    14f4:	00008067          	ret
    14f8:	41392737          	lui	a4,0x41392
    14fc:	1fb70713          	addi	a4,a4,507 # 413921fb <bss_end+0x413676cb>
    1500:	00058913          	mv	s2,a1
    1504:	18875063          	bge	a4,s0,1684 <__ieee754_rem_pio2+0x29c>
    1508:	7ff00737          	lui	a4,0x7ff00
    150c:	12e45063          	bge	s0,a4,162c <__ieee754_rem_pio2+0x244>
    1510:	41445a13          	srai	s4,s0,0x14
    1514:	beaa0a13          	addi	s4,s4,-1046
    1518:	014a1793          	slli	a5,s4,0x14
    151c:	40f40433          	sub	s0,s0,a5
    1520:	00040593          	mv	a1,s0
    1524:	00050493          	mv	s1,a0
    1528:	1c0140ef          	jal	ra,156e8 <__fixdfsi>
    152c:	240140ef          	jal	ra,1576c <__floatsidf>
    1530:	00050713          	mv	a4,a0
    1534:	00058793          	mv	a5,a1
    1538:	00070613          	mv	a2,a4
    153c:	00078693          	mv	a3,a5
    1540:	00048513          	mv	a0,s1
    1544:	00040593          	mv	a1,s0
    1548:	00e12c23          	sw	a4,24(sp)
    154c:	00f12e23          	sw	a5,28(sp)
    1550:	00018497          	auipc	s1,0x18
    1554:	aa048493          	addi	s1,s1,-1376 # 18ff0 <__clzsi2+0xf8>
    1558:	115130ef          	jal	ra,14e6c <__subdf3>
    155c:	0004a603          	lw	a2,0(s1)
    1560:	0044a683          	lw	a3,4(s1)
    1564:	1f4130ef          	jal	ra,14758 <__muldf3>
    1568:	00058b93          	mv	s7,a1
    156c:	00050b13          	mv	s6,a0
    1570:	178140ef          	jal	ra,156e8 <__fixdfsi>
    1574:	00050413          	mv	s0,a0
    1578:	1f4140ef          	jal	ra,1576c <__floatsidf>
    157c:	00050713          	mv	a4,a0
    1580:	00058793          	mv	a5,a1
    1584:	00050613          	mv	a2,a0
    1588:	00058693          	mv	a3,a1
    158c:	000b0513          	mv	a0,s6
    1590:	000b8593          	mv	a1,s7
    1594:	02e12023          	sw	a4,32(sp)
    1598:	02f12223          	sw	a5,36(sp)
    159c:	0d1130ef          	jal	ra,14e6c <__subdf3>
    15a0:	0004a603          	lw	a2,0(s1)
    15a4:	0044a683          	lw	a3,4(s1)
    15a8:	1b0130ef          	jal	ra,14758 <__muldf3>
    15ac:	00000693          	li	a3,0
    15b0:	00000613          	li	a2,0
    15b4:	02a12423          	sw	a0,40(sp)
    15b8:	02b12623          	sw	a1,44(sp)
    15bc:	020130ef          	jal	ra,145dc <__eqdf2>
    15c0:	008036b3          	snez	a3,s0
    15c4:	00168693          	addi	a3,a3,1
    15c8:	30051463          	bnez	a0,18d0 <__ieee754_rem_pio2+0x4e8>
    15cc:	00018797          	auipc	a5,0x18
    15d0:	aac78793          	addi	a5,a5,-1364 # 19078 <two_over_pi>
    15d4:	00200713          	li	a4,2
    15d8:	000a0613          	mv	a2,s4
    15dc:	00098593          	mv	a1,s3
    15e0:	01810513          	addi	a0,sp,24
    15e4:	051000ef          	jal	ra,1e34 <__kernel_rem_pio2>
    15e8:	00050493          	mv	s1,a0
    15ec:	ec0956e3          	bgez	s2,14b8 <__ieee754_rem_pio2+0xd0>
    15f0:	0049a703          	lw	a4,4(s3)
    15f4:	00c9a783          	lw	a5,12(s3)
    15f8:	800006b7          	lui	a3,0x80000
    15fc:	00d74733          	xor	a4,a4,a3
    1600:	00d7c7b3          	xor	a5,a5,a3
    1604:	00e9a223          	sw	a4,4(s3)
    1608:	00f9a623          	sw	a5,12(s3)
    160c:	40a004b3          	neg	s1,a0
    1610:	ea9ff06f          	j	14b8 <__ieee754_rem_pio2+0xd0>
    1614:	00a62023          	sw	a0,0(a2)
    1618:	00b62223          	sw	a1,4(a2)
    161c:	00062423          	sw	zero,8(a2)
    1620:	00062623          	sw	zero,12(a2)
    1624:	00000493          	li	s1,0
    1628:	e91ff06f          	j	14b8 <__ieee754_rem_pio2+0xd0>
    162c:	00050613          	mv	a2,a0
    1630:	00058693          	mv	a3,a1
    1634:	039130ef          	jal	ra,14e6c <__subdf3>
    1638:	00a9a423          	sw	a0,8(s3)
    163c:	00b9a623          	sw	a1,12(s3)
    1640:	00a9a023          	sw	a0,0(s3)
    1644:	00b9a223          	sw	a1,4(s3)
    1648:	00000493          	li	s1,0
    164c:	e6dff06f          	j	14b8 <__ieee754_rem_pio2+0xd0>
    1650:	00018797          	auipc	a5,0x18
    1654:	97078793          	addi	a5,a5,-1680 # 18fc0 <__clzsi2+0xc8>
    1658:	0007a603          	lw	a2,0(a5)
    165c:	0047a683          	lw	a3,4(a5)
    1660:	00018417          	auipc	s0,0x18
    1664:	96840413          	addi	s0,s0,-1688 # 18fc8 <__clzsi2+0xd0>
    1668:	00100493          	li	s1,1
    166c:	001130ef          	jal	ra,14e6c <__subdf3>
    1670:	00050a13          	mv	s4,a0
    1674:	00058a93          	mv	s5,a1
    1678:	00042603          	lw	a2,0(s0)
    167c:	00442683          	lw	a3,4(s0)
    1680:	e05ff06f          	j	1484 <__ieee754_rem_pio2+0x9c>
    1684:	76c010ef          	jal	ra,2df0 <fabs>
    1688:	00018797          	auipc	a5,0x18
    168c:	94878793          	addi	a5,a5,-1720 # 18fd0 <__clzsi2+0xd8>
    1690:	0007a603          	lw	a2,0(a5)
    1694:	0047a683          	lw	a3,4(a5)
    1698:	00050a13          	mv	s4,a0
    169c:	00058a93          	mv	s5,a1
    16a0:	0b8130ef          	jal	ra,14758 <__muldf3>
    16a4:	00018797          	auipc	a5,0x18
    16a8:	93478793          	addi	a5,a5,-1740 # 18fd8 <__clzsi2+0xe0>
    16ac:	0007a603          	lw	a2,0(a5)
    16b0:	0047a683          	lw	a3,4(a5)
    16b4:	601110ef          	jal	ra,134b4 <__adddf3>
    16b8:	030140ef          	jal	ra,156e8 <__fixdfsi>
    16bc:	00050493          	mv	s1,a0
    16c0:	0ac140ef          	jal	ra,1576c <__floatsidf>
    16c4:	00018797          	auipc	a5,0x18
    16c8:	8ec78793          	addi	a5,a5,-1812 # 18fb0 <__clzsi2+0xb8>
    16cc:	0007a603          	lw	a2,0(a5)
    16d0:	0047a683          	lw	a3,4(a5)
    16d4:	00050b13          	mv	s6,a0
    16d8:	00058b93          	mv	s7,a1
    16dc:	07c130ef          	jal	ra,14758 <__muldf3>
    16e0:	00050613          	mv	a2,a0
    16e4:	00058693          	mv	a3,a1
    16e8:	000a0513          	mv	a0,s4
    16ec:	000a8593          	mv	a1,s5
    16f0:	77c130ef          	jal	ra,14e6c <__subdf3>
    16f4:	00018797          	auipc	a5,0x18
    16f8:	8c478793          	addi	a5,a5,-1852 # 18fb8 <__clzsi2+0xc0>
    16fc:	0007a603          	lw	a2,0(a5)
    1700:	0047a683          	lw	a3,4(a5)
    1704:	00050d13          	mv	s10,a0
    1708:	00058c93          	mv	s9,a1
    170c:	000b0513          	mv	a0,s6
    1710:	000b8593          	mv	a1,s7
    1714:	044130ef          	jal	ra,14758 <__muldf3>
    1718:	00050a13          	mv	s4,a0
    171c:	00058a93          	mv	s5,a1
    1720:	01f00793          	li	a5,31
    1724:	000d0513          	mv	a0,s10
    1728:	000c8593          	mv	a1,s9
    172c:	000a0613          	mv	a2,s4
    1730:	000a8693          	mv	a3,s5
    1734:	0297cc63          	blt	a5,s1,176c <__ieee754_rem_pio2+0x384>
    1738:	734130ef          	jal	ra,14e6c <__subdf3>
    173c:	fff48793          	addi	a5,s1,-1
    1740:	00279713          	slli	a4,a5,0x2
    1744:	00018797          	auipc	a5,0x18
    1748:	8b478793          	addi	a5,a5,-1868 # 18ff8 <npio2_hw>
    174c:	00e787b3          	add	a5,a5,a4
    1750:	0007a783          	lw	a5,0(a5)
    1754:	00050d93          	mv	s11,a0
    1758:	00058c13          	mv	s8,a1
    175c:	00878e63          	beq	a5,s0,1778 <__ieee754_rem_pio2+0x390>
    1760:	00a9a023          	sw	a0,0(s3)
    1764:	00b9a223          	sw	a1,4(s3)
    1768:	0300006f          	j	1798 <__ieee754_rem_pio2+0x3b0>
    176c:	700130ef          	jal	ra,14e6c <__subdf3>
    1770:	00050d93          	mv	s11,a0
    1774:	00058c13          	mv	s8,a1
    1778:	014c5793          	srli	a5,s8,0x14
    177c:	41445813          	srai	a6,s0,0x14
    1780:	7ff7f793          	andi	a5,a5,2047
    1784:	40f807b3          	sub	a5,a6,a5
    1788:	01000693          	li	a3,16
    178c:	04f6ce63          	blt	a3,a5,17e8 <__ieee754_rem_pio2+0x400>
    1790:	01b9a023          	sw	s11,0(s3)
    1794:	0189a223          	sw	s8,4(s3)
    1798:	000d8613          	mv	a2,s11
    179c:	000c0693          	mv	a3,s8
    17a0:	000d0513          	mv	a0,s10
    17a4:	000c8593          	mv	a1,s9
    17a8:	6c4130ef          	jal	ra,14e6c <__subdf3>
    17ac:	000a0613          	mv	a2,s4
    17b0:	000a8693          	mv	a3,s5
    17b4:	6b8130ef          	jal	ra,14e6c <__subdf3>
    17b8:	00a9a423          	sw	a0,8(s3)
    17bc:	00b9a623          	sw	a1,12(s3)
    17c0:	ce095ce3          	bgez	s2,14b8 <__ieee754_rem_pio2+0xd0>
    17c4:	800007b7          	lui	a5,0x80000
    17c8:	0187cc33          	xor	s8,a5,s8
    17cc:	00b7c5b3          	xor	a1,a5,a1
    17d0:	01b9a023          	sw	s11,0(s3)
    17d4:	0189a223          	sw	s8,4(s3)
    17d8:	00a9a423          	sw	a0,8(s3)
    17dc:	00b9a623          	sw	a1,12(s3)
    17e0:	409004b3          	neg	s1,s1
    17e4:	cd5ff06f          	j	14b8 <__ieee754_rem_pio2+0xd0>
    17e8:	00017797          	auipc	a5,0x17
    17ec:	7d878793          	addi	a5,a5,2008 # 18fc0 <__clzsi2+0xc8>
    17f0:	0007a603          	lw	a2,0(a5)
    17f4:	0047a683          	lw	a3,4(a5)
    17f8:	000b0513          	mv	a0,s6
    17fc:	000b8593          	mv	a1,s7
    1800:	01012423          	sw	a6,8(sp)
    1804:	755120ef          	jal	ra,14758 <__muldf3>
    1808:	00050a13          	mv	s4,a0
    180c:	00058a93          	mv	s5,a1
    1810:	00050613          	mv	a2,a0
    1814:	00058693          	mv	a3,a1
    1818:	000d0513          	mv	a0,s10
    181c:	000c8593          	mv	a1,s9
    1820:	64c130ef          	jal	ra,14e6c <__subdf3>
    1824:	00058c13          	mv	s8,a1
    1828:	00050613          	mv	a2,a0
    182c:	00058693          	mv	a3,a1
    1830:	00050413          	mv	s0,a0
    1834:	00b12623          	sw	a1,12(sp)
    1838:	000d0513          	mv	a0,s10
    183c:	000c8593          	mv	a1,s9
    1840:	62c130ef          	jal	ra,14e6c <__subdf3>
    1844:	000a0613          	mv	a2,s4
    1848:	000a8693          	mv	a3,s5
    184c:	620130ef          	jal	ra,14e6c <__subdf3>
    1850:	00017797          	auipc	a5,0x17
    1854:	77878793          	addi	a5,a5,1912 # 18fc8 <__clzsi2+0xd0>
    1858:	0007a603          	lw	a2,0(a5)
    185c:	0047a683          	lw	a3,4(a5)
    1860:	00050a13          	mv	s4,a0
    1864:	00058a93          	mv	s5,a1
    1868:	000b0513          	mv	a0,s6
    186c:	000b8593          	mv	a1,s7
    1870:	6e9120ef          	jal	ra,14758 <__muldf3>
    1874:	000a0613          	mv	a2,s4
    1878:	000a8693          	mv	a3,s5
    187c:	5f0130ef          	jal	ra,14e6c <__subdf3>
    1880:	00050613          	mv	a2,a0
    1884:	00058693          	mv	a3,a1
    1888:	00050a13          	mv	s4,a0
    188c:	00058a93          	mv	s5,a1
    1890:	00040513          	mv	a0,s0
    1894:	000c0593          	mv	a1,s8
    1898:	5d4130ef          	jal	ra,14e6c <__subdf3>
    189c:	00812803          	lw	a6,8(sp)
    18a0:	0145d793          	srli	a5,a1,0x14
    18a4:	7ff7f793          	andi	a5,a5,2047
    18a8:	40f80833          	sub	a6,a6,a5
    18ac:	03100793          	li	a5,49
    18b0:	000c0c93          	mv	s9,s8
    18b4:	00050d93          	mv	s11,a0
    18b8:	00058c13          	mv	s8,a1
    18bc:	0107ce63          	blt	a5,a6,18d8 <__ieee754_rem_pio2+0x4f0>
    18c0:	00a9a023          	sw	a0,0(s3)
    18c4:	00b9a223          	sw	a1,4(s3)
    18c8:	00040d13          	mv	s10,s0
    18cc:	ecdff06f          	j	1798 <__ieee754_rem_pio2+0x3b0>
    18d0:	00300693          	li	a3,3
    18d4:	cf9ff06f          	j	15cc <__ieee754_rem_pio2+0x1e4>
    18d8:	00017797          	auipc	a5,0x17
    18dc:	70878793          	addi	a5,a5,1800 # 18fe0 <__clzsi2+0xe8>
    18e0:	0007a603          	lw	a2,0(a5)
    18e4:	0047a683          	lw	a3,4(a5)
    18e8:	000b0513          	mv	a0,s6
    18ec:	000b8593          	mv	a1,s7
    18f0:	669120ef          	jal	ra,14758 <__muldf3>
    18f4:	00c12c03          	lw	s8,12(sp)
    18f8:	00050a13          	mv	s4,a0
    18fc:	00058a93          	mv	s5,a1
    1900:	00050613          	mv	a2,a0
    1904:	00058693          	mv	a3,a1
    1908:	00040513          	mv	a0,s0
    190c:	000c0593          	mv	a1,s8
    1910:	55c130ef          	jal	ra,14e6c <__subdf3>
    1914:	00050613          	mv	a2,a0
    1918:	00058693          	mv	a3,a1
    191c:	00050d13          	mv	s10,a0
    1920:	00058c93          	mv	s9,a1
    1924:	00040513          	mv	a0,s0
    1928:	000c0593          	mv	a1,s8
    192c:	540130ef          	jal	ra,14e6c <__subdf3>
    1930:	000a0613          	mv	a2,s4
    1934:	000a8693          	mv	a3,s5
    1938:	534130ef          	jal	ra,14e6c <__subdf3>
    193c:	00017797          	auipc	a5,0x17
    1940:	6ac78793          	addi	a5,a5,1708 # 18fe8 <__clzsi2+0xf0>
    1944:	0007a603          	lw	a2,0(a5)
    1948:	0047a683          	lw	a3,4(a5)
    194c:	00050a13          	mv	s4,a0
    1950:	00058a93          	mv	s5,a1
    1954:	000b0513          	mv	a0,s6
    1958:	000b8593          	mv	a1,s7
    195c:	5fd120ef          	jal	ra,14758 <__muldf3>
    1960:	000a0613          	mv	a2,s4
    1964:	000a8693          	mv	a3,s5
    1968:	504130ef          	jal	ra,14e6c <__subdf3>
    196c:	00050613          	mv	a2,a0
    1970:	00058693          	mv	a3,a1
    1974:	00050a13          	mv	s4,a0
    1978:	00058a93          	mv	s5,a1
    197c:	000d0513          	mv	a0,s10
    1980:	000c8593          	mv	a1,s9
    1984:	4e8130ef          	jal	ra,14e6c <__subdf3>
    1988:	00050d93          	mv	s11,a0
    198c:	00058c13          	mv	s8,a1
    1990:	00a9a023          	sw	a0,0(s3)
    1994:	00b9a223          	sw	a1,4(s3)
    1998:	e01ff06f          	j	1798 <__ieee754_rem_pio2+0x3b0>
    199c:	319110ef          	jal	ra,134b4 <__adddf3>
    19a0:	3ff927b7          	lui	a5,0x3ff92
    19a4:	1fb78793          	addi	a5,a5,507 # 3ff921fb <bss_end+0x3ff676cb>
    19a8:	00050a13          	mv	s4,a0
    19ac:	00058a93          	mv	s5,a1
    19b0:	04f40863          	beq	s0,a5,1a00 <__ieee754_rem_pio2+0x618>
    19b4:	00017417          	auipc	s0,0x17
    19b8:	60440413          	addi	s0,s0,1540 # 18fb8 <__clzsi2+0xc0>
    19bc:	00042603          	lw	a2,0(s0)
    19c0:	00442683          	lw	a3,4(s0)
    19c4:	fff00493          	li	s1,-1
    19c8:	2ed110ef          	jal	ra,134b4 <__adddf3>
    19cc:	00050613          	mv	a2,a0
    19d0:	00058693          	mv	a3,a1
    19d4:	00a9a023          	sw	a0,0(s3)
    19d8:	00b9a223          	sw	a1,4(s3)
    19dc:	000a0513          	mv	a0,s4
    19e0:	000a8593          	mv	a1,s5
    19e4:	488130ef          	jal	ra,14e6c <__subdf3>
    19e8:	00042603          	lw	a2,0(s0)
    19ec:	00442683          	lw	a3,4(s0)
    19f0:	2c5110ef          	jal	ra,134b4 <__adddf3>
    19f4:	00a9a423          	sw	a0,8(s3)
    19f8:	00b9a623          	sw	a1,12(s3)
    19fc:	abdff06f          	j	14b8 <__ieee754_rem_pio2+0xd0>
    1a00:	00017797          	auipc	a5,0x17
    1a04:	5c078793          	addi	a5,a5,1472 # 18fc0 <__clzsi2+0xc8>
    1a08:	0007a603          	lw	a2,0(a5)
    1a0c:	0047a683          	lw	a3,4(a5)
    1a10:	00017417          	auipc	s0,0x17
    1a14:	5b840413          	addi	s0,s0,1464 # 18fc8 <__clzsi2+0xd0>
    1a18:	fff00493          	li	s1,-1
    1a1c:	299110ef          	jal	ra,134b4 <__adddf3>
    1a20:	00050a13          	mv	s4,a0
    1a24:	00058a93          	mv	s5,a1
    1a28:	00042603          	lw	a2,0(s0)
    1a2c:	00442683          	lw	a3,4(s0)
    1a30:	f99ff06f          	j	19c8 <__ieee754_rem_pio2+0x5e0>

Disassembly of section .text.__kernel_cos:

00001a34 <__kernel_cos>:
    1a34:	fc010113          	addi	sp,sp,-64
    1a38:	03612023          	sw	s6,32(sp)
    1a3c:	00159b13          	slli	s6,a1,0x1
    1a40:	03212823          	sw	s2,48(sp)
    1a44:	03312623          	sw	s3,44(sp)
    1a48:	01812c23          	sw	s8,24(sp)
    1a4c:	01912a23          	sw	s9,20(sp)
    1a50:	02112e23          	sw	ra,60(sp)
    1a54:	02812c23          	sw	s0,56(sp)
    1a58:	02912a23          	sw	s1,52(sp)
    1a5c:	03412423          	sw	s4,40(sp)
    1a60:	03512223          	sw	s5,36(sp)
    1a64:	01712e23          	sw	s7,28(sp)
    1a68:	01a12823          	sw	s10,16(sp)
    1a6c:	01b12623          	sw	s11,12(sp)
    1a70:	001b5b13          	srli	s6,s6,0x1
    1a74:	3e4007b7          	lui	a5,0x3e400
    1a78:	00058c13          	mv	s8,a1
    1a7c:	00050c93          	mv	s9,a0
    1a80:	00060913          	mv	s2,a2
    1a84:	00068993          	mv	s3,a3
    1a88:	18fb5063          	bge	s6,a5,1c08 <__kernel_cos+0x1d4>
    1a8c:	45d130ef          	jal	ra,156e8 <__fixdfsi>
    1a90:	38050863          	beqz	a0,1e20 <__kernel_cos+0x3ec>
    1a94:	000c8613          	mv	a2,s9
    1a98:	000c0693          	mv	a3,s8
    1a9c:	000c8513          	mv	a0,s9
    1aa0:	000c0593          	mv	a1,s8
    1aa4:	4b5120ef          	jal	ra,14758 <__muldf3>
    1aa8:	00017797          	auipc	a5,0x17
    1aac:	6f078793          	addi	a5,a5,1776 # 19198 <two_over_pi+0x120>
    1ab0:	0007a603          	lw	a2,0(a5)
    1ab4:	0047a683          	lw	a3,4(a5)
    1ab8:	00050413          	mv	s0,a0
    1abc:	00058493          	mv	s1,a1
    1ac0:	499120ef          	jal	ra,14758 <__muldf3>
    1ac4:	00017797          	auipc	a5,0x17
    1ac8:	6dc78793          	addi	a5,a5,1756 # 191a0 <two_over_pi+0x128>
    1acc:	0007a603          	lw	a2,0(a5)
    1ad0:	0047a683          	lw	a3,4(a5)
    1ad4:	1e1110ef          	jal	ra,134b4 <__adddf3>
    1ad8:	00040613          	mv	a2,s0
    1adc:	00048693          	mv	a3,s1
    1ae0:	479120ef          	jal	ra,14758 <__muldf3>
    1ae4:	00017797          	auipc	a5,0x17
    1ae8:	6c478793          	addi	a5,a5,1732 # 191a8 <two_over_pi+0x130>
    1aec:	0007a603          	lw	a2,0(a5)
    1af0:	0047a683          	lw	a3,4(a5)
    1af4:	378130ef          	jal	ra,14e6c <__subdf3>
    1af8:	00040613          	mv	a2,s0
    1afc:	00048693          	mv	a3,s1
    1b00:	459120ef          	jal	ra,14758 <__muldf3>
    1b04:	00017797          	auipc	a5,0x17
    1b08:	6ac78793          	addi	a5,a5,1708 # 191b0 <two_over_pi+0x138>
    1b0c:	0007a603          	lw	a2,0(a5)
    1b10:	0047a683          	lw	a3,4(a5)
    1b14:	1a1110ef          	jal	ra,134b4 <__adddf3>
    1b18:	00040613          	mv	a2,s0
    1b1c:	00048693          	mv	a3,s1
    1b20:	439120ef          	jal	ra,14758 <__muldf3>
    1b24:	00017797          	auipc	a5,0x17
    1b28:	69478793          	addi	a5,a5,1684 # 191b8 <two_over_pi+0x140>
    1b2c:	0007a603          	lw	a2,0(a5)
    1b30:	0047a683          	lw	a3,4(a5)
    1b34:	338130ef          	jal	ra,14e6c <__subdf3>
    1b38:	00040613          	mv	a2,s0
    1b3c:	00048693          	mv	a3,s1
    1b40:	419120ef          	jal	ra,14758 <__muldf3>
    1b44:	00017797          	auipc	a5,0x17
    1b48:	67c78793          	addi	a5,a5,1660 # 191c0 <two_over_pi+0x148>
    1b4c:	0007a603          	lw	a2,0(a5)
    1b50:	0047a683          	lw	a3,4(a5)
    1b54:	161110ef          	jal	ra,134b4 <__adddf3>
    1b58:	00040613          	mv	a2,s0
    1b5c:	00048693          	mv	a3,s1
    1b60:	3f9120ef          	jal	ra,14758 <__muldf3>
    1b64:	00050a13          	mv	s4,a0
    1b68:	00058a93          	mv	s5,a1
    1b6c:	00017797          	auipc	a5,0x17
    1b70:	65c78793          	addi	a5,a5,1628 # 191c8 <two_over_pi+0x150>
    1b74:	0007a603          	lw	a2,0(a5)
    1b78:	0047a683          	lw	a3,4(a5)
    1b7c:	00040513          	mv	a0,s0
    1b80:	00048593          	mv	a1,s1
    1b84:	3d5120ef          	jal	ra,14758 <__muldf3>
    1b88:	00050b13          	mv	s6,a0
    1b8c:	00058b93          	mv	s7,a1
    1b90:	000a0613          	mv	a2,s4
    1b94:	000a8693          	mv	a3,s5
    1b98:	00040513          	mv	a0,s0
    1b9c:	00048593          	mv	a1,s1
    1ba0:	3b9120ef          	jal	ra,14758 <__muldf3>
    1ba4:	00050413          	mv	s0,a0
    1ba8:	00058493          	mv	s1,a1
    1bac:	00090613          	mv	a2,s2
    1bb0:	00098693          	mv	a3,s3
    1bb4:	000c8513          	mv	a0,s9
    1bb8:	000c0593          	mv	a1,s8
    1bbc:	39d120ef          	jal	ra,14758 <__muldf3>
    1bc0:	00050613          	mv	a2,a0
    1bc4:	00058693          	mv	a3,a1
    1bc8:	00040513          	mv	a0,s0
    1bcc:	00048593          	mv	a1,s1
    1bd0:	29c130ef          	jal	ra,14e6c <__subdf3>
    1bd4:	00050613          	mv	a2,a0
    1bd8:	00058693          	mv	a3,a1
    1bdc:	000b0513          	mv	a0,s6
    1be0:	000b8593          	mv	a1,s7
    1be4:	288130ef          	jal	ra,14e6c <__subdf3>
    1be8:	00017797          	auipc	a5,0x17
    1bec:	5a878793          	addi	a5,a5,1448 # 19190 <two_over_pi+0x118>
    1bf0:	00050613          	mv	a2,a0
    1bf4:	00058693          	mv	a3,a1
    1bf8:	0007a503          	lw	a0,0(a5)
    1bfc:	0047a583          	lw	a1,4(a5)
    1c00:	26c130ef          	jal	ra,14e6c <__subdf3>
    1c04:	1bc0006f          	j	1dc0 <__kernel_cos+0x38c>
    1c08:	00050613          	mv	a2,a0
    1c0c:	00058693          	mv	a3,a1
    1c10:	349120ef          	jal	ra,14758 <__muldf3>
    1c14:	00017797          	auipc	a5,0x17
    1c18:	58478793          	addi	a5,a5,1412 # 19198 <two_over_pi+0x120>
    1c1c:	0007a603          	lw	a2,0(a5)
    1c20:	0047a683          	lw	a3,4(a5)
    1c24:	00050413          	mv	s0,a0
    1c28:	00058493          	mv	s1,a1
    1c2c:	32d120ef          	jal	ra,14758 <__muldf3>
    1c30:	00017797          	auipc	a5,0x17
    1c34:	57078793          	addi	a5,a5,1392 # 191a0 <two_over_pi+0x128>
    1c38:	0007a603          	lw	a2,0(a5)
    1c3c:	0047a683          	lw	a3,4(a5)
    1c40:	075110ef          	jal	ra,134b4 <__adddf3>
    1c44:	00040613          	mv	a2,s0
    1c48:	00048693          	mv	a3,s1
    1c4c:	30d120ef          	jal	ra,14758 <__muldf3>
    1c50:	00017797          	auipc	a5,0x17
    1c54:	55878793          	addi	a5,a5,1368 # 191a8 <two_over_pi+0x130>
    1c58:	0007a603          	lw	a2,0(a5)
    1c5c:	0047a683          	lw	a3,4(a5)
    1c60:	20c130ef          	jal	ra,14e6c <__subdf3>
    1c64:	00040613          	mv	a2,s0
    1c68:	00048693          	mv	a3,s1
    1c6c:	2ed120ef          	jal	ra,14758 <__muldf3>
    1c70:	00017797          	auipc	a5,0x17
    1c74:	54078793          	addi	a5,a5,1344 # 191b0 <two_over_pi+0x138>
    1c78:	0007a603          	lw	a2,0(a5)
    1c7c:	0047a683          	lw	a3,4(a5)
    1c80:	035110ef          	jal	ra,134b4 <__adddf3>
    1c84:	00040613          	mv	a2,s0
    1c88:	00048693          	mv	a3,s1
    1c8c:	2cd120ef          	jal	ra,14758 <__muldf3>
    1c90:	00017797          	auipc	a5,0x17
    1c94:	52878793          	addi	a5,a5,1320 # 191b8 <two_over_pi+0x140>
    1c98:	0007a603          	lw	a2,0(a5)
    1c9c:	0047a683          	lw	a3,4(a5)
    1ca0:	1cc130ef          	jal	ra,14e6c <__subdf3>
    1ca4:	00040613          	mv	a2,s0
    1ca8:	00048693          	mv	a3,s1
    1cac:	2ad120ef          	jal	ra,14758 <__muldf3>
    1cb0:	00017797          	auipc	a5,0x17
    1cb4:	51078793          	addi	a5,a5,1296 # 191c0 <two_over_pi+0x148>
    1cb8:	0007a603          	lw	a2,0(a5)
    1cbc:	0047a683          	lw	a3,4(a5)
    1cc0:	7f4110ef          	jal	ra,134b4 <__adddf3>
    1cc4:	00040613          	mv	a2,s0
    1cc8:	00048693          	mv	a3,s1
    1ccc:	28d120ef          	jal	ra,14758 <__muldf3>
    1cd0:	3fd337b7          	lui	a5,0x3fd33
    1cd4:	33278793          	addi	a5,a5,818 # 3fd33332 <bss_end+0x3fd08802>
    1cd8:	00050a13          	mv	s4,a0
    1cdc:	00058a93          	mv	s5,a1
    1ce0:	e967d6e3          	bge	a5,s6,1b6c <__kernel_cos+0x138>
    1ce4:	3fe907b7          	lui	a5,0x3fe90
    1ce8:	1167ca63          	blt	a5,s6,1dfc <__kernel_cos+0x3c8>
    1cec:	00017717          	auipc	a4,0x17
    1cf0:	4a470713          	addi	a4,a4,1188 # 19190 <two_over_pi+0x118>
    1cf4:	ffe007b7          	lui	a5,0xffe00
    1cf8:	00072503          	lw	a0,0(a4)
    1cfc:	00472583          	lw	a1,4(a4)
    1d00:	00fb0b33          	add	s6,s6,a5
    1d04:	00000793          	li	a5,0
    1d08:	000b0693          	mv	a3,s6
    1d0c:	00078613          	mv	a2,a5
    1d10:	00078d13          	mv	s10,a5
    1d14:	158130ef          	jal	ra,14e6c <__subdf3>
    1d18:	000b0d93          	mv	s11,s6
    1d1c:	00058b93          	mv	s7,a1
    1d20:	00050b13          	mv	s6,a0
    1d24:	00017797          	auipc	a5,0x17
    1d28:	4a478793          	addi	a5,a5,1188 # 191c8 <two_over_pi+0x150>
    1d2c:	0007a603          	lw	a2,0(a5)
    1d30:	0047a683          	lw	a3,4(a5)
    1d34:	00040513          	mv	a0,s0
    1d38:	00048593          	mv	a1,s1
    1d3c:	21d120ef          	jal	ra,14758 <__muldf3>
    1d40:	000d0613          	mv	a2,s10
    1d44:	000d8693          	mv	a3,s11
    1d48:	124130ef          	jal	ra,14e6c <__subdf3>
    1d4c:	00050d13          	mv	s10,a0
    1d50:	00058d93          	mv	s11,a1
    1d54:	000a0613          	mv	a2,s4
    1d58:	000a8693          	mv	a3,s5
    1d5c:	00040513          	mv	a0,s0
    1d60:	00048593          	mv	a1,s1
    1d64:	1f5120ef          	jal	ra,14758 <__muldf3>
    1d68:	00050413          	mv	s0,a0
    1d6c:	00058493          	mv	s1,a1
    1d70:	00090613          	mv	a2,s2
    1d74:	00098693          	mv	a3,s3
    1d78:	000c8513          	mv	a0,s9
    1d7c:	000c0593          	mv	a1,s8
    1d80:	1d9120ef          	jal	ra,14758 <__muldf3>
    1d84:	00050613          	mv	a2,a0
    1d88:	00058693          	mv	a3,a1
    1d8c:	00040513          	mv	a0,s0
    1d90:	00048593          	mv	a1,s1
    1d94:	0d8130ef          	jal	ra,14e6c <__subdf3>
    1d98:	00050613          	mv	a2,a0
    1d9c:	00058693          	mv	a3,a1
    1da0:	000d0513          	mv	a0,s10
    1da4:	000d8593          	mv	a1,s11
    1da8:	0c4130ef          	jal	ra,14e6c <__subdf3>
    1dac:	00050613          	mv	a2,a0
    1db0:	00058693          	mv	a3,a1
    1db4:	000b0513          	mv	a0,s6
    1db8:	000b8593          	mv	a1,s7
    1dbc:	0b0130ef          	jal	ra,14e6c <__subdf3>
    1dc0:	03c12083          	lw	ra,60(sp)
    1dc4:	03812403          	lw	s0,56(sp)
    1dc8:	03412483          	lw	s1,52(sp)
    1dcc:	03012903          	lw	s2,48(sp)
    1dd0:	02c12983          	lw	s3,44(sp)
    1dd4:	02812a03          	lw	s4,40(sp)
    1dd8:	02412a83          	lw	s5,36(sp)
    1ddc:	02012b03          	lw	s6,32(sp)
    1de0:	01c12b83          	lw	s7,28(sp)
    1de4:	01812c03          	lw	s8,24(sp)
    1de8:	01412c83          	lw	s9,20(sp)
    1dec:	01012d03          	lw	s10,16(sp)
    1df0:	00c12d83          	lw	s11,12(sp)
    1df4:	04010113          	addi	sp,sp,64
    1df8:	00008067          	ret
    1dfc:	00017797          	auipc	a5,0x17
    1e00:	38478793          	addi	a5,a5,900 # 19180 <two_over_pi+0x108>
    1e04:	0007ab03          	lw	s6,0(a5)
    1e08:	0047ab83          	lw	s7,4(a5)
    1e0c:	00017797          	auipc	a5,0x17
    1e10:	37c78793          	addi	a5,a5,892 # 19188 <two_over_pi+0x110>
    1e14:	0007ad03          	lw	s10,0(a5)
    1e18:	0047ad83          	lw	s11,4(a5)
    1e1c:	f09ff06f          	j	1d24 <__kernel_cos+0x2f0>
    1e20:	00017797          	auipc	a5,0x17
    1e24:	37078793          	addi	a5,a5,880 # 19190 <two_over_pi+0x118>
    1e28:	0007a503          	lw	a0,0(a5)
    1e2c:	0047a583          	lw	a1,4(a5)
    1e30:	f91ff06f          	j	1dc0 <__kernel_cos+0x38c>

Disassembly of section .text.__kernel_rem_pio2:

00001e34 <__kernel_rem_pio2>:
    1e34:	d5010113          	addi	sp,sp,-688
    1e38:	29312e23          	sw	s3,668(sp)
    1e3c:	00068993          	mv	s3,a3
    1e40:	00271813          	slli	a6,a4,0x2
    1e44:	02e12c23          	sw	a4,56(sp)
    1e48:	02f12423          	sw	a5,40(sp)
    1e4c:	00017717          	auipc	a4,0x17
    1e50:	3fc70713          	addi	a4,a4,1020 # 19248 <init_jk>
    1e54:	fff98793          	addi	a5,s3,-1
    1e58:	2a912223          	sw	s1,676(sp)
    1e5c:	27b12e23          	sw	s11,636(sp)
    1e60:	01070733          	add	a4,a4,a6
    1e64:	2a112623          	sw	ra,684(sp)
    1e68:	2a812423          	sw	s0,680(sp)
    1e6c:	2b212023          	sw	s2,672(sp)
    1e70:	29412c23          	sw	s4,664(sp)
    1e74:	29512a23          	sw	s5,660(sp)
    1e78:	29612823          	sw	s6,656(sp)
    1e7c:	29712623          	sw	s7,652(sp)
    1e80:	29812423          	sw	s8,648(sp)
    1e84:	29912223          	sw	s9,644(sp)
    1e88:	29a12023          	sw	s10,640(sp)
    1e8c:	fec00693          	li	a3,-20
    1e90:	02a12223          	sw	a0,36(sp)
    1e94:	02b12a23          	sw	a1,52(sp)
    1e98:	00f12823          	sw	a5,16(sp)
    1e9c:	00060493          	mv	s1,a2
    1ea0:	00072d83          	lw	s11,0(a4)
    1ea4:	34d64ae3          	blt	a2,a3,29f8 <__kernel_rem_pio2+0xbc4>
    1ea8:	01800593          	li	a1,24
    1eac:	ffd60513          	addi	a0,a2,-3
    1eb0:	ab8ff0ef          	jal	ra,1168 <__divsi3>
    1eb4:	00150793          	addi	a5,a0,1
    1eb8:	00279713          	slli	a4,a5,0x2
    1ebc:	40e787b3          	sub	a5,a5,a4
    1ec0:	02a12023          	sw	a0,32(sp)
    1ec4:	00379793          	slli	a5,a5,0x3
    1ec8:	02012603          	lw	a2,32(sp)
    1ecc:	fff98693          	addi	a3,s3,-1
    1ed0:	00f487b3          	add	a5,s1,a5
    1ed4:	00dd8733          	add	a4,s11,a3
    1ed8:	40d60433          	sub	s0,a2,a3
    1edc:	00170913          	addi	s2,a4,1
    1ee0:	00f12a23          	sw	a5,20(sp)
    1ee4:	09010493          	addi	s1,sp,144
    1ee8:	00890933          	add	s2,s2,s0
    1eec:	02074c63          	bltz	a4,1f24 <__kernel_rem_pio2+0xf0>
    1ef0:	02812a03          	lw	s4,40(sp)
    1ef4:	00241793          	slli	a5,s0,0x2
    1ef8:	00fa07b3          	add	a5,s4,a5
    1efc:	00000513          	li	a0,0
    1f00:	00000593          	li	a1,0
    1f04:	00044663          	bltz	s0,1f10 <__kernel_rem_pio2+0xdc>
    1f08:	0007a503          	lw	a0,0(a5)
    1f0c:	061130ef          	jal	ra,1576c <__floatsidf>
    1f10:	00a4a023          	sw	a0,0(s1)
    1f14:	00b4a223          	sw	a1,4(s1)
    1f18:	00140413          	addi	s0,s0,1
    1f1c:	00848493          	addi	s1,s1,8
    1f20:	fd241ae3          	bne	s0,s2,1ef4 <__kernel_rem_pio2+0xc0>
    1f24:	080dca63          	bltz	s11,1fb8 <__kernel_rem_pio2+0x184>
    1f28:	01012b83          	lw	s7,16(sp)
    1f2c:	02412d03          	lw	s10,36(sp)
    1f30:	09010793          	addi	a5,sp,144
    1f34:	003b9913          	slli	s2,s7,0x3
    1f38:	00890413          	addi	s0,s2,8
    1f3c:	003d9a13          	slli	s4,s11,0x3
    1f40:	01278933          	add	s2,a5,s2
    1f44:	1d810793          	addi	a5,sp,472
    1f48:	1d010493          	addi	s1,sp,464
    1f4c:	01478a33          	add	s4,a5,s4
    1f50:	01a40433          	add	s0,s0,s10
    1f54:	00090b13          	mv	s6,s2
    1f58:	000d0a93          	mv	s5,s10
    1f5c:	00000c13          	li	s8,0
    1f60:	00000c93          	li	s9,0
    1f64:	040bc063          	bltz	s7,1fa4 <__kernel_rem_pio2+0x170>
    1f68:	000b2603          	lw	a2,0(s6)
    1f6c:	004b2683          	lw	a3,4(s6)
    1f70:	000aa503          	lw	a0,0(s5)
    1f74:	004aa583          	lw	a1,4(s5)
    1f78:	008a8a93          	addi	s5,s5,8
    1f7c:	ff8b0b13          	addi	s6,s6,-8
    1f80:	7d8120ef          	jal	ra,14758 <__muldf3>
    1f84:	00050613          	mv	a2,a0
    1f88:	00058693          	mv	a3,a1
    1f8c:	000c0513          	mv	a0,s8
    1f90:	000c8593          	mv	a1,s9
    1f94:	520110ef          	jal	ra,134b4 <__adddf3>
    1f98:	00050c13          	mv	s8,a0
    1f9c:	00058c93          	mv	s9,a1
    1fa0:	fc8a94e3          	bne	s5,s0,1f68 <__kernel_rem_pio2+0x134>
    1fa4:	0184a023          	sw	s8,0(s1)
    1fa8:	0194a223          	sw	s9,4(s1)
    1fac:	00848493          	addi	s1,s1,8
    1fb0:	00890913          	addi	s2,s2,8
    1fb4:	fb4490e3          	bne	s1,s4,1f54 <__kernel_rem_pio2+0x120>
    1fb8:	002d9713          	slli	a4,s11,0x2
    1fbc:	03c10613          	addi	a2,sp,60
    1fc0:	ff870693          	addi	a3,a4,-8
    1fc4:	00e60c33          	add	s8,a2,a4
    1fc8:	04010713          	addi	a4,sp,64
    1fcc:	00d70733          	add	a4,a4,a3
    1fd0:	02e12823          	sw	a4,48(sp)
    1fd4:	02412703          	lw	a4,36(sp)
    1fd8:	00399413          	slli	s0,s3,0x3
    1fdc:	fffd8793          	addi	a5,s11,-1
    1fe0:	00870433          	add	s0,a4,s0
    1fe4:	20000737          	lui	a4,0x20000
    1fe8:	fff70713          	addi	a4,a4,-1 # 1fffffff <bss_end+0x1ffd54cf>
    1fec:	00e12c23          	sw	a4,24(sp)
    1ff0:	00800737          	lui	a4,0x800
    1ff4:	fff70713          	addi	a4,a4,-1 # 7fffff <bss_end+0x7d54cf>
    1ff8:	00279793          	slli	a5,a5,0x2
    1ffc:	02e12e23          	sw	a4,60(sp)
    2000:	27010713          	addi	a4,sp,624
    2004:	00f707b3          	add	a5,a4,a5
    2008:	000d8493          	mv	s1,s11
    200c:	1d010d13          	addi	s10,sp,464
    2010:	02f12623          	sw	a5,44(sp)
    2014:	01b12e23          	sw	s11,28(sp)
    2018:	00349793          	slli	a5,s1,0x3
    201c:	27010713          	addi	a4,sp,624
    2020:	00f707b3          	add	a5,a4,a5
    2024:	f607aa03          	lw	s4,-160(a5)
    2028:	f647aa83          	lw	s5,-156(a5)
    202c:	0c905263          	blez	s1,20f0 <__kernel_rem_pio2+0x2bc>
    2030:	01812783          	lw	a5,24(sp)
    2034:	04010993          	addi	s3,sp,64
    2038:	00f48933          	add	s2,s1,a5
    203c:	00017797          	auipc	a5,0x17
    2040:	1dc78793          	addi	a5,a5,476 # 19218 <PIo2+0x48>
    2044:	0047a803          	lw	a6,4(a5)
    2048:	0007a783          	lw	a5,0(a5)
    204c:	00391913          	slli	s2,s2,0x3
    2050:	01012223          	sw	a6,4(sp)
    2054:	00f12023          	sw	a5,0(sp)
    2058:	00017797          	auipc	a5,0x17
    205c:	1c878793          	addi	a5,a5,456 # 19220 <PIo2+0x50>
    2060:	0047a803          	lw	a6,4(a5)
    2064:	0007a783          	lw	a5,0(a5)
    2068:	012d0933          	add	s2,s10,s2
    206c:	01012623          	sw	a6,12(sp)
    2070:	00f12423          	sw	a5,8(sp)
    2074:	0080006f          	j	207c <__kernel_rem_pio2+0x248>
    2078:	00078913          	mv	s2,a5
    207c:	00012603          	lw	a2,0(sp)
    2080:	00412683          	lw	a3,4(sp)
    2084:	000a0513          	mv	a0,s4
    2088:	000a8593          	mv	a1,s5
    208c:	6cc120ef          	jal	ra,14758 <__muldf3>
    2090:	658130ef          	jal	ra,156e8 <__fixdfsi>
    2094:	6d8130ef          	jal	ra,1576c <__floatsidf>
    2098:	00812603          	lw	a2,8(sp)
    209c:	00c12683          	lw	a3,12(sp)
    20a0:	00050b13          	mv	s6,a0
    20a4:	00058b93          	mv	s7,a1
    20a8:	6b0120ef          	jal	ra,14758 <__muldf3>
    20ac:	00050613          	mv	a2,a0
    20b0:	00058693          	mv	a3,a1
    20b4:	000a0513          	mv	a0,s4
    20b8:	000a8593          	mv	a1,s5
    20bc:	5b1120ef          	jal	ra,14e6c <__subdf3>
    20c0:	628130ef          	jal	ra,156e8 <__fixdfsi>
    20c4:	00092603          	lw	a2,0(s2)
    20c8:	00492683          	lw	a3,4(s2)
    20cc:	00a9a023          	sw	a0,0(s3)
    20d0:	000b8593          	mv	a1,s7
    20d4:	000b0513          	mv	a0,s6
    20d8:	3dc110ef          	jal	ra,134b4 <__adddf3>
    20dc:	00050a13          	mv	s4,a0
    20e0:	00058a93          	mv	s5,a1
    20e4:	ff890793          	addi	a5,s2,-8
    20e8:	00498993          	addi	s3,s3,4
    20ec:	f92d16e3          	bne	s10,s2,2078 <__kernel_rem_pio2+0x244>
    20f0:	01412b03          	lw	s6,20(sp)
    20f4:	000a8593          	mv	a1,s5
    20f8:	000a0513          	mv	a0,s4
    20fc:	000b0613          	mv	a2,s6
    2100:	6e9000ef          	jal	ra,2fe8 <scalbn>
    2104:	00017797          	auipc	a5,0x17
    2108:	12478793          	addi	a5,a5,292 # 19228 <PIo2+0x58>
    210c:	0007a603          	lw	a2,0(a5)
    2110:	0047a683          	lw	a3,4(a5)
    2114:	00050913          	mv	s2,a0
    2118:	00058993          	mv	s3,a1
    211c:	63c120ef          	jal	ra,14758 <__muldf3>
    2120:	4dd000ef          	jal	ra,2dfc <floor>
    2124:	00017797          	auipc	a5,0x17
    2128:	10c78793          	addi	a5,a5,268 # 19230 <PIo2+0x60>
    212c:	0007a603          	lw	a2,0(a5)
    2130:	0047a683          	lw	a3,4(a5)
    2134:	624120ef          	jal	ra,14758 <__muldf3>
    2138:	00050613          	mv	a2,a0
    213c:	00058693          	mv	a3,a1
    2140:	00090513          	mv	a0,s2
    2144:	00098593          	mv	a1,s3
    2148:	525120ef          	jal	ra,14e6c <__subdf3>
    214c:	00058993          	mv	s3,a1
    2150:	00050913          	mv	s2,a0
    2154:	594130ef          	jal	ra,156e8 <__fixdfsi>
    2158:	00050a93          	mv	s5,a0
    215c:	610130ef          	jal	ra,1576c <__floatsidf>
    2160:	00050613          	mv	a2,a0
    2164:	00058693          	mv	a3,a1
    2168:	00090513          	mv	a0,s2
    216c:	00098593          	mv	a1,s3
    2170:	4fd120ef          	jal	ra,14e6c <__subdf3>
    2174:	00050913          	mv	s2,a0
    2178:	00058993          	mv	s3,a1
    217c:	1b605a63          	blez	s6,2330 <__kernel_rem_pio2+0x4fc>
    2180:	fff48793          	addi	a5,s1,-1
    2184:	27010713          	addi	a4,sp,624
    2188:	00279793          	slli	a5,a5,0x2
    218c:	00f707b3          	add	a5,a4,a5
    2190:	dd07aa03          	lw	s4,-560(a5)
    2194:	01800713          	li	a4,24
    2198:	41670733          	sub	a4,a4,s6
    219c:	40ea56b3          	sra	a3,s4,a4
    21a0:	00e69733          	sll	a4,a3,a4
    21a4:	40ea0733          	sub	a4,s4,a4
    21a8:	01700a13          	li	s4,23
    21ac:	416a0a33          	sub	s4,s4,s6
    21b0:	dce7a823          	sw	a4,-560(a5)
    21b4:	41475a33          	sra	s4,a4,s4
    21b8:	00da8ab3          	add	s5,s5,a3
    21bc:	19404c63          	bgtz	s4,2354 <__kernel_rem_pio2+0x520>
    21c0:	00000613          	li	a2,0
    21c4:	00000693          	li	a3,0
    21c8:	00090513          	mv	a0,s2
    21cc:	00098593          	mv	a1,s3
    21d0:	40c120ef          	jal	ra,145dc <__eqdf2>
    21d4:	26051a63          	bnez	a0,2448 <__kernel_rem_pio2+0x614>
    21d8:	01c12783          	lw	a5,28(sp)
    21dc:	fff48613          	addi	a2,s1,-1
    21e0:	02f64663          	blt	a2,a5,220c <__kernel_rem_pio2+0x3d8>
    21e4:	00249793          	slli	a5,s1,0x2
    21e8:	04010713          	addi	a4,sp,64
    21ec:	ffc78793          	addi	a5,a5,-4
    21f0:	00f707b3          	add	a5,a4,a5
    21f4:	00000713          	li	a4,0
    21f8:	0007a683          	lw	a3,0(a5)
    21fc:	ffc78793          	addi	a5,a5,-4
    2200:	00d76733          	or	a4,a4,a3
    2204:	ff879ae3          	bne	a5,s8,21f8 <__kernel_rem_pio2+0x3c4>
    2208:	3a071e63          	bnez	a4,25c4 <__kernel_rem_pio2+0x790>
    220c:	02c12783          	lw	a5,44(sp)
    2210:	dd07a783          	lw	a5,-560(a5)
    2214:	3a079063          	bnez	a5,25b4 <__kernel_rem_pio2+0x780>
    2218:	03012783          	lw	a5,48(sp)
    221c:	00100713          	li	a4,1
    2220:	ffc78793          	addi	a5,a5,-4
    2224:	0047a683          	lw	a3,4(a5)
    2228:	00170713          	addi	a4,a4,1
    222c:	fe068ae3          	beqz	a3,2220 <__kernel_rem_pio2+0x3ec>
    2230:	00148793          	addi	a5,s1,1
    2234:	00078a93          	mv	s5,a5
    2238:	00e484b3          	add	s1,s1,a4
    223c:	01012703          	lw	a4,16(sp)
    2240:	02412d83          	lw	s11,36(sp)
    2244:	01812023          	sw	s8,0(sp)
    2248:	00f70933          	add	s2,a4,a5
    224c:	02012703          	lw	a4,32(sp)
    2250:	00f70a33          	add	s4,a4,a5
    2254:	01812703          	lw	a4,24(sp)
    2258:	00379793          	slli	a5,a5,0x3
    225c:	002a1a13          	slli	s4,s4,0x2
    2260:	00e90933          	add	s2,s2,a4
    2264:	02812703          	lw	a4,40(sp)
    2268:	00391913          	slli	s2,s2,0x3
    226c:	00fd09b3          	add	s3,s10,a5
    2270:	09010793          	addi	a5,sp,144
    2274:	01470a33          	add	s4,a4,s4
    2278:	01278933          	add	s2,a5,s2
    227c:	000a2503          	lw	a0,0(s4)
    2280:	4ec130ef          	jal	ra,1576c <__floatsidf>
    2284:	01012783          	lw	a5,16(sp)
    2288:	00a92423          	sw	a0,8(s2)
    228c:	00b92623          	sw	a1,12(s2)
    2290:	0607cc63          	bltz	a5,2308 <__kernel_rem_pio2+0x4d4>
    2294:	00090b93          	mv	s7,s2
    2298:	000d8b13          	mv	s6,s11
    229c:	00000c13          	li	s8,0
    22a0:	00000c93          	li	s9,0
    22a4:	0100006f          	j	22b4 <__kernel_rem_pio2+0x480>
    22a8:	000ba503          	lw	a0,0(s7)
    22ac:	004ba583          	lw	a1,4(s7)
    22b0:	ff8b8b93          	addi	s7,s7,-8
    22b4:	000b2603          	lw	a2,0(s6)
    22b8:	004b2683          	lw	a3,4(s6)
    22bc:	008b0b13          	addi	s6,s6,8
    22c0:	498120ef          	jal	ra,14758 <__muldf3>
    22c4:	00050613          	mv	a2,a0
    22c8:	00058693          	mv	a3,a1
    22cc:	000c0513          	mv	a0,s8
    22d0:	000c8593          	mv	a1,s9
    22d4:	1e0110ef          	jal	ra,134b4 <__adddf3>
    22d8:	00050c13          	mv	s8,a0
    22dc:	00058c93          	mv	s9,a1
    22e0:	fc8b14e3          	bne	s6,s0,22a8 <__kernel_rem_pio2+0x474>
    22e4:	0189a023          	sw	s8,0(s3)
    22e8:	0199a223          	sw	s9,4(s3)
    22ec:	001a8a93          	addi	s5,s5,1
    22f0:	004a0a13          	addi	s4,s4,4
    22f4:	00898993          	addi	s3,s3,8
    22f8:	00890913          	addi	s2,s2,8
    22fc:	f954d0e3          	bge	s1,s5,227c <__kernel_rem_pio2+0x448>
    2300:	00012c03          	lw	s8,0(sp)
    2304:	d15ff06f          	j	2018 <__kernel_rem_pio2+0x1e4>
    2308:	00000c13          	li	s8,0
    230c:	00000c93          	li	s9,0
    2310:	0189a023          	sw	s8,0(s3)
    2314:	0199a223          	sw	s9,4(s3)
    2318:	001a8a93          	addi	s5,s5,1
    231c:	004a0a13          	addi	s4,s4,4
    2320:	00898993          	addi	s3,s3,8
    2324:	00890913          	addi	s2,s2,8
    2328:	f554dae3          	bge	s1,s5,227c <__kernel_rem_pio2+0x448>
    232c:	fd5ff06f          	j	2300 <__kernel_rem_pio2+0x4cc>
    2330:	01412783          	lw	a5,20(sp)
    2334:	22079863          	bnez	a5,2564 <__kernel_rem_pio2+0x730>
    2338:	fff48793          	addi	a5,s1,-1
    233c:	00279793          	slli	a5,a5,0x2
    2340:	27010713          	addi	a4,sp,624
    2344:	00f707b3          	add	a5,a4,a5
    2348:	dd07aa03          	lw	s4,-560(a5)
    234c:	417a5a13          	srai	s4,s4,0x17
    2350:	e74058e3          	blez	s4,21c0 <__kernel_rem_pio2+0x38c>
    2354:	001a8a93          	addi	s5,s5,1
    2358:	6a905663          	blez	s1,2a04 <__kernel_rem_pio2+0xbd0>
    235c:	04012803          	lw	a6,64(sp)
    2360:	00100793          	li	a5,1
    2364:	1a081063          	bnez	a6,2504 <__kernel_rem_pio2+0x6d0>
    2368:	02f48263          	beq	s1,a5,238c <__kernel_rem_pio2+0x558>
    236c:	04410693          	addi	a3,sp,68
    2370:	00100713          	li	a4,1
    2374:	0006a803          	lw	a6,0(a3) # 80000000 <bss_end+0x7ffd54d0>
    2378:	00170793          	addi	a5,a4,1
    237c:	00468693          	addi	a3,a3,4
    2380:	18081463          	bnez	a6,2508 <__kernel_rem_pio2+0x6d4>
    2384:	00078713          	mv	a4,a5
    2388:	fef496e3          	bne	s1,a5,2374 <__kernel_rem_pio2+0x540>
    238c:	01412703          	lw	a4,20(sp)
    2390:	02e05a63          	blez	a4,23c4 <__kernel_rem_pio2+0x590>
    2394:	00100793          	li	a5,1
    2398:	62f70e63          	beq	a4,a5,29d4 <__kernel_rem_pio2+0xba0>
    239c:	00200793          	li	a5,2
    23a0:	02f71263          	bne	a4,a5,23c4 <__kernel_rem_pio2+0x590>
    23a4:	fff48793          	addi	a5,s1,-1
    23a8:	27010713          	addi	a4,sp,624
    23ac:	00279793          	slli	a5,a5,0x2
    23b0:	00f707b3          	add	a5,a4,a5
    23b4:	dd07a703          	lw	a4,-560(a5)
    23b8:	00a71713          	slli	a4,a4,0xa
    23bc:	00a75713          	srli	a4,a4,0xa
    23c0:	dce7a823          	sw	a4,-560(a5)
    23c4:	00200793          	li	a5,2
    23c8:	defa1ce3          	bne	s4,a5,21c0 <__kernel_rem_pio2+0x38c>
    23cc:	00017797          	auipc	a5,0x17
    23d0:	e7478793          	addi	a5,a5,-396 # 19240 <PIo2+0x70>
    23d4:	0007a503          	lw	a0,0(a5)
    23d8:	0047a583          	lw	a1,4(a5)
    23dc:	00090613          	mv	a2,s2
    23e0:	00098693          	mv	a3,s3
    23e4:	01012023          	sw	a6,0(sp)
    23e8:	285120ef          	jal	ra,14e6c <__subdf3>
    23ec:	00012803          	lw	a6,0(sp)
    23f0:	00050913          	mv	s2,a0
    23f4:	00058993          	mv	s3,a1
    23f8:	dc0804e3          	beqz	a6,21c0 <__kernel_rem_pio2+0x38c>
    23fc:	00017797          	auipc	a5,0x17
    2400:	e4478793          	addi	a5,a5,-444 # 19240 <PIo2+0x70>
    2404:	0007a503          	lw	a0,0(a5)
    2408:	0047a583          	lw	a1,4(a5)
    240c:	01412603          	lw	a2,20(sp)
    2410:	3d9000ef          	jal	ra,2fe8 <scalbn>
    2414:	00050613          	mv	a2,a0
    2418:	00058693          	mv	a3,a1
    241c:	00090513          	mv	a0,s2
    2420:	00098593          	mv	a1,s3
    2424:	249120ef          	jal	ra,14e6c <__subdf3>
    2428:	00050913          	mv	s2,a0
    242c:	00058993          	mv	s3,a1
    2430:	00000613          	li	a2,0
    2434:	00000693          	li	a3,0
    2438:	00090513          	mv	a0,s2
    243c:	00098593          	mv	a1,s3
    2440:	19c120ef          	jal	ra,145dc <__eqdf2>
    2444:	d8050ae3          	beqz	a0,21d8 <__kernel_rem_pio2+0x3a4>
    2448:	01412d03          	lw	s10,20(sp)
    244c:	00090513          	mv	a0,s2
    2450:	00098593          	mv	a1,s3
    2454:	41a00633          	neg	a2,s10
    2458:	01c12d83          	lw	s11,28(sp)
    245c:	38d000ef          	jal	ra,2fe8 <scalbn>
    2460:	00017797          	auipc	a5,0x17
    2464:	dc078793          	addi	a5,a5,-576 # 19220 <PIo2+0x50>
    2468:	0007a903          	lw	s2,0(a5)
    246c:	0047a983          	lw	s3,4(a5)
    2470:	00050c13          	mv	s8,a0
    2474:	00090613          	mv	a2,s2
    2478:	00098693          	mv	a3,s3
    247c:	00058c93          	mv	s9,a1
    2480:	1e8120ef          	jal	ra,14668 <__gedf2>
    2484:	62054c63          	bltz	a0,2abc <__kernel_rem_pio2+0xc88>
    2488:	00017717          	auipc	a4,0x17
    248c:	d9070713          	addi	a4,a4,-624 # 19218 <PIo2+0x48>
    2490:	00072603          	lw	a2,0(a4)
    2494:	00472683          	lw	a3,4(a4)
    2498:	000c0513          	mv	a0,s8
    249c:	000c8593          	mv	a1,s9
    24a0:	2b8120ef          	jal	ra,14758 <__muldf3>
    24a4:	244130ef          	jal	ra,156e8 <__fixdfsi>
    24a8:	27010793          	addi	a5,sp,624
    24ac:	00249413          	slli	s0,s1,0x2
    24b0:	00878433          	add	s0,a5,s0
    24b4:	00050b93          	mv	s7,a0
    24b8:	2b4130ef          	jal	ra,1576c <__floatsidf>
    24bc:	00090613          	mv	a2,s2
    24c0:	00098693          	mv	a3,s3
    24c4:	294120ef          	jal	ra,14758 <__muldf3>
    24c8:	00050613          	mv	a2,a0
    24cc:	00058693          	mv	a3,a1
    24d0:	000c0513          	mv	a0,s8
    24d4:	000c8593          	mv	a1,s9
    24d8:	195120ef          	jal	ra,14e6c <__subdf3>
    24dc:	20c130ef          	jal	ra,156e8 <__fixdfsi>
    24e0:	00148b13          	addi	s6,s1,1
    24e4:	27010713          	addi	a4,sp,624
    24e8:	002b1793          	slli	a5,s6,0x2
    24ec:	00f707b3          	add	a5,a4,a5
    24f0:	dca42823          	sw	a0,-560(s0)
    24f4:	018d0713          	addi	a4,s10,24
    24f8:	00e12a23          	sw	a4,20(sp)
    24fc:	dd77a823          	sw	s7,-560(a5)
    2500:	1140006f          	j	2614 <__kernel_rem_pio2+0x7e0>
    2504:	00000713          	li	a4,0
    2508:	00271713          	slli	a4,a4,0x2
    250c:	01000637          	lui	a2,0x1000
    2510:	27010693          	addi	a3,sp,624
    2514:	00e68733          	add	a4,a3,a4
    2518:	41060833          	sub	a6,a2,a6
    251c:	dd072823          	sw	a6,-560(a4)
    2520:	0297de63          	bge	a5,s1,255c <__kernel_rem_pio2+0x728>
    2524:	00279793          	slli	a5,a5,0x2
    2528:	00f68733          	add	a4,a3,a5
    252c:	04010593          	addi	a1,sp,64
    2530:	00249693          	slli	a3,s1,0x2
    2534:	dd072703          	lw	a4,-560(a4)
    2538:	00f587b3          	add	a5,a1,a5
    253c:	00d586b3          	add	a3,a1,a3
    2540:	fff60613          	addi	a2,a2,-1 # ffffff <bss_end+0xfd54cf>
    2544:	0080006f          	j	254c <__kernel_rem_pio2+0x718>
    2548:	0007a703          	lw	a4,0(a5)
    254c:	40e60733          	sub	a4,a2,a4
    2550:	00e7a023          	sw	a4,0(a5)
    2554:	00478793          	addi	a5,a5,4
    2558:	fed798e3          	bne	a5,a3,2548 <__kernel_rem_pio2+0x714>
    255c:	00100813          	li	a6,1
    2560:	e2dff06f          	j	238c <__kernel_rem_pio2+0x558>
    2564:	00017797          	auipc	a5,0x17
    2568:	cd478793          	addi	a5,a5,-812 # 19238 <PIo2+0x68>
    256c:	0007a603          	lw	a2,0(a5)
    2570:	0047a683          	lw	a3,4(a5)
    2574:	00000a13          	li	s4,0
    2578:	0f0120ef          	jal	ra,14668 <__gedf2>
    257c:	c40542e3          	bltz	a0,21c0 <__kernel_rem_pio2+0x38c>
    2580:	001a8a93          	addi	s5,s5,1
    2584:	00200a13          	li	s4,2
    2588:	dc904ae3          	bgtz	s1,235c <__kernel_rem_pio2+0x528>
    258c:	00017797          	auipc	a5,0x17
    2590:	cb478793          	addi	a5,a5,-844 # 19240 <PIo2+0x70>
    2594:	0007a503          	lw	a0,0(a5)
    2598:	0047a583          	lw	a1,4(a5)
    259c:	00090613          	mv	a2,s2
    25a0:	00098693          	mv	a3,s3
    25a4:	0c9120ef          	jal	ra,14e6c <__subdf3>
    25a8:	00050913          	mv	s2,a0
    25ac:	00058993          	mv	s3,a1
    25b0:	c11ff06f          	j	21c0 <__kernel_rem_pio2+0x38c>
    25b4:	00148793          	addi	a5,s1,1
    25b8:	00078a93          	mv	s5,a5
    25bc:	00078493          	mv	s1,a5
    25c0:	c7dff06f          	j	223c <__kernel_rem_pio2+0x408>
    25c4:	27010713          	addi	a4,sp,624
    25c8:	00261793          	slli	a5,a2,0x2
    25cc:	00f707b3          	add	a5,a4,a5
    25d0:	01412703          	lw	a4,20(sp)
    25d4:	dd07a783          	lw	a5,-560(a5)
    25d8:	01c12d83          	lw	s11,28(sp)
    25dc:	fe870713          	addi	a4,a4,-24
    25e0:	00e12a23          	sw	a4,20(sp)
    25e4:	00060b13          	mv	s6,a2
    25e8:	02079663          	bnez	a5,2614 <__kernel_rem_pio2+0x7e0>
    25ec:	00249793          	slli	a5,s1,0x2
    25f0:	ff878793          	addi	a5,a5,-8
    25f4:	04010693          	addi	a3,sp,64
    25f8:	00f687b3          	add	a5,a3,a5
    25fc:	ffc78793          	addi	a5,a5,-4
    2600:	0047a683          	lw	a3,4(a5)
    2604:	fffb0b13          	addi	s6,s6,-1
    2608:	fe870713          	addi	a4,a4,-24
    260c:	fe0688e3          	beqz	a3,25fc <__kernel_rem_pio2+0x7c8>
    2610:	00e12a23          	sw	a4,20(sp)
    2614:	00017797          	auipc	a5,0x17
    2618:	c2c78793          	addi	a5,a5,-980 # 19240 <PIo2+0x70>
    261c:	0007a503          	lw	a0,0(a5)
    2620:	0047a583          	lw	a1,4(a5)
    2624:	01412603          	lw	a2,20(sp)
    2628:	1c1000ef          	jal	ra,2fe8 <scalbn>
    262c:	00050413          	mv	s0,a0
    2630:	00058493          	mv	s1,a1
    2634:	4e0b4c63          	bltz	s6,2b2c <__kernel_rem_pio2+0xcf8>
    2638:	003b1793          	slli	a5,s6,0x3
    263c:	00078713          	mv	a4,a5
    2640:	1d010693          	addi	a3,sp,464
    2644:	00e68bb3          	add	s7,a3,a4
    2648:	00f12423          	sw	a5,8(sp)
    264c:	00017717          	auipc	a4,0x17
    2650:	bcc70713          	addi	a4,a4,-1076 # 19218 <PIo2+0x48>
    2654:	002b1793          	slli	a5,s6,0x2
    2658:	04010693          	addi	a3,sp,64
    265c:	00f68cb3          	add	s9,a3,a5
    2660:	000b8c13          	mv	s8,s7
    2664:	00072903          	lw	s2,0(a4)
    2668:	00472983          	lw	s3,4(a4)
    266c:	0080006f          	j	2674 <__kernel_rem_pio2+0x840>
    2670:	00078c93          	mv	s9,a5
    2674:	000ca503          	lw	a0,0(s9)
    2678:	ff8c0c13          	addi	s8,s8,-8
    267c:	0f0130ef          	jal	ra,1576c <__floatsidf>
    2680:	00040613          	mv	a2,s0
    2684:	00048693          	mv	a3,s1
    2688:	0d0120ef          	jal	ra,14758 <__muldf3>
    268c:	00ac2423          	sw	a0,8(s8)
    2690:	00bc2623          	sw	a1,12(s8)
    2694:	00040513          	mv	a0,s0
    2698:	00048593          	mv	a1,s1
    269c:	00090613          	mv	a2,s2
    26a0:	00098693          	mv	a3,s3
    26a4:	0b4120ef          	jal	ra,14758 <__muldf3>
    26a8:	04010713          	addi	a4,sp,64
    26ac:	00050413          	mv	s0,a0
    26b0:	00058493          	mv	s1,a1
    26b4:	ffcc8793          	addi	a5,s9,-4
    26b8:	fb971ce3          	bne	a4,s9,2670 <__kernel_rem_pio2+0x83c>
    26bc:	13010793          	addi	a5,sp,304
    26c0:	00f12023          	sw	a5,0(sp)
    26c4:	000d8c93          	mv	s9,s11
    26c8:	00078493          	mv	s1,a5
    26cc:	00000413          	li	s0,0
    26d0:	080ccc63          	bltz	s9,2768 <__kernel_rem_pio2+0x934>
    26d4:	00017797          	auipc	a5,0x17
    26d8:	b3c78793          	addi	a5,a5,-1220 # 19210 <PIo2+0x40>
    26dc:	00017c17          	auipc	s8,0x17
    26e0:	af4c0c13          	addi	s8,s8,-1292 # 191d0 <PIo2>
    26e4:	000b8993          	mv	s3,s7
    26e8:	0007a503          	lw	a0,0(a5)
    26ec:	0047a583          	lw	a1,4(a5)
    26f0:	00000d13          	li	s10,0
    26f4:	00000d93          	li	s11,0
    26f8:	00000913          	li	s2,0
    26fc:	0180006f          	j	2714 <__kernel_rem_pio2+0x8e0>
    2700:	008c0c13          	addi	s8,s8,8
    2704:	00898993          	addi	s3,s3,8
    2708:	03244e63          	blt	s0,s2,2744 <__kernel_rem_pio2+0x910>
    270c:	000c2503          	lw	a0,0(s8)
    2710:	004c2583          	lw	a1,4(s8)
    2714:	0009a603          	lw	a2,0(s3)
    2718:	0049a683          	lw	a3,4(s3)
    271c:	00190913          	addi	s2,s2,1
    2720:	038120ef          	jal	ra,14758 <__muldf3>
    2724:	00050613          	mv	a2,a0
    2728:	00058693          	mv	a3,a1
    272c:	000d0513          	mv	a0,s10
    2730:	000d8593          	mv	a1,s11
    2734:	581100ef          	jal	ra,134b4 <__adddf3>
    2738:	00050d13          	mv	s10,a0
    273c:	00058d93          	mv	s11,a1
    2740:	fd2cd0e3          	bge	s9,s2,2700 <__kernel_rem_pio2+0x8cc>
    2744:	01a4a023          	sw	s10,0(s1)
    2748:	01b4a223          	sw	s11,4(s1)
    274c:	1d010713          	addi	a4,sp,464
    2750:	00140413          	addi	s0,s0,1
    2754:	00848493          	addi	s1,s1,8
    2758:	ff8b8793          	addi	a5,s7,-8
    275c:	03770863          	beq	a4,s7,278c <__kernel_rem_pio2+0x958>
    2760:	00078b93          	mv	s7,a5
    2764:	f60cd8e3          	bgez	s9,26d4 <__kernel_rem_pio2+0x8a0>
    2768:	00000d13          	li	s10,0
    276c:	00000d93          	li	s11,0
    2770:	01a4a023          	sw	s10,0(s1)
    2774:	01b4a223          	sw	s11,4(s1)
    2778:	1d010713          	addi	a4,sp,464
    277c:	00140413          	addi	s0,s0,1
    2780:	00848493          	addi	s1,s1,8
    2784:	ff8b8793          	addi	a5,s7,-8
    2788:	fd771ce3          	bne	a4,s7,2760 <__kernel_rem_pio2+0x92c>
    278c:	03812703          	lw	a4,56(sp)
    2790:	00200793          	li	a5,2
    2794:	0ae7c263          	blt	a5,a4,2838 <__kernel_rem_pio2+0xa04>
    2798:	26e04a63          	bgtz	a4,2a0c <__kernel_rem_pio2+0xbd8>
    279c:	04071e63          	bnez	a4,27f8 <__kernel_rem_pio2+0x9c4>
    27a0:	00812783          	lw	a5,8(sp)
    27a4:	00012403          	lw	s0,0(sp)
    27a8:	00000513          	li	a0,0
    27ac:	00000593          	li	a1,0
    27b0:	00f40cb3          	add	s9,s0,a5
    27b4:	000ca603          	lw	a2,0(s9)
    27b8:	004ca683          	lw	a3,4(s9)
    27bc:	4f9100ef          	jal	ra,134b4 <__adddf3>
    27c0:	ff8c8793          	addi	a5,s9,-8
    27c4:	01940e63          	beq	s0,s9,27e0 <__kernel_rem_pio2+0x9ac>
    27c8:	00078c93          	mv	s9,a5
    27cc:	000ca603          	lw	a2,0(s9)
    27d0:	004ca683          	lw	a3,4(s9)
    27d4:	4e1100ef          	jal	ra,134b4 <__adddf3>
    27d8:	ff8c8793          	addi	a5,s9,-8
    27dc:	ff9416e3          	bne	s0,s9,27c8 <__kernel_rem_pio2+0x994>
    27e0:	000a0663          	beqz	s4,27ec <__kernel_rem_pio2+0x9b8>
    27e4:	800007b7          	lui	a5,0x80000
    27e8:	00b7c5b3          	xor	a1,a5,a1
    27ec:	03412683          	lw	a3,52(sp)
    27f0:	00a6a023          	sw	a0,0(a3)
    27f4:	00b6a223          	sw	a1,4(a3)
    27f8:	2ac12083          	lw	ra,684(sp)
    27fc:	2a812403          	lw	s0,680(sp)
    2800:	007af513          	andi	a0,s5,7
    2804:	2a412483          	lw	s1,676(sp)
    2808:	2a012903          	lw	s2,672(sp)
    280c:	29c12983          	lw	s3,668(sp)
    2810:	29812a03          	lw	s4,664(sp)
    2814:	29412a83          	lw	s5,660(sp)
    2818:	29012b03          	lw	s6,656(sp)
    281c:	28c12b83          	lw	s7,652(sp)
    2820:	28812c03          	lw	s8,648(sp)
    2824:	28412c83          	lw	s9,644(sp)
    2828:	28012d03          	lw	s10,640(sp)
    282c:	27c12d83          	lw	s11,636(sp)
    2830:	2b010113          	addi	sp,sp,688
    2834:	00008067          	ret
    2838:	03812703          	lw	a4,56(sp)
    283c:	00300793          	li	a5,3
    2840:	faf71ce3          	bne	a4,a5,27f8 <__kernel_rem_pio2+0x9c4>
    2844:	31605c63          	blez	s6,2b5c <__kernel_rem_pio2+0xd28>
    2848:	003b1b93          	slli	s7,s6,0x3
    284c:	27010793          	addi	a5,sp,624
    2850:	017787b3          	add	a5,a5,s7
    2854:	13010993          	addi	s3,sp,304
    2858:	ff8b8413          	addi	s0,s7,-8
    285c:	01312023          	sw	s3,0(sp)
    2860:	ec07ad83          	lw	s11,-320(a5) # 7ffffec0 <bss_end+0x7ffd5390>
    2864:	ec47ad03          	lw	s10,-316(a5)
    2868:	00898433          	add	s0,s3,s0
    286c:	0080006f          	j	2874 <__kernel_rem_pio2+0xa40>
    2870:	00078413          	mv	s0,a5
    2874:	00042c03          	lw	s8,0(s0)
    2878:	00442c83          	lw	s9,4(s0)
    287c:	000d8613          	mv	a2,s11
    2880:	000d0693          	mv	a3,s10
    2884:	000c0513          	mv	a0,s8
    2888:	000c8593          	mv	a1,s9
    288c:	429100ef          	jal	ra,134b4 <__adddf3>
    2890:	00050913          	mv	s2,a0
    2894:	00058493          	mv	s1,a1
    2898:	00050613          	mv	a2,a0
    289c:	00058693          	mv	a3,a1
    28a0:	000c0513          	mv	a0,s8
    28a4:	000c8593          	mv	a1,s9
    28a8:	5c4120ef          	jal	ra,14e6c <__subdf3>
    28ac:	000d8613          	mv	a2,s11
    28b0:	000d0693          	mv	a3,s10
    28b4:	401100ef          	jal	ra,134b4 <__adddf3>
    28b8:	00a42423          	sw	a0,8(s0)
    28bc:	00b42623          	sw	a1,12(s0)
    28c0:	01242023          	sw	s2,0(s0)
    28c4:	00942223          	sw	s1,4(s0)
    28c8:	ff840793          	addi	a5,s0,-8
    28cc:	00090d93          	mv	s11,s2
    28d0:	00048d13          	mv	s10,s1
    28d4:	f8899ee3          	bne	s3,s0,2870 <__kernel_rem_pio2+0xa3c>
    28d8:	00100793          	li	a5,1
    28dc:	2967d063          	bge	a5,s6,2b5c <__kernel_rem_pio2+0xd28>
    28e0:	003b1413          	slli	s0,s6,0x3
    28e4:	00012b03          	lw	s6,0(sp)
    28e8:	27010793          	addi	a5,sp,624
    28ec:	01778bb3          	add	s7,a5,s7
    28f0:	ff840413          	addi	s0,s0,-8
    28f4:	ec0bad03          	lw	s10,-320(s7)
    28f8:	008b04b3          	add	s1,s6,s0
    28fc:	ec4bab83          	lw	s7,-316(s7)
    2900:	0080006f          	j	2908 <__kernel_rem_pio2+0xad4>
    2904:	00078493          	mv	s1,a5
    2908:	0004ac03          	lw	s8,0(s1)
    290c:	0044ac83          	lw	s9,4(s1)
    2910:	000d0613          	mv	a2,s10
    2914:	000b8693          	mv	a3,s7
    2918:	000c0513          	mv	a0,s8
    291c:	000c8593          	mv	a1,s9
    2920:	395100ef          	jal	ra,134b4 <__adddf3>
    2924:	00050993          	mv	s3,a0
    2928:	00058913          	mv	s2,a1
    292c:	00050613          	mv	a2,a0
    2930:	00058693          	mv	a3,a1
    2934:	000c0513          	mv	a0,s8
    2938:	000c8593          	mv	a1,s9
    293c:	530120ef          	jal	ra,14e6c <__subdf3>
    2940:	000d0613          	mv	a2,s10
    2944:	000b8693          	mv	a3,s7
    2948:	36d100ef          	jal	ra,134b4 <__adddf3>
    294c:	00a4a423          	sw	a0,8(s1)
    2950:	00b4a623          	sw	a1,12(s1)
    2954:	0134a023          	sw	s3,0(s1)
    2958:	0124a223          	sw	s2,4(s1)
    295c:	ff848793          	addi	a5,s1,-8
    2960:	00098d13          	mv	s10,s3
    2964:	00090b93          	mv	s7,s2
    2968:	f8fb1ee3          	bne	s6,a5,2904 <__kernel_rem_pio2+0xad0>
    296c:	00012783          	lw	a5,0(sp)
    2970:	00840413          	addi	s0,s0,8
    2974:	00000513          	li	a0,0
    2978:	00878933          	add	s2,a5,s0
    297c:	00000593          	li	a1,0
    2980:	00092603          	lw	a2,0(s2)
    2984:	00492683          	lw	a3,4(s2)
    2988:	ff890913          	addi	s2,s2,-8
    298c:	329100ef          	jal	ra,134b4 <__adddf3>
    2990:	ff2498e3          	bne	s1,s2,2980 <__kernel_rem_pio2+0xb4c>
    2994:	13012803          	lw	a6,304(sp)
    2998:	13412703          	lw	a4,308(sp)
    299c:	13812603          	lw	a2,312(sp)
    29a0:	13c12783          	lw	a5,316(sp)
    29a4:	120a1e63          	bnez	s4,2ae0 <__kernel_rem_pio2+0xcac>
    29a8:	00078893          	mv	a7,a5
    29ac:	03412783          	lw	a5,52(sp)
    29b0:	00080313          	mv	t1,a6
    29b4:	00060813          	mv	a6,a2
    29b8:	0067a023          	sw	t1,0(a5)
    29bc:	00e7a223          	sw	a4,4(a5)
    29c0:	0107a423          	sw	a6,8(a5)
    29c4:	0117a623          	sw	a7,12(a5)
    29c8:	00a7a823          	sw	a0,16(a5)
    29cc:	00b7aa23          	sw	a1,20(a5)
    29d0:	e29ff06f          	j	27f8 <__kernel_rem_pio2+0x9c4>
    29d4:	fff48793          	addi	a5,s1,-1
    29d8:	27010713          	addi	a4,sp,624
    29dc:	00279793          	slli	a5,a5,0x2
    29e0:	00f707b3          	add	a5,a4,a5
    29e4:	dd07a703          	lw	a4,-560(a5)
    29e8:	03c12683          	lw	a3,60(sp)
    29ec:	00d77733          	and	a4,a4,a3
    29f0:	dce7a823          	sw	a4,-560(a5)
    29f4:	9d1ff06f          	j	23c4 <__kernel_rem_pio2+0x590>
    29f8:	fe800793          	li	a5,-24
    29fc:	02012023          	sw	zero,32(sp)
    2a00:	cc8ff06f          	j	1ec8 <__kernel_rem_pio2+0x94>
    2a04:	00000813          	li	a6,0
    2a08:	985ff06f          	j	238c <__kernel_rem_pio2+0x558>
    2a0c:	00012703          	lw	a4,0(sp)
    2a10:	00812783          	lw	a5,8(sp)
    2a14:	00000413          	li	s0,0
    2a18:	00000493          	li	s1,0
    2a1c:	00f70cb3          	add	s9,a4,a5
    2a20:	00040793          	mv	a5,s0
    2a24:	00070413          	mv	s0,a4
    2a28:	0080006f          	j	2a30 <__kernel_rem_pio2+0xbfc>
    2a2c:	00070c93          	mv	s9,a4
    2a30:	000ca603          	lw	a2,0(s9)
    2a34:	004ca683          	lw	a3,4(s9)
    2a38:	00048513          	mv	a0,s1
    2a3c:	00078593          	mv	a1,a5
    2a40:	275100ef          	jal	ra,134b4 <__adddf3>
    2a44:	ff8c8713          	addi	a4,s9,-8
    2a48:	00050493          	mv	s1,a0
    2a4c:	00058793          	mv	a5,a1
    2a50:	fd941ee3          	bne	s0,s9,2a2c <__kernel_rem_pio2+0xbf8>
    2a54:	00058413          	mv	s0,a1
    2a58:	13012503          	lw	a0,304(sp)
    2a5c:	13412583          	lw	a1,308(sp)
    2a60:	00048613          	mv	a2,s1
    2a64:	00040693          	mv	a3,s0
    2a68:	404120ef          	jal	ra,14e6c <__subdf3>
    2a6c:	0a0a1263          	bnez	s4,2b10 <__kernel_rem_pio2+0xcdc>
    2a70:	03412683          	lw	a3,52(sp)
    2a74:	0096a023          	sw	s1,0(a3)
    2a78:	0086a223          	sw	s0,4(a3)
    2a7c:	03605863          	blez	s6,2aac <__kernel_rem_pio2+0xc78>
    2a80:	13810493          	addi	s1,sp,312
    2a84:	00100413          	li	s0,1
    2a88:	0004a603          	lw	a2,0(s1)
    2a8c:	0044a683          	lw	a3,4(s1)
    2a90:	00140413          	addi	s0,s0,1
    2a94:	00848493          	addi	s1,s1,8
    2a98:	21d100ef          	jal	ra,134b4 <__adddf3>
    2a9c:	fe8b56e3          	bge	s6,s0,2a88 <__kernel_rem_pio2+0xc54>
    2aa0:	000a0663          	beqz	s4,2aac <__kernel_rem_pio2+0xc78>
    2aa4:	800007b7          	lui	a5,0x80000
    2aa8:	00b7c5b3          	xor	a1,a5,a1
    2aac:	03412683          	lw	a3,52(sp)
    2ab0:	00a6a423          	sw	a0,8(a3)
    2ab4:	00b6a623          	sw	a1,12(a3)
    2ab8:	d41ff06f          	j	27f8 <__kernel_rem_pio2+0x9c4>
    2abc:	27010793          	addi	a5,sp,624
    2ac0:	00249413          	slli	s0,s1,0x2
    2ac4:	000c0513          	mv	a0,s8
    2ac8:	000c8593          	mv	a1,s9
    2acc:	00878433          	add	s0,a5,s0
    2ad0:	419120ef          	jal	ra,156e8 <__fixdfsi>
    2ad4:	dca42823          	sw	a0,-560(s0)
    2ad8:	00048b13          	mv	s6,s1
    2adc:	b39ff06f          	j	2614 <__kernel_rem_pio2+0x7e0>
    2ae0:	800006b7          	lui	a3,0x80000
    2ae4:	00e6c733          	xor	a4,a3,a4
    2ae8:	00f6c7b3          	xor	a5,a3,a5
    2aec:	00b6c6b3          	xor	a3,a3,a1
    2af0:	03412583          	lw	a1,52(sp)
    2af4:	0105a023          	sw	a6,0(a1)
    2af8:	00e5a223          	sw	a4,4(a1)
    2afc:	00c5a423          	sw	a2,8(a1)
    2b00:	00f5a623          	sw	a5,12(a1)
    2b04:	00a5a823          	sw	a0,16(a1)
    2b08:	00d5aa23          	sw	a3,20(a1)
    2b0c:	cedff06f          	j	27f8 <__kernel_rem_pio2+0x9c4>
    2b10:	800007b7          	lui	a5,0x80000
    2b14:	0087c433          	xor	s0,a5,s0
    2b18:	03412783          	lw	a5,52(sp)
    2b1c:	0097a023          	sw	s1,0(a5) # 80000000 <bss_end+0x7ffd54d0>
    2b20:	0087a223          	sw	s0,4(a5)
    2b24:	f5604ee3          	bgtz	s6,2a80 <__kernel_rem_pio2+0xc4c>
    2b28:	f7dff06f          	j	2aa4 <__kernel_rem_pio2+0xc70>
    2b2c:	03812703          	lw	a4,56(sp)
    2b30:	00200793          	li	a5,2
    2b34:	d0e7c2e3          	blt	a5,a4,2838 <__kernel_rem_pio2+0xa04>
    2b38:	00e04c63          	bgtz	a4,2b50 <__kernel_rem_pio2+0xd1c>
    2b3c:	00000513          	li	a0,0
    2b40:	00000593          	li	a1,0
    2b44:	ca071ae3          	bnez	a4,27f8 <__kernel_rem_pio2+0x9c4>
    2b48:	ca0a02e3          	beqz	s4,27ec <__kernel_rem_pio2+0x9b8>
    2b4c:	c99ff06f          	j	27e4 <__kernel_rem_pio2+0x9b0>
    2b50:	00000493          	li	s1,0
    2b54:	00000413          	li	s0,0
    2b58:	f01ff06f          	j	2a58 <__kernel_rem_pio2+0xc24>
    2b5c:	00000513          	li	a0,0
    2b60:	00000593          	li	a1,0
    2b64:	e31ff06f          	j	2994 <__kernel_rem_pio2+0xb60>

Disassembly of section .text.__kernel_sin:

00002b68 <__kernel_sin>:
    2b68:	fc010113          	addi	sp,sp,-64
    2b6c:	00159793          	slli	a5,a1,0x1
    2b70:	02812c23          	sw	s0,56(sp)
    2b74:	02912a23          	sw	s1,52(sp)
    2b78:	03412423          	sw	s4,40(sp)
    2b7c:	03512223          	sw	s5,36(sp)
    2b80:	01812c23          	sw	s8,24(sp)
    2b84:	02112e23          	sw	ra,60(sp)
    2b88:	03212823          	sw	s2,48(sp)
    2b8c:	03312623          	sw	s3,44(sp)
    2b90:	03612023          	sw	s6,32(sp)
    2b94:	01712e23          	sw	s7,28(sp)
    2b98:	01912a23          	sw	s9,20(sp)
    2b9c:	01a12823          	sw	s10,16(sp)
    2ba0:	01b12623          	sw	s11,12(sp)
    2ba4:	0017d793          	srli	a5,a5,0x1
    2ba8:	3e400837          	lui	a6,0x3e400
    2bac:	00058413          	mv	s0,a1
    2bb0:	00050493          	mv	s1,a0
    2bb4:	00060a13          	mv	s4,a2
    2bb8:	00068a93          	mv	s5,a3
    2bbc:	00070c13          	mv	s8,a4
    2bc0:	0107da63          	bge	a5,a6,2bd4 <__kernel_sin+0x6c>
    2bc4:	325120ef          	jal	ra,156e8 <__fixdfsi>
    2bc8:	00048713          	mv	a4,s1
    2bcc:	00040793          	mv	a5,s0
    2bd0:	12050063          	beqz	a0,2cf0 <__kernel_sin+0x188>
    2bd4:	00048613          	mv	a2,s1
    2bd8:	00040693          	mv	a3,s0
    2bdc:	00048513          	mv	a0,s1
    2be0:	00040593          	mv	a1,s0
    2be4:	375110ef          	jal	ra,14758 <__muldf3>
    2be8:	00050913          	mv	s2,a0
    2bec:	00058993          	mv	s3,a1
    2bf0:	00050613          	mv	a2,a0
    2bf4:	00058693          	mv	a3,a1
    2bf8:	00048513          	mv	a0,s1
    2bfc:	00040593          	mv	a1,s0
    2c00:	359110ef          	jal	ra,14758 <__muldf3>
    2c04:	00016797          	auipc	a5,0x16
    2c08:	65478793          	addi	a5,a5,1620 # 19258 <init_jk+0x10>
    2c0c:	0007a603          	lw	a2,0(a5)
    2c10:	0047a683          	lw	a3,4(a5)
    2c14:	00050b13          	mv	s6,a0
    2c18:	00058b93          	mv	s7,a1
    2c1c:	00090513          	mv	a0,s2
    2c20:	00098593          	mv	a1,s3
    2c24:	335110ef          	jal	ra,14758 <__muldf3>
    2c28:	00016797          	auipc	a5,0x16
    2c2c:	63878793          	addi	a5,a5,1592 # 19260 <init_jk+0x18>
    2c30:	0007a603          	lw	a2,0(a5)
    2c34:	0047a683          	lw	a3,4(a5)
    2c38:	234120ef          	jal	ra,14e6c <__subdf3>
    2c3c:	00090613          	mv	a2,s2
    2c40:	00098693          	mv	a3,s3
    2c44:	315110ef          	jal	ra,14758 <__muldf3>
    2c48:	00016797          	auipc	a5,0x16
    2c4c:	62078793          	addi	a5,a5,1568 # 19268 <init_jk+0x20>
    2c50:	0007a603          	lw	a2,0(a5)
    2c54:	0047a683          	lw	a3,4(a5)
    2c58:	05d100ef          	jal	ra,134b4 <__adddf3>
    2c5c:	00090613          	mv	a2,s2
    2c60:	00098693          	mv	a3,s3
    2c64:	2f5110ef          	jal	ra,14758 <__muldf3>
    2c68:	00016797          	auipc	a5,0x16
    2c6c:	60878793          	addi	a5,a5,1544 # 19270 <init_jk+0x28>
    2c70:	0007a603          	lw	a2,0(a5)
    2c74:	0047a683          	lw	a3,4(a5)
    2c78:	1f4120ef          	jal	ra,14e6c <__subdf3>
    2c7c:	00090613          	mv	a2,s2
    2c80:	00098693          	mv	a3,s3
    2c84:	2d5110ef          	jal	ra,14758 <__muldf3>
    2c88:	00016797          	auipc	a5,0x16
    2c8c:	5f078793          	addi	a5,a5,1520 # 19278 <init_jk+0x30>
    2c90:	0007a603          	lw	a2,0(a5)
    2c94:	0047a683          	lw	a3,4(a5)
    2c98:	01d100ef          	jal	ra,134b4 <__adddf3>
    2c9c:	00050d13          	mv	s10,a0
    2ca0:	00058d93          	mv	s11,a1
    2ca4:	080c1863          	bnez	s8,2d34 <__kernel_sin+0x1cc>
    2ca8:	00050613          	mv	a2,a0
    2cac:	00058693          	mv	a3,a1
    2cb0:	00090513          	mv	a0,s2
    2cb4:	00098593          	mv	a1,s3
    2cb8:	2a1110ef          	jal	ra,14758 <__muldf3>
    2cbc:	00016797          	auipc	a5,0x16
    2cc0:	5c478793          	addi	a5,a5,1476 # 19280 <init_jk+0x38>
    2cc4:	0007a603          	lw	a2,0(a5)
    2cc8:	0047a683          	lw	a3,4(a5)
    2ccc:	1a0120ef          	jal	ra,14e6c <__subdf3>
    2cd0:	000b0613          	mv	a2,s6
    2cd4:	000b8693          	mv	a3,s7
    2cd8:	281110ef          	jal	ra,14758 <__muldf3>
    2cdc:	00048613          	mv	a2,s1
    2ce0:	00040693          	mv	a3,s0
    2ce4:	7d0100ef          	jal	ra,134b4 <__adddf3>
    2ce8:	00050713          	mv	a4,a0
    2cec:	00058793          	mv	a5,a1
    2cf0:	03c12083          	lw	ra,60(sp)
    2cf4:	03812403          	lw	s0,56(sp)
    2cf8:	03412483          	lw	s1,52(sp)
    2cfc:	03012903          	lw	s2,48(sp)
    2d00:	02c12983          	lw	s3,44(sp)
    2d04:	02812a03          	lw	s4,40(sp)
    2d08:	02412a83          	lw	s5,36(sp)
    2d0c:	02012b03          	lw	s6,32(sp)
    2d10:	01c12b83          	lw	s7,28(sp)
    2d14:	01812c03          	lw	s8,24(sp)
    2d18:	01412c83          	lw	s9,20(sp)
    2d1c:	01012d03          	lw	s10,16(sp)
    2d20:	00c12d83          	lw	s11,12(sp)
    2d24:	00070513          	mv	a0,a4
    2d28:	00078593          	mv	a1,a5
    2d2c:	04010113          	addi	sp,sp,64
    2d30:	00008067          	ret
    2d34:	00016797          	auipc	a5,0x16
    2d38:	55478793          	addi	a5,a5,1364 # 19288 <init_jk+0x40>
    2d3c:	0007a603          	lw	a2,0(a5)
    2d40:	0047a683          	lw	a3,4(a5)
    2d44:	000a0513          	mv	a0,s4
    2d48:	000a8593          	mv	a1,s5
    2d4c:	20d110ef          	jal	ra,14758 <__muldf3>
    2d50:	00050c13          	mv	s8,a0
    2d54:	00058c93          	mv	s9,a1
    2d58:	000d0613          	mv	a2,s10
    2d5c:	000d8693          	mv	a3,s11
    2d60:	000b0513          	mv	a0,s6
    2d64:	000b8593          	mv	a1,s7
    2d68:	1f1110ef          	jal	ra,14758 <__muldf3>
    2d6c:	00050613          	mv	a2,a0
    2d70:	00058693          	mv	a3,a1
    2d74:	000c0513          	mv	a0,s8
    2d78:	000c8593          	mv	a1,s9
    2d7c:	0f0120ef          	jal	ra,14e6c <__subdf3>
    2d80:	00090613          	mv	a2,s2
    2d84:	00098693          	mv	a3,s3
    2d88:	1d1110ef          	jal	ra,14758 <__muldf3>
    2d8c:	000a0613          	mv	a2,s4
    2d90:	000a8693          	mv	a3,s5
    2d94:	0d8120ef          	jal	ra,14e6c <__subdf3>
    2d98:	00016797          	auipc	a5,0x16
    2d9c:	4e878793          	addi	a5,a5,1256 # 19280 <init_jk+0x38>
    2da0:	0007a603          	lw	a2,0(a5)
    2da4:	0047a683          	lw	a3,4(a5)
    2da8:	00050913          	mv	s2,a0
    2dac:	00058993          	mv	s3,a1
    2db0:	000b0513          	mv	a0,s6
    2db4:	000b8593          	mv	a1,s7
    2db8:	1a1110ef          	jal	ra,14758 <__muldf3>
    2dbc:	00050613          	mv	a2,a0
    2dc0:	00058693          	mv	a3,a1
    2dc4:	00090513          	mv	a0,s2
    2dc8:	00098593          	mv	a1,s3
    2dcc:	6e8100ef          	jal	ra,134b4 <__adddf3>
    2dd0:	00050613          	mv	a2,a0
    2dd4:	00058693          	mv	a3,a1
    2dd8:	00048513          	mv	a0,s1
    2ddc:	00040593          	mv	a1,s0
    2de0:	08c120ef          	jal	ra,14e6c <__subdf3>
    2de4:	00050713          	mv	a4,a0
    2de8:	00058793          	mv	a5,a1
    2dec:	f05ff06f          	j	2cf0 <__kernel_sin+0x188>

Disassembly of section .text.fabs:

00002df0 <fabs>:
    2df0:	00159593          	slli	a1,a1,0x1
    2df4:	0015d593          	srli	a1,a1,0x1
    2df8:	00008067          	ret

Disassembly of section .text.floor:

00002dfc <floor>:
    2dfc:	4145d793          	srai	a5,a1,0x14
    2e00:	fe010113          	addi	sp,sp,-32
    2e04:	7ff7f793          	andi	a5,a5,2047
    2e08:	00812c23          	sw	s0,24(sp)
    2e0c:	00912a23          	sw	s1,20(sp)
    2e10:	01212823          	sw	s2,16(sp)
    2e14:	01312623          	sw	s3,12(sp)
    2e18:	01412423          	sw	s4,8(sp)
    2e1c:	00112e23          	sw	ra,28(sp)
    2e20:	01512223          	sw	s5,4(sp)
    2e24:	01612023          	sw	s6,0(sp)
    2e28:	c0178493          	addi	s1,a5,-1023
    2e2c:	01300713          	li	a4,19
    2e30:	00058413          	mv	s0,a1
    2e34:	00050993          	mv	s3,a0
    2e38:	00058913          	mv	s2,a1
    2e3c:	00050a13          	mv	s4,a0
    2e40:	0c974863          	blt	a4,s1,2f10 <floor+0x114>
    2e44:	0804cc63          	bltz	s1,2edc <floor+0xe0>
    2e48:	00100b37          	lui	s6,0x100
    2e4c:	fffb0a93          	addi	s5,s6,-1 # fffff <bss_end+0xd54cf>
    2e50:	409adab3          	sra	s5,s5,s1
    2e54:	00baf7b3          	and	a5,s5,a1
    2e58:	00a7e7b3          	or	a5,a5,a0
    2e5c:	00050693          	mv	a3,a0
    2e60:	00058713          	mv	a4,a1
    2e64:	04078463          	beqz	a5,2eac <floor+0xb0>
    2e68:	00016797          	auipc	a5,0x16
    2e6c:	42878793          	addi	a5,a5,1064 # 19290 <init_jk+0x48>
    2e70:	0007a603          	lw	a2,0(a5)
    2e74:	0047a683          	lw	a3,4(a5)
    2e78:	63c100ef          	jal	ra,134b4 <__adddf3>
    2e7c:	00000613          	li	a2,0
    2e80:	00000693          	li	a3,0
    2e84:	7e4110ef          	jal	ra,14668 <__gedf2>
    2e88:	00a05e63          	blez	a0,2ea4 <floor+0xa8>
    2e8c:	00045663          	bgez	s0,2e98 <floor+0x9c>
    2e90:	409b54b3          	sra	s1,s6,s1
    2e94:	00848933          	add	s2,s1,s0
    2e98:	fffaca93          	not	s5,s5
    2e9c:	01597933          	and	s2,s2,s5
    2ea0:	00000a13          	li	s4,0
    2ea4:	000a0693          	mv	a3,s4
    2ea8:	00090713          	mv	a4,s2
    2eac:	01c12083          	lw	ra,28(sp)
    2eb0:	01812403          	lw	s0,24(sp)
    2eb4:	01412483          	lw	s1,20(sp)
    2eb8:	01012903          	lw	s2,16(sp)
    2ebc:	00c12983          	lw	s3,12(sp)
    2ec0:	00812a03          	lw	s4,8(sp)
    2ec4:	00412a83          	lw	s5,4(sp)
    2ec8:	00012b03          	lw	s6,0(sp)
    2ecc:	00068513          	mv	a0,a3
    2ed0:	00070593          	mv	a1,a4
    2ed4:	02010113          	addi	sp,sp,32
    2ed8:	00008067          	ret
    2edc:	00016797          	auipc	a5,0x16
    2ee0:	3b478793          	addi	a5,a5,948 # 19290 <init_jk+0x48>
    2ee4:	0007a603          	lw	a2,0(a5)
    2ee8:	0047a683          	lw	a3,4(a5)
    2eec:	5c8100ef          	jal	ra,134b4 <__adddf3>
    2ef0:	00000613          	li	a2,0
    2ef4:	00000693          	li	a3,0
    2ef8:	770110ef          	jal	ra,14668 <__gedf2>
    2efc:	faa054e3          	blez	a0,2ea4 <floor+0xa8>
    2f00:	08044863          	bltz	s0,2f90 <floor+0x194>
    2f04:	00000a13          	li	s4,0
    2f08:	00000913          	li	s2,0
    2f0c:	f99ff06f          	j	2ea4 <floor+0xa8>
    2f10:	03300713          	li	a4,51
    2f14:	02975663          	bge	a4,s1,2f40 <floor+0x144>
    2f18:	40000793          	li	a5,1024
    2f1c:	00050693          	mv	a3,a0
    2f20:	00058713          	mv	a4,a1
    2f24:	f8f494e3          	bne	s1,a5,2eac <floor+0xb0>
    2f28:	00058693          	mv	a3,a1
    2f2c:	00050613          	mv	a2,a0
    2f30:	584100ef          	jal	ra,134b4 <__adddf3>
    2f34:	00050693          	mv	a3,a0
    2f38:	00058713          	mv	a4,a1
    2f3c:	f71ff06f          	j	2eac <floor+0xb0>
    2f40:	bed78793          	addi	a5,a5,-1043
    2f44:	fff00a93          	li	s5,-1
    2f48:	00fadab3          	srl	s5,s5,a5
    2f4c:	00aaf7b3          	and	a5,s5,a0
    2f50:	00050693          	mv	a3,a0
    2f54:	00058713          	mv	a4,a1
    2f58:	f4078ae3          	beqz	a5,2eac <floor+0xb0>
    2f5c:	00016797          	auipc	a5,0x16
    2f60:	33478793          	addi	a5,a5,820 # 19290 <init_jk+0x48>
    2f64:	0007a603          	lw	a2,0(a5)
    2f68:	0047a683          	lw	a3,4(a5)
    2f6c:	548100ef          	jal	ra,134b4 <__adddf3>
    2f70:	00000613          	li	a2,0
    2f74:	00000693          	li	a3,0
    2f78:	6f0110ef          	jal	ra,14668 <__gedf2>
    2f7c:	f2a054e3          	blez	a0,2ea4 <floor+0xa8>
    2f80:	02044663          	bltz	s0,2fac <floor+0x1b0>
    2f84:	fffac793          	not	a5,s5
    2f88:	00fa7a33          	and	s4,s4,a5
    2f8c:	f19ff06f          	j	2ea4 <floor+0xa8>
    2f90:	00141413          	slli	s0,s0,0x1
    2f94:	00145413          	srli	s0,s0,0x1
    2f98:	01346433          	or	s0,s0,s3
    2f9c:	00000a13          	li	s4,0
    2fa0:	f00402e3          	beqz	s0,2ea4 <floor+0xa8>
    2fa4:	bff00937          	lui	s2,0xbff00
    2fa8:	efdff06f          	j	2ea4 <floor+0xa8>
    2fac:	01400793          	li	a5,20
    2fb0:	02f48463          	beq	s1,a5,2fd8 <floor+0x1dc>
    2fb4:	03400793          	li	a5,52
    2fb8:	409787b3          	sub	a5,a5,s1
    2fbc:	00100493          	li	s1,1
    2fc0:	00f494b3          	sll	s1,s1,a5
    2fc4:	013489b3          	add	s3,s1,s3
    2fc8:	0149fc63          	bgeu	s3,s4,2fe0 <floor+0x1e4>
    2fcc:	00140913          	addi	s2,s0,1
    2fd0:	00098a13          	mv	s4,s3
    2fd4:	fb1ff06f          	j	2f84 <floor+0x188>
    2fd8:	00140913          	addi	s2,s0,1
    2fdc:	fa9ff06f          	j	2f84 <floor+0x188>
    2fe0:	00098a13          	mv	s4,s3
    2fe4:	fa1ff06f          	j	2f84 <floor+0x188>

Disassembly of section .text.scalbn:

00002fe8 <scalbn>:
    2fe8:	ff010113          	addi	sp,sp,-16
    2fec:	4145d793          	srai	a5,a1,0x14
    2ff0:	00812423          	sw	s0,8(sp)
    2ff4:	00112623          	sw	ra,12(sp)
    2ff8:	00912223          	sw	s1,4(sp)
    2ffc:	7ff7f793          	andi	a5,a5,2047
    3000:	00058713          	mv	a4,a1
    3004:	00050693          	mv	a3,a0
    3008:	00060413          	mv	s0,a2
    300c:	0c079263          	bnez	a5,30d0 <scalbn+0xe8>
    3010:	00159793          	slli	a5,a1,0x1
    3014:	0017d793          	srli	a5,a5,0x1
    3018:	00a7e7b3          	or	a5,a5,a0
    301c:	08078c63          	beqz	a5,30b4 <scalbn+0xcc>
    3020:	00016797          	auipc	a5,0x16
    3024:	27878793          	addi	a5,a5,632 # 19298 <init_jk+0x50>
    3028:	0047a683          	lw	a3,4(a5)
    302c:	0007a603          	lw	a2,0(a5)
    3030:	728110ef          	jal	ra,14758 <__muldf3>
    3034:	ffff47b7          	lui	a5,0xffff4
    3038:	cb078793          	addi	a5,a5,-848 # ffff3cb0 <bss_end+0xfffc9180>
    303c:	00050693          	mv	a3,a0
    3040:	00058713          	mv	a4,a1
    3044:	16f44063          	blt	s0,a5,31a4 <scalbn+0x1bc>
    3048:	4145d793          	srai	a5,a1,0x14
    304c:	7ff7f793          	andi	a5,a5,2047
    3050:	00058613          	mv	a2,a1
    3054:	fca78793          	addi	a5,a5,-54
    3058:	00f407b3          	add	a5,s0,a5
    305c:	7fe00593          	li	a1,2046
    3060:	10f5c463          	blt	a1,a5,3168 <scalbn+0x180>
    3064:	10f04863          	bgtz	a5,3174 <scalbn+0x18c>
    3068:	fcb00593          	li	a1,-53
    306c:	0ab7d063          	bge	a5,a1,310c <scalbn+0x124>
    3070:	0000c7b7          	lui	a5,0xc
    3074:	35078793          	addi	a5,a5,848 # c350 <_svfprintf_r+0x708>
    3078:	0e87c863          	blt	a5,s0,3168 <scalbn+0x180>
    307c:	00016797          	auipc	a5,0x16
    3080:	22478793          	addi	a5,a5,548 # 192a0 <init_jk+0x58>
    3084:	0007a403          	lw	s0,0(a5)
    3088:	0047a483          	lw	s1,4(a5)
    308c:	00068613          	mv	a2,a3
    3090:	00040513          	mv	a0,s0
    3094:	00070693          	mv	a3,a4
    3098:	00048593          	mv	a1,s1
    309c:	140000ef          	jal	ra,31dc <copysign>
    30a0:	00048693          	mv	a3,s1
    30a4:	00040613          	mv	a2,s0
    30a8:	6b0110ef          	jal	ra,14758 <__muldf3>
    30ac:	00050693          	mv	a3,a0
    30b0:	00058713          	mv	a4,a1
    30b4:	00c12083          	lw	ra,12(sp)
    30b8:	00812403          	lw	s0,8(sp)
    30bc:	00412483          	lw	s1,4(sp)
    30c0:	00068513          	mv	a0,a3
    30c4:	00070593          	mv	a1,a4
    30c8:	01010113          	addi	sp,sp,16
    30cc:	00008067          	ret
    30d0:	7ff00813          	li	a6,2047
    30d4:	00058613          	mv	a2,a1
    30d8:	f90790e3          	bne	a5,a6,3058 <scalbn+0x70>
    30dc:	00058693          	mv	a3,a1
    30e0:	00050613          	mv	a2,a0
    30e4:	3d0100ef          	jal	ra,134b4 <__adddf3>
    30e8:	00c12083          	lw	ra,12(sp)
    30ec:	00812403          	lw	s0,8(sp)
    30f0:	00050693          	mv	a3,a0
    30f4:	00058713          	mv	a4,a1
    30f8:	00412483          	lw	s1,4(sp)
    30fc:	00068513          	mv	a0,a3
    3100:	00070593          	mv	a1,a4
    3104:	01010113          	addi	sp,sp,16
    3108:	00008067          	ret
    310c:	80100737          	lui	a4,0x80100
    3110:	fff70713          	addi	a4,a4,-1 # 800fffff <bss_end+0x800d54cf>
    3114:	03678793          	addi	a5,a5,54
    3118:	00e67633          	and	a2,a2,a4
    311c:	01479793          	slli	a5,a5,0x14
    3120:	00016717          	auipc	a4,0x16
    3124:	19070713          	addi	a4,a4,400 # 192b0 <init_jk+0x68>
    3128:	00068593          	mv	a1,a3
    312c:	00c7e7b3          	or	a5,a5,a2
    3130:	00472683          	lw	a3,4(a4)
    3134:	00072603          	lw	a2,0(a4)
    3138:	00058513          	mv	a0,a1
    313c:	00078593          	mv	a1,a5
    3140:	618110ef          	jal	ra,14758 <__muldf3>
    3144:	00c12083          	lw	ra,12(sp)
    3148:	00812403          	lw	s0,8(sp)
    314c:	00050693          	mv	a3,a0
    3150:	00058713          	mv	a4,a1
    3154:	00412483          	lw	s1,4(sp)
    3158:	00068513          	mv	a0,a3
    315c:	00070593          	mv	a1,a4
    3160:	01010113          	addi	sp,sp,16
    3164:	00008067          	ret
    3168:	00016797          	auipc	a5,0x16
    316c:	14078793          	addi	a5,a5,320 # 192a8 <init_jk+0x60>
    3170:	f15ff06f          	j	3084 <scalbn+0x9c>
    3174:	80100737          	lui	a4,0x80100
    3178:	00c12083          	lw	ra,12(sp)
    317c:	00812403          	lw	s0,8(sp)
    3180:	fff70713          	addi	a4,a4,-1 # 800fffff <bss_end+0x800d54cf>
    3184:	00e67733          	and	a4,a2,a4
    3188:	01479793          	slli	a5,a5,0x14
    318c:	00f76733          	or	a4,a4,a5
    3190:	00412483          	lw	s1,4(sp)
    3194:	00068513          	mv	a0,a3
    3198:	00070593          	mv	a1,a4
    319c:	01010113          	addi	sp,sp,16
    31a0:	00008067          	ret
    31a4:	00016797          	auipc	a5,0x16
    31a8:	0fc78793          	addi	a5,a5,252 # 192a0 <init_jk+0x58>
    31ac:	0047a683          	lw	a3,4(a5)
    31b0:	0007a603          	lw	a2,0(a5)
    31b4:	5a4110ef          	jal	ra,14758 <__muldf3>
    31b8:	00c12083          	lw	ra,12(sp)
    31bc:	00812403          	lw	s0,8(sp)
    31c0:	00050693          	mv	a3,a0
    31c4:	00058713          	mv	a4,a1
    31c8:	00412483          	lw	s1,4(sp)
    31cc:	00068513          	mv	a0,a3
    31d0:	00070593          	mv	a1,a4
    31d4:	01010113          	addi	sp,sp,16
    31d8:	00008067          	ret

Disassembly of section .text.copysign:

000031dc <copysign>:
    31dc:	80000737          	lui	a4,0x80000
    31e0:	fff74793          	not	a5,a4
    31e4:	00d776b3          	and	a3,a4,a3
    31e8:	00b7f7b3          	and	a5,a5,a1
    31ec:	00050713          	mv	a4,a0
    31f0:	00d7e7b3          	or	a5,a5,a3
    31f4:	00070513          	mv	a0,a4
    31f8:	00078593          	mv	a1,a5
    31fc:	00008067          	ret

Disassembly of section .text._printf_r:

00003200 <_printf_r>:
    3200:	fc010113          	addi	sp,sp,-64
    3204:	02c12423          	sw	a2,40(sp)
    3208:	02d12623          	sw	a3,44(sp)
    320c:	02f12a23          	sw	a5,52(sp)
    3210:	02e12823          	sw	a4,48(sp)
    3214:	03012c23          	sw	a6,56(sp)
    3218:	03112e23          	sw	a7,60(sp)
    321c:	00058613          	mv	a2,a1
    3220:	00852583          	lw	a1,8(a0)
    3224:	02810793          	addi	a5,sp,40
    3228:	00078693          	mv	a3,a5
    322c:	00112e23          	sw	ra,28(sp)
    3230:	00f12623          	sw	a5,12(sp)
    3234:	068000ef          	jal	ra,329c <_vfprintf_r>
    3238:	01c12083          	lw	ra,28(sp)
    323c:	04010113          	addi	sp,sp,64
    3240:	00008067          	ret

Disassembly of section .text.printf:

00003244 <printf>:
    3244:	00017317          	auipc	t1,0x17
    3248:	30430313          	addi	t1,t1,772 # 1a548 <_impure_ptr>
    324c:	00032303          	lw	t1,0(t1)
    3250:	fc010113          	addi	sp,sp,-64
    3254:	02c12423          	sw	a2,40(sp)
    3258:	02d12623          	sw	a3,44(sp)
    325c:	02f12a23          	sw	a5,52(sp)
    3260:	02b12223          	sw	a1,36(sp)
    3264:	02e12823          	sw	a4,48(sp)
    3268:	03012c23          	sw	a6,56(sp)
    326c:	03112e23          	sw	a7,60(sp)
    3270:	00832583          	lw	a1,8(t1)
    3274:	02410793          	addi	a5,sp,36
    3278:	00050613          	mv	a2,a0
    327c:	00078693          	mv	a3,a5
    3280:	00030513          	mv	a0,t1
    3284:	00112e23          	sw	ra,28(sp)
    3288:	00f12623          	sw	a5,12(sp)
    328c:	010000ef          	jal	ra,329c <_vfprintf_r>
    3290:	01c12083          	lw	ra,28(sp)
    3294:	04010113          	addi	sp,sp,64
    3298:	00008067          	ret

Disassembly of section .text._vfprintf_r:

0000329c <_vfprintf_r>:
    329c:	e1010113          	addi	sp,sp,-496
    32a0:	1e112623          	sw	ra,492(sp)
    32a4:	1e812423          	sw	s0,488(sp)
    32a8:	1d812423          	sw	s8,456(sp)
    32ac:	00b12223          	sw	a1,4(sp)
    32b0:	00060c13          	mv	s8,a2
    32b4:	00d12623          	sw	a3,12(sp)
    32b8:	1e912223          	sw	s1,484(sp)
    32bc:	1f212023          	sw	s2,480(sp)
    32c0:	1d312e23          	sw	s3,476(sp)
    32c4:	1d412c23          	sw	s4,472(sp)
    32c8:	1d512a23          	sw	s5,468(sp)
    32cc:	1d612823          	sw	s6,464(sp)
    32d0:	1d712623          	sw	s7,460(sp)
    32d4:	1d912223          	sw	s9,452(sp)
    32d8:	1da12023          	sw	s10,448(sp)
    32dc:	1bb12e23          	sw	s11,444(sp)
    32e0:	00050413          	mv	s0,a0
    32e4:	00a12e23          	sw	a0,28(sp)
    32e8:	7ac060ef          	jal	ra,9a94 <_localeconv_r>
    32ec:	00052783          	lw	a5,0(a0)
    32f0:	00078513          	mv	a0,a5
    32f4:	02f12823          	sw	a5,48(sp)
    32f8:	7f8080ef          	jal	ra,baf0 <strlen>
    32fc:	02a12423          	sw	a0,40(sp)
    3300:	0e012823          	sw	zero,240(sp)
    3304:	0e012a23          	sw	zero,244(sp)
    3308:	0e012c23          	sw	zero,248(sp)
    330c:	0e012e23          	sw	zero,252(sp)
    3310:	00040663          	beqz	s0,331c <_vfprintf_r+0x80>
    3314:	03842783          	lw	a5,56(s0)
    3318:	68078ae3          	beqz	a5,41ac <_vfprintf_r+0xf10>
    331c:	00412783          	lw	a5,4(sp)
    3320:	0647a683          	lw	a3,100(a5)
    3324:	00c79703          	lh	a4,12(a5)
    3328:	0016f693          	andi	a3,a3,1
    332c:	01071793          	slli	a5,a4,0x10
    3330:	0107d793          	srli	a5,a5,0x10
    3334:	00069863          	bnez	a3,3344 <_vfprintf_r+0xa8>
    3338:	2007f693          	andi	a3,a5,512
    333c:	00069463          	bnez	a3,3344 <_vfprintf_r+0xa8>
    3340:	5c80106f          	j	4908 <_vfprintf_r+0x166c>
    3344:	01279693          	slli	a3,a5,0x12
    3348:	0206c863          	bltz	a3,3378 <_vfprintf_r+0xdc>
    334c:	00412603          	lw	a2,4(sp)
    3350:	000027b7          	lui	a5,0x2
    3354:	00f767b3          	or	a5,a4,a5
    3358:	06462683          	lw	a3,100(a2)
    335c:	ffffe737          	lui	a4,0xffffe
    3360:	fff70713          	addi	a4,a4,-1 # ffffdfff <bss_end+0xfffd34cf>
    3364:	00e6f733          	and	a4,a3,a4
    3368:	00f61623          	sh	a5,12(a2)
    336c:	01079793          	slli	a5,a5,0x10
    3370:	06e62223          	sw	a4,100(a2)
    3374:	0107d793          	srli	a5,a5,0x10
    3378:	0087f713          	andi	a4,a5,8
    337c:	14070e63          	beqz	a4,34d8 <_vfprintf_r+0x23c>
    3380:	00412703          	lw	a4,4(sp)
    3384:	01072703          	lw	a4,16(a4)
    3388:	14070863          	beqz	a4,34d8 <_vfprintf_r+0x23c>
    338c:	01a7f713          	andi	a4,a5,26
    3390:	00a00693          	li	a3,10
    3394:	16d70663          	beq	a4,a3,3500 <_vfprintf_r+0x264>
    3398:	10c10793          	addi	a5,sp,268
    339c:	000c0d13          	mv	s10,s8
    33a0:	0ef12223          	sw	a5,228(sp)
    33a4:	00078d93          	mv	s11,a5
    33a8:	000d4783          	lbu	a5,0(s10)
    33ac:	0e012623          	sw	zero,236(sp)
    33b0:	0e012423          	sw	zero,232(sp)
    33b4:	00012c23          	sw	zero,24(sp)
    33b8:	02012623          	sw	zero,44(sp)
    33bc:	02012c23          	sw	zero,56(sp)
    33c0:	02012e23          	sw	zero,60(sp)
    33c4:	04012023          	sw	zero,64(sp)
    33c8:	04012223          	sw	zero,68(sp)
    33cc:	00012423          	sw	zero,8(sp)
    33d0:	01000c93          	li	s9,16
    33d4:	01c12a83          	lw	s5,28(sp)
    33d8:	66078863          	beqz	a5,3a48 <_vfprintf_r+0x7ac>
    33dc:	02500713          	li	a4,37
    33e0:	00e79463          	bne	a5,a4,33e8 <_vfprintf_r+0x14c>
    33e4:	05d0106f          	j	4c40 <_vfprintf_r+0x19a4>
    33e8:	000d0413          	mv	s0,s10
    33ec:	00c0006f          	j	33f8 <_vfprintf_r+0x15c>
    33f0:	14e78863          	beq	a5,a4,3540 <_vfprintf_r+0x2a4>
    33f4:	00048413          	mv	s0,s1
    33f8:	00144783          	lbu	a5,1(s0)
    33fc:	00140493          	addi	s1,s0,1
    3400:	fe0798e3          	bnez	a5,33f0 <_vfprintf_r+0x154>
    3404:	41a48933          	sub	s2,s1,s10
    3408:	64090063          	beqz	s2,3a48 <_vfprintf_r+0x7ac>
    340c:	0ec12703          	lw	a4,236(sp)
    3410:	0e812783          	lw	a5,232(sp)
    3414:	01ada023          	sw	s10,0(s11)
    3418:	01270733          	add	a4,a4,s2
    341c:	00178793          	addi	a5,a5,1 # 2001 <__kernel_rem_pio2+0x1cd>
    3420:	012da223          	sw	s2,4(s11)
    3424:	0ee12623          	sw	a4,236(sp)
    3428:	0ef12423          	sw	a5,232(sp)
    342c:	00700713          	li	a4,7
    3430:	008d8d93          	addi	s11,s11,8
    3434:	10f74c63          	blt	a4,a5,354c <_vfprintf_r+0x2b0>
    3438:	00812703          	lw	a4,8(sp)
    343c:	00144783          	lbu	a5,1(s0)
    3440:	01270733          	add	a4,a4,s2
    3444:	00e12423          	sw	a4,8(sp)
    3448:	60078063          	beqz	a5,3a48 <_vfprintf_r+0x7ac>
    344c:	00148913          	addi	s2,s1,1
    3450:	0014c403          	lbu	s0,1(s1)
    3454:	0c0103a3          	sb	zero,199(sp)
    3458:	fff00b13          	li	s6,-1
    345c:	00000493          	li	s1,0
    3460:	00000993          	li	s3,0
    3464:	00900a13          	li	s4,9
    3468:	02a00b93          	li	s7,42
    346c:	00190913          	addi	s2,s2,1 # bff00001 <bss_end+0xbfed54d1>
    3470:	05a00713          	li	a4,90
    3474:	fe040793          	addi	a5,s0,-32
    3478:	26f76e63          	bltu	a4,a5,36f4 <_vfprintf_r+0x458>
    347c:	00016697          	auipc	a3,0x16
    3480:	e3c68693          	addi	a3,a3,-452 # 192b8 <init_jk+0x70>
    3484:	00279793          	slli	a5,a5,0x2
    3488:	00d787b3          	add	a5,a5,a3
    348c:	0007a783          	lw	a5,0(a5)
    3490:	00d787b3          	add	a5,a5,a3
    3494:	00078067          	jr	a5
    3498:	000a8513          	mv	a0,s5
    349c:	5f8060ef          	jal	ra,9a94 <_localeconv_r>
    34a0:	00452783          	lw	a5,4(a0)
    34a4:	00078513          	mv	a0,a5
    34a8:	04f12223          	sw	a5,68(sp)
    34ac:	644080ef          	jal	ra,baf0 <strlen>
    34b0:	04a12023          	sw	a0,64(sp)
    34b4:	00050413          	mv	s0,a0
    34b8:	000a8513          	mv	a0,s5
    34bc:	5d8060ef          	jal	ra,9a94 <_localeconv_r>
    34c0:	00852783          	lw	a5,8(a0)
    34c4:	02f12e23          	sw	a5,60(sp)
    34c8:	00040463          	beqz	s0,34d0 <_vfprintf_r+0x234>
    34cc:	53c0106f          	j	4a08 <_vfprintf_r+0x176c>
    34d0:	00094403          	lbu	s0,0(s2)
    34d4:	f99ff06f          	j	346c <_vfprintf_r+0x1d0>
    34d8:	00412403          	lw	s0,4(sp)
    34dc:	01c12503          	lw	a0,28(sp)
    34e0:	00040593          	mv	a1,s0
    34e4:	375020ef          	jal	ra,6058 <__swsetup_r>
    34e8:	00050463          	beqz	a0,34f0 <_vfprintf_r+0x254>
    34ec:	0e50206f          	j	5dd0 <_vfprintf_r+0x2b34>
    34f0:	00c45783          	lhu	a5,12(s0)
    34f4:	00a00693          	li	a3,10
    34f8:	01a7f713          	andi	a4,a5,26
    34fc:	e8d71ee3          	bne	a4,a3,3398 <_vfprintf_r+0xfc>
    3500:	00412683          	lw	a3,4(sp)
    3504:	00e69703          	lh	a4,14(a3)
    3508:	e80748e3          	bltz	a4,3398 <_vfprintf_r+0xfc>
    350c:	0646a703          	lw	a4,100(a3)
    3510:	00177713          	andi	a4,a4,1
    3514:	00071863          	bnez	a4,3524 <_vfprintf_r+0x288>
    3518:	2007f793          	andi	a5,a5,512
    351c:	00079463          	bnez	a5,3524 <_vfprintf_r+0x288>
    3520:	3c90106f          	j	50e8 <_vfprintf_r+0x1e4c>
    3524:	00c12683          	lw	a3,12(sp)
    3528:	00412583          	lw	a1,4(sp)
    352c:	01c12503          	lw	a0,28(sp)
    3530:	000c0613          	mv	a2,s8
    3534:	14d020ef          	jal	ra,5e80 <__sbprintf>
    3538:	00a12423          	sw	a0,8(sp)
    353c:	0740006f          	j	35b0 <_vfprintf_r+0x314>
    3540:	41a48933          	sub	s2,s1,s10
    3544:	f00904e3          	beqz	s2,344c <_vfprintf_r+0x1b0>
    3548:	ec5ff06f          	j	340c <_vfprintf_r+0x170>
    354c:	00412583          	lw	a1,4(sp)
    3550:	0e410613          	addi	a2,sp,228
    3554:	000a8513          	mv	a0,s5
    3558:	2a40b0ef          	jal	ra,e7fc <__sprint_r>
    355c:	02051a63          	bnez	a0,3590 <_vfprintf_r+0x2f4>
    3560:	10c10d93          	addi	s11,sp,268
    3564:	ed5ff06f          	j	3438 <_vfprintf_r+0x19c>
    3568:	00412583          	lw	a1,4(sp)
    356c:	0e410613          	addi	a2,sp,228
    3570:	000a8513          	mv	a0,s5
    3574:	2880b0ef          	jal	ra,e7fc <__sprint_r>
    3578:	4a050463          	beqz	a0,3a20 <_vfprintf_r+0x784>
    357c:	01012783          	lw	a5,16(sp)
    3580:	00078863          	beqz	a5,3590 <_vfprintf_r+0x2f4>
    3584:	01c12503          	lw	a0,28(sp)
    3588:	00078593          	mv	a1,a5
    358c:	4e8030ef          	jal	ra,6a74 <_free_r>
    3590:	00412783          	lw	a5,4(sp)
    3594:	0647a703          	lw	a4,100(a5)
    3598:	00c7d783          	lhu	a5,12(a5)
    359c:	00177713          	andi	a4,a4,1
    35a0:	04070e63          	beqz	a4,35fc <_vfprintf_r+0x360>
    35a4:	0407f793          	andi	a5,a5,64
    35a8:	00078463          	beqz	a5,35b0 <_vfprintf_r+0x314>
    35ac:	4040206f          	j	59b0 <_vfprintf_r+0x2714>
    35b0:	1ec12083          	lw	ra,492(sp)
    35b4:	1e812403          	lw	s0,488(sp)
    35b8:	00812503          	lw	a0,8(sp)
    35bc:	1e412483          	lw	s1,484(sp)
    35c0:	1e012903          	lw	s2,480(sp)
    35c4:	1dc12983          	lw	s3,476(sp)
    35c8:	1d812a03          	lw	s4,472(sp)
    35cc:	1d412a83          	lw	s5,468(sp)
    35d0:	1d012b03          	lw	s6,464(sp)
    35d4:	1cc12b83          	lw	s7,460(sp)
    35d8:	1c812c03          	lw	s8,456(sp)
    35dc:	1c412c83          	lw	s9,452(sp)
    35e0:	1c012d03          	lw	s10,448(sp)
    35e4:	1bc12d83          	lw	s11,444(sp)
    35e8:	1f010113          	addi	sp,sp,496
    35ec:	00008067          	ret
    35f0:	0209e993          	ori	s3,s3,32
    35f4:	00094403          	lbu	s0,0(s2)
    35f8:	e75ff06f          	j	346c <_vfprintf_r+0x1d0>
    35fc:	2007f713          	andi	a4,a5,512
    3600:	fa0712e3          	bnez	a4,35a4 <_vfprintf_r+0x308>
    3604:	00412403          	lw	s0,4(sp)
    3608:	05842503          	lw	a0,88(s0)
    360c:	50c060ef          	jal	ra,9b18 <__retarget_lock_release_recursive>
    3610:	00c45783          	lhu	a5,12(s0)
    3614:	f91ff06f          	j	35a4 <_vfprintf_r+0x308>
    3618:	00016797          	auipc	a5,0x16
    361c:	e3078793          	addi	a5,a5,-464 # 19448 <init_jk+0x200>
    3620:	02f12623          	sw	a5,44(sp)
    3624:	0209f793          	andi	a5,s3,32
    3628:	0e078863          	beqz	a5,3718 <_vfprintf_r+0x47c>
    362c:	00c12783          	lw	a5,12(sp)
    3630:	00778793          	addi	a5,a5,7
    3634:	ff87f793          	andi	a5,a5,-8
    3638:	0007ac03          	lw	s8,0(a5)
    363c:	0047ab83          	lw	s7,4(a5)
    3640:	00878713          	addi	a4,a5,8
    3644:	00e12623          	sw	a4,12(sp)
    3648:	0019f713          	andi	a4,s3,1
    364c:	00070863          	beqz	a4,365c <_vfprintf_r+0x3c0>
    3650:	017c6733          	or	a4,s8,s7
    3654:	00070463          	beqz	a4,365c <_vfprintf_r+0x3c0>
    3658:	3940106f          	j	49ec <_vfprintf_r+0x1750>
    365c:	bff9fa13          	andi	s4,s3,-1025
    3660:	00200713          	li	a4,2
    3664:	0c0103a3          	sb	zero,199(sp)
    3668:	fff00693          	li	a3,-1
    366c:	1edb06e3          	beq	s6,a3,4058 <_vfprintf_r+0xdbc>
    3670:	017c66b3          	or	a3,s8,s7
    3674:	f7fa7993          	andi	s3,s4,-129
    3678:	00068463          	beqz	a3,3680 <_vfprintf_r+0x3e4>
    367c:	0580106f          	j	46d4 <_vfprintf_r+0x1438>
    3680:	3c0b1ce3          	bnez	s6,4258 <_vfprintf_r+0xfbc>
    3684:	26071063          	bnez	a4,38e4 <_vfprintf_r+0x648>
    3688:	001a7b93          	andi	s7,s4,1
    368c:	1b010d13          	addi	s10,sp,432
    3690:	000b8463          	beqz	s7,3698 <_vfprintf_r+0x3fc>
    3694:	3380106f          	j	49cc <_vfprintf_r+0x1730>
    3698:	0c714703          	lbu	a4,199(sp)
    369c:	000b8a13          	mv	s4,s7
    36a0:	016bd463          	bge	s7,s6,36a8 <_vfprintf_r+0x40c>
    36a4:	000b0a13          	mv	s4,s6
    36a8:	00012823          	sw	zero,16(sp)
    36ac:	02012223          	sw	zero,36(sp)
    36b0:	02012023          	sw	zero,32(sp)
    36b4:	00012a23          	sw	zero,20(sp)
    36b8:	26070c63          	beqz	a4,3930 <_vfprintf_r+0x694>
    36bc:	001a0a13          	addi	s4,s4,1
    36c0:	2700006f          	j	3930 <_vfprintf_r+0x694>
    36c4:	00000493          	li	s1,0
    36c8:	fd040693          	addi	a3,s0,-48
    36cc:	00190913          	addi	s2,s2,1
    36d0:	00249793          	slli	a5,s1,0x2
    36d4:	fff94403          	lbu	s0,-1(s2)
    36d8:	009787b3          	add	a5,a5,s1
    36dc:	00179793          	slli	a5,a5,0x1
    36e0:	00f684b3          	add	s1,a3,a5
    36e4:	fd040693          	addi	a3,s0,-48
    36e8:	feda72e3          	bgeu	s4,a3,36cc <_vfprintf_r+0x430>
    36ec:	fe040793          	addi	a5,s0,-32
    36f0:	d8f776e3          	bgeu	a4,a5,347c <_vfprintf_r+0x1e0>
    36f4:	34040a63          	beqz	s0,3a48 <_vfprintf_r+0x7ac>
    36f8:	14810623          	sb	s0,332(sp)
    36fc:	0c0103a3          	sb	zero,199(sp)
    3700:	20c0006f          	j	390c <_vfprintf_r+0x670>
    3704:	00016797          	auipc	a5,0x16
    3708:	d3078793          	addi	a5,a5,-720 # 19434 <init_jk+0x1ec>
    370c:	02f12623          	sw	a5,44(sp)
    3710:	0209f793          	andi	a5,s3,32
    3714:	f0079ce3          	bnez	a5,362c <_vfprintf_r+0x390>
    3718:	00c12703          	lw	a4,12(sp)
    371c:	0109f793          	andi	a5,s3,16
    3720:	00072c03          	lw	s8,0(a4)
    3724:	00470713          	addi	a4,a4,4
    3728:	00e12623          	sw	a4,12(sp)
    372c:	00078463          	beqz	a5,3734 <_vfprintf_r+0x498>
    3730:	2b40106f          	j	49e4 <_vfprintf_r+0x1748>
    3734:	0409f793          	andi	a5,s3,64
    3738:	00079463          	bnez	a5,3740 <_vfprintf_r+0x4a4>
    373c:	2a00106f          	j	49dc <_vfprintf_r+0x1740>
    3740:	010c1c13          	slli	s8,s8,0x10
    3744:	010c5c13          	srli	s8,s8,0x10
    3748:	00000b93          	li	s7,0
    374c:	efdff06f          	j	3648 <_vfprintf_r+0x3ac>
    3750:	00094403          	lbu	s0,0(s2)
    3754:	0049e993          	ori	s3,s3,4
    3758:	d15ff06f          	j	346c <_vfprintf_r+0x1d0>
    375c:	00094403          	lbu	s0,0(s2)
    3760:	00190793          	addi	a5,s2,1
    3764:	01741463          	bne	s0,s7,376c <_vfprintf_r+0x4d0>
    3768:	6a00206f          	j	5e08 <_vfprintf_r+0x2b6c>
    376c:	fd040693          	addi	a3,s0,-48
    3770:	00078913          	mv	s2,a5
    3774:	00000b13          	li	s6,0
    3778:	ceda6ee3          	bltu	s4,a3,3474 <_vfprintf_r+0x1d8>
    377c:	00190913          	addi	s2,s2,1
    3780:	002b1793          	slli	a5,s6,0x2
    3784:	fff94403          	lbu	s0,-1(s2)
    3788:	016787b3          	add	a5,a5,s6
    378c:	00179793          	slli	a5,a5,0x1
    3790:	00d78b33          	add	s6,a5,a3
    3794:	fd040693          	addi	a3,s0,-48
    3798:	feda72e3          	bgeu	s4,a3,377c <_vfprintf_r+0x4e0>
    379c:	cd9ff06f          	j	3474 <_vfprintf_r+0x1d8>
    37a0:	02b00793          	li	a5,43
    37a4:	0cf103a3          	sb	a5,199(sp)
    37a8:	00094403          	lbu	s0,0(s2)
    37ac:	cc1ff06f          	j	346c <_vfprintf_r+0x1d0>
    37b0:	00c12783          	lw	a5,12(sp)
    37b4:	00094403          	lbu	s0,0(s2)
    37b8:	0007a483          	lw	s1,0(a5)
    37bc:	00478793          	addi	a5,a5,4
    37c0:	00f12623          	sw	a5,12(sp)
    37c4:	ca04d4e3          	bgez	s1,346c <_vfprintf_r+0x1d0>
    37c8:	409004b3          	neg	s1,s1
    37cc:	0049e993          	ori	s3,s3,4
    37d0:	c9dff06f          	j	346c <_vfprintf_r+0x1d0>
    37d4:	0019e993          	ori	s3,s3,1
    37d8:	00094403          	lbu	s0,0(s2)
    37dc:	c91ff06f          	j	346c <_vfprintf_r+0x1d0>
    37e0:	0809e993          	ori	s3,s3,128
    37e4:	00094403          	lbu	s0,0(s2)
    37e8:	c85ff06f          	j	346c <_vfprintf_r+0x1d0>
    37ec:	0209f793          	andi	a5,s3,32
    37f0:	0109ea13          	ori	s4,s3,16
    37f4:	1c0794e3          	bnez	a5,41bc <_vfprintf_r+0xf20>
    37f8:	00c12783          	lw	a5,12(sp)
    37fc:	00478713          	addi	a4,a5,4
    3800:	00c12783          	lw	a5,12(sp)
    3804:	00000b93          	li	s7,0
    3808:	00e12623          	sw	a4,12(sp)
    380c:	0007ac03          	lw	s8,0(a5)
    3810:	00100713          	li	a4,1
    3814:	e51ff06f          	j	3664 <_vfprintf_r+0x3c8>
    3818:	00c12783          	lw	a5,12(sp)
    381c:	0c0103a3          	sb	zero,199(sp)
    3820:	0007ad03          	lw	s10,0(a5)
    3824:	00478c13          	addi	s8,a5,4
    3828:	000d1463          	bnez	s10,3830 <_vfprintf_r+0x594>
    382c:	3dc0106f          	j	4c08 <_vfprintf_r+0x196c>
    3830:	fff00793          	li	a5,-1
    3834:	00fb1463          	bne	s6,a5,383c <_vfprintf_r+0x5a0>
    3838:	69c0106f          	j	4ed4 <_vfprintf_r+0x1c38>
    383c:	000b0613          	mv	a2,s6
    3840:	00000593          	li	a1,0
    3844:	000d0513          	mv	a0,s10
    3848:	501060ef          	jal	ra,a548 <memchr>
    384c:	00a12823          	sw	a0,16(sp)
    3850:	00051463          	bnez	a0,3858 <_vfprintf_r+0x5bc>
    3854:	0a80206f          	j	58fc <_vfprintf_r+0x2660>
    3858:	01012783          	lw	a5,16(sp)
    385c:	41a78bb3          	sub	s7,a5,s10
    3860:	0c714703          	lbu	a4,199(sp)
    3864:	fffbca13          	not	s4,s7
    3868:	41fa5a13          	srai	s4,s4,0x1f
    386c:	01812623          	sw	s8,12(sp)
    3870:	00012823          	sw	zero,16(sp)
    3874:	02012223          	sw	zero,36(sp)
    3878:	02012023          	sw	zero,32(sp)
    387c:	00012a23          	sw	zero,20(sp)
    3880:	014bfa33          	and	s4,s7,s4
    3884:	00000b13          	li	s6,0
    3888:	0a070463          	beqz	a4,3930 <_vfprintf_r+0x694>
    388c:	e31ff06f          	j	36bc <_vfprintf_r+0x420>
    3890:	0089e993          	ori	s3,s3,8
    3894:	00094403          	lbu	s0,0(s2)
    3898:	bd5ff06f          	j	346c <_vfprintf_r+0x1d0>
    389c:	0209f793          	andi	a5,s3,32
    38a0:	0109ea13          	ori	s4,s3,16
    38a4:	140790e3          	bnez	a5,41e4 <_vfprintf_r+0xf48>
    38a8:	00c12783          	lw	a5,12(sp)
    38ac:	00478713          	addi	a4,a5,4
    38b0:	00c12783          	lw	a5,12(sp)
    38b4:	00e12623          	sw	a4,12(sp)
    38b8:	0007ac03          	lw	s8,0(a5)
    38bc:	41fc5b93          	srai	s7,s8,0x1f
    38c0:	000b8713          	mv	a4,s7
    38c4:	76074863          	bltz	a4,4034 <_vfprintf_r+0xd98>
    38c8:	fff00713          	li	a4,-1
    38cc:	16eb04e3          	beq	s6,a4,4234 <_vfprintf_r+0xf98>
    38d0:	017c6733          	or	a4,s8,s7
    38d4:	f7fa7993          	andi	s3,s4,-129
    38d8:	14071ce3          	bnez	a4,4230 <_vfprintf_r+0xf94>
    38dc:	000b0463          	beqz	s6,38e4 <_vfprintf_r+0x648>
    38e0:	3dd0106f          	j	54bc <_vfprintf_r+0x2220>
    38e4:	00000b13          	li	s6,0
    38e8:	00000b93          	li	s7,0
    38ec:	1b010d13          	addi	s10,sp,432
    38f0:	da9ff06f          	j	3698 <_vfprintf_r+0x3fc>
    38f4:	00c12703          	lw	a4,12(sp)
    38f8:	0c0103a3          	sb	zero,199(sp)
    38fc:	00072783          	lw	a5,0(a4)
    3900:	00470713          	addi	a4,a4,4
    3904:	00e12623          	sw	a4,12(sp)
    3908:	14f10623          	sb	a5,332(sp)
    390c:	00100a13          	li	s4,1
    3910:	00000713          	li	a4,0
    3914:	00012823          	sw	zero,16(sp)
    3918:	00100b93          	li	s7,1
    391c:	00000b13          	li	s6,0
    3920:	02012223          	sw	zero,36(sp)
    3924:	02012023          	sw	zero,32(sp)
    3928:	00012a23          	sw	zero,20(sp)
    392c:	14c10d13          	addi	s10,sp,332
    3930:	0029ff13          	andi	t5,s3,2
    3934:	000f0463          	beqz	t5,393c <_vfprintf_r+0x6a0>
    3938:	002a0a13          	addi	s4,s4,2
    393c:	0849fe93          	andi	t4,s3,132
    3940:	0ec12783          	lw	a5,236(sp)
    3944:	000e9663          	bnez	t4,3950 <_vfprintf_r+0x6b4>
    3948:	414486b3          	sub	a3,s1,s4
    394c:	10d04863          	bgtz	a3,3a5c <_vfprintf_r+0x7c0>
    3950:	02070a63          	beqz	a4,3984 <_vfprintf_r+0x6e8>
    3954:	0e812703          	lw	a4,232(sp)
    3958:	0c710693          	addi	a3,sp,199
    395c:	00dda023          	sw	a3,0(s11)
    3960:	00178793          	addi	a5,a5,1
    3964:	00100693          	li	a3,1
    3968:	00170713          	addi	a4,a4,1
    396c:	00dda223          	sw	a3,4(s11)
    3970:	0ef12623          	sw	a5,236(sp)
    3974:	0ee12423          	sw	a4,232(sp)
    3978:	00700693          	li	a3,7
    397c:	008d8d93          	addi	s11,s11,8
    3980:	1ee6c263          	blt	a3,a4,3b64 <_vfprintf_r+0x8c8>
    3984:	020f0a63          	beqz	t5,39b8 <_vfprintf_r+0x71c>
    3988:	0e812703          	lw	a4,232(sp)
    398c:	0c810693          	addi	a3,sp,200
    3990:	00dda023          	sw	a3,0(s11)
    3994:	00278793          	addi	a5,a5,2
    3998:	00200693          	li	a3,2
    399c:	00170713          	addi	a4,a4,1
    39a0:	00dda223          	sw	a3,4(s11)
    39a4:	0ef12623          	sw	a5,236(sp)
    39a8:	0ee12423          	sw	a4,232(sp)
    39ac:	00700693          	li	a3,7
    39b0:	008d8d93          	addi	s11,s11,8
    39b4:	52e6c4e3          	blt	a3,a4,46dc <_vfprintf_r+0x1440>
    39b8:	08000713          	li	a4,128
    39bc:	24ee80e3          	beq	t4,a4,43fc <_vfprintf_r+0x1160>
    39c0:	417b0b33          	sub	s6,s6,s7
    39c4:	336046e3          	bgtz	s6,44f0 <_vfprintf_r+0x1254>
    39c8:	1009f713          	andi	a4,s3,256
    39cc:	0e0714e3          	bnez	a4,42b4 <_vfprintf_r+0x1018>
    39d0:	0e812703          	lw	a4,232(sp)
    39d4:	017787b3          	add	a5,a5,s7
    39d8:	01ada023          	sw	s10,0(s11)
    39dc:	00170713          	addi	a4,a4,1
    39e0:	017da223          	sw	s7,4(s11)
    39e4:	0ef12623          	sw	a5,236(sp)
    39e8:	0ee12423          	sw	a4,232(sp)
    39ec:	00700693          	li	a3,7
    39f0:	1ee6c663          	blt	a3,a4,3bdc <_vfprintf_r+0x940>
    39f4:	008d8d93          	addi	s11,s11,8
    39f8:	0049f993          	andi	s3,s3,4
    39fc:	00098663          	beqz	s3,3a08 <_vfprintf_r+0x76c>
    3a00:	41448433          	sub	s0,s1,s4
    3a04:	1e804c63          	bgtz	s0,3bfc <_vfprintf_r+0x960>
    3a08:	0144d463          	bge	s1,s4,3a10 <_vfprintf_r+0x774>
    3a0c:	000a0493          	mv	s1,s4
    3a10:	00812703          	lw	a4,8(sp)
    3a14:	00970733          	add	a4,a4,s1
    3a18:	00e12423          	sw	a4,8(sp)
    3a1c:	b40796e3          	bnez	a5,3568 <_vfprintf_r+0x2cc>
    3a20:	01012783          	lw	a5,16(sp)
    3a24:	0e012423          	sw	zero,232(sp)
    3a28:	00078863          	beqz	a5,3a38 <_vfprintf_r+0x79c>
    3a2c:	01012583          	lw	a1,16(sp)
    3a30:	000a8513          	mv	a0,s5
    3a34:	040030ef          	jal	ra,6a74 <_free_r>
    3a38:	10c10d93          	addi	s11,sp,268
    3a3c:	00090d13          	mv	s10,s2
    3a40:	000d4783          	lbu	a5,0(s10)
    3a44:	98079ce3          	bnez	a5,33dc <_vfprintf_r+0x140>
    3a48:	0ec12783          	lw	a5,236(sp)
    3a4c:	00078463          	beqz	a5,3a54 <_vfprintf_r+0x7b8>
    3a50:	6480106f          	j	5098 <_vfprintf_r+0x1dfc>
    3a54:	0e012423          	sw	zero,232(sp)
    3a58:	b39ff06f          	j	3590 <_vfprintf_r+0x2f4>
    3a5c:	0e812703          	lw	a4,232(sp)
    3a60:	00016c17          	auipc	s8,0x16
    3a64:	a08c0c13          	addi	s8,s8,-1528 # 19468 <blanks.4533>
    3a68:	0cdcd663          	bge	s9,a3,3b34 <_vfprintf_r+0x898>
    3a6c:	05212623          	sw	s2,76(sp)
    3a70:	000d8613          	mv	a2,s11
    3a74:	000c0913          	mv	s2,s8
    3a78:	000d0d93          	mv	s11,s10
    3a7c:	000a0c13          	mv	s8,s4
    3a80:	000b8d13          	mv	s10,s7
    3a84:	00098a13          	mv	s4,s3
    3a88:	000b0b93          	mv	s7,s6
    3a8c:	00040993          	mv	s3,s0
    3a90:	00048b13          	mv	s6,s1
    3a94:	00700f93          	li	t6,7
    3a98:	03e12a23          	sw	t5,52(sp)
    3a9c:	05d12423          	sw	t4,72(sp)
    3aa0:	00412483          	lw	s1,4(sp)
    3aa4:	00068413          	mv	s0,a3
    3aa8:	00c0006f          	j	3ab4 <_vfprintf_r+0x818>
    3aac:	ff040413          	addi	s0,s0,-16
    3ab0:	048cd863          	bge	s9,s0,3b00 <_vfprintf_r+0x864>
    3ab4:	01078793          	addi	a5,a5,16
    3ab8:	00170713          	addi	a4,a4,1
    3abc:	01262023          	sw	s2,0(a2)
    3ac0:	01962223          	sw	s9,4(a2)
    3ac4:	0ef12623          	sw	a5,236(sp)
    3ac8:	0ee12423          	sw	a4,232(sp)
    3acc:	00860613          	addi	a2,a2,8
    3ad0:	fcefdee3          	bge	t6,a4,3aac <_vfprintf_r+0x810>
    3ad4:	0e410613          	addi	a2,sp,228
    3ad8:	00048593          	mv	a1,s1
    3adc:	000a8513          	mv	a0,s5
    3ae0:	51d0a0ef          	jal	ra,e7fc <__sprint_r>
    3ae4:	a8051ce3          	bnez	a0,357c <_vfprintf_r+0x2e0>
    3ae8:	ff040413          	addi	s0,s0,-16
    3aec:	0ec12783          	lw	a5,236(sp)
    3af0:	0e812703          	lw	a4,232(sp)
    3af4:	10c10613          	addi	a2,sp,268
    3af8:	00700f93          	li	t6,7
    3afc:	fa8ccce3          	blt	s9,s0,3ab4 <_vfprintf_r+0x818>
    3b00:	00040693          	mv	a3,s0
    3b04:	03412f03          	lw	t5,52(sp)
    3b08:	00098413          	mv	s0,s3
    3b0c:	04812e83          	lw	t4,72(sp)
    3b10:	000a0993          	mv	s3,s4
    3b14:	000c0a13          	mv	s4,s8
    3b18:	00090c13          	mv	s8,s2
    3b1c:	04c12903          	lw	s2,76(sp)
    3b20:	000b0493          	mv	s1,s6
    3b24:	000b8b13          	mv	s6,s7
    3b28:	000d0b93          	mv	s7,s10
    3b2c:	000d8d13          	mv	s10,s11
    3b30:	00060d93          	mv	s11,a2
    3b34:	00d787b3          	add	a5,a5,a3
    3b38:	00170713          	addi	a4,a4,1
    3b3c:	00dda223          	sw	a3,4(s11)
    3b40:	018da023          	sw	s8,0(s11)
    3b44:	0ef12623          	sw	a5,236(sp)
    3b48:	0ee12423          	sw	a4,232(sp)
    3b4c:	00700693          	li	a3,7
    3b50:	00e6d463          	bge	a3,a4,3b58 <_vfprintf_r+0x8bc>
    3b54:	1440106f          	j	4c98 <_vfprintf_r+0x19fc>
    3b58:	008d8d93          	addi	s11,s11,8
    3b5c:	0c714703          	lbu	a4,199(sp)
    3b60:	df1ff06f          	j	3950 <_vfprintf_r+0x6b4>
    3b64:	00412583          	lw	a1,4(sp)
    3b68:	0e410613          	addi	a2,sp,228
    3b6c:	000a8513          	mv	a0,s5
    3b70:	05d12423          	sw	t4,72(sp)
    3b74:	03e12a23          	sw	t5,52(sp)
    3b78:	4850a0ef          	jal	ra,e7fc <__sprint_r>
    3b7c:	a00510e3          	bnez	a0,357c <_vfprintf_r+0x2e0>
    3b80:	0ec12783          	lw	a5,236(sp)
    3b84:	10c10d93          	addi	s11,sp,268
    3b88:	04812e83          	lw	t4,72(sp)
    3b8c:	03412f03          	lw	t5,52(sp)
    3b90:	df5ff06f          	j	3984 <_vfprintf_r+0x6e8>
    3b94:	0019f613          	andi	a2,s3,1
    3b98:	260610e3          	bnez	a2,45f8 <_vfprintf_r+0x135c>
    3b9c:	00eda223          	sw	a4,4(s11)
    3ba0:	0f812623          	sw	s8,236(sp)
    3ba4:	0e812423          	sw	s0,232(sp)
    3ba8:	00700713          	li	a4,7
    3bac:	70874ce3          	blt	a4,s0,4ac4 <_vfprintf_r+0x1828>
    3bb0:	00268b13          	addi	s6,a3,2
    3bb4:	010d8d93          	addi	s11,s11,16
    3bb8:	03812683          	lw	a3,56(sp)
    3bbc:	0d410713          	addi	a4,sp,212
    3bc0:	00eba023          	sw	a4,0(s7)
    3bc4:	018687b3          	add	a5,a3,s8
    3bc8:	00dba223          	sw	a3,4(s7)
    3bcc:	0ef12623          	sw	a5,236(sp)
    3bd0:	0f612423          	sw	s6,232(sp)
    3bd4:	00700713          	li	a4,7
    3bd8:	e36750e3          	bge	a4,s6,39f8 <_vfprintf_r+0x75c>
    3bdc:	00412583          	lw	a1,4(sp)
    3be0:	0e410613          	addi	a2,sp,228
    3be4:	000a8513          	mv	a0,s5
    3be8:	4150a0ef          	jal	ra,e7fc <__sprint_r>
    3bec:	980518e3          	bnez	a0,357c <_vfprintf_r+0x2e0>
    3bf0:	0ec12783          	lw	a5,236(sp)
    3bf4:	10c10d93          	addi	s11,sp,268
    3bf8:	e01ff06f          	j	39f8 <_vfprintf_r+0x75c>
    3bfc:	0e812703          	lw	a4,232(sp)
    3c00:	00016c17          	auipc	s8,0x16
    3c04:	868c0c13          	addi	s8,s8,-1944 # 19468 <blanks.4533>
    3c08:	068cd063          	bge	s9,s0,3c68 <_vfprintf_r+0x9cc>
    3c0c:	00700993          	li	s3,7
    3c10:	00412b03          	lw	s6,4(sp)
    3c14:	00c0006f          	j	3c20 <_vfprintf_r+0x984>
    3c18:	ff040413          	addi	s0,s0,-16
    3c1c:	048cd663          	bge	s9,s0,3c68 <_vfprintf_r+0x9cc>
    3c20:	01078793          	addi	a5,a5,16
    3c24:	00170713          	addi	a4,a4,1
    3c28:	018da023          	sw	s8,0(s11)
    3c2c:	019da223          	sw	s9,4(s11)
    3c30:	0ef12623          	sw	a5,236(sp)
    3c34:	0ee12423          	sw	a4,232(sp)
    3c38:	008d8d93          	addi	s11,s11,8
    3c3c:	fce9dee3          	bge	s3,a4,3c18 <_vfprintf_r+0x97c>
    3c40:	0e410613          	addi	a2,sp,228
    3c44:	000b0593          	mv	a1,s6
    3c48:	000a8513          	mv	a0,s5
    3c4c:	3b10a0ef          	jal	ra,e7fc <__sprint_r>
    3c50:	920516e3          	bnez	a0,357c <_vfprintf_r+0x2e0>
    3c54:	ff040413          	addi	s0,s0,-16
    3c58:	0ec12783          	lw	a5,236(sp)
    3c5c:	0e812703          	lw	a4,232(sp)
    3c60:	10c10d93          	addi	s11,sp,268
    3c64:	fa8ccee3          	blt	s9,s0,3c20 <_vfprintf_r+0x984>
    3c68:	008787b3          	add	a5,a5,s0
    3c6c:	00170713          	addi	a4,a4,1
    3c70:	018da023          	sw	s8,0(s11)
    3c74:	008da223          	sw	s0,4(s11)
    3c78:	0ef12623          	sw	a5,236(sp)
    3c7c:	0ee12423          	sw	a4,232(sp)
    3c80:	00700693          	li	a3,7
    3c84:	d8e6d2e3          	bge	a3,a4,3a08 <_vfprintf_r+0x76c>
    3c88:	00412583          	lw	a1,4(sp)
    3c8c:	0e410613          	addi	a2,sp,228
    3c90:	000a8513          	mv	a0,s5
    3c94:	3690a0ef          	jal	ra,e7fc <__sprint_r>
    3c98:	8e0512e3          	bnez	a0,357c <_vfprintf_r+0x2e0>
    3c9c:	0ec12783          	lw	a5,236(sp)
    3ca0:	d69ff06f          	j	3a08 <_vfprintf_r+0x76c>
    3ca4:	0209f793          	andi	a5,s3,32
    3ca8:	0109e993          	ori	s3,s3,16
    3cac:	54079e63          	bnez	a5,4208 <_vfprintf_r+0xf6c>
    3cb0:	00c12783          	lw	a5,12(sp)
    3cb4:	00478713          	addi	a4,a5,4
    3cb8:	00c12783          	lw	a5,12(sp)
    3cbc:	00000b93          	li	s7,0
    3cc0:	00e12623          	sw	a4,12(sp)
    3cc4:	0007ac03          	lw	s8,0(a5)
    3cc8:	55c0006f          	j	4224 <_vfprintf_r+0xf88>
    3ccc:	0089f793          	andi	a5,s3,8
    3cd0:	54078ee3          	beqz	a5,4a2c <_vfprintf_r+0x1790>
    3cd4:	00c12703          	lw	a4,12(sp)
    3cd8:	00072783          	lw	a5,0(a4)
    3cdc:	00470713          	addi	a4,a4,4
    3ce0:	00e12623          	sw	a4,12(sp)
    3ce4:	0007a603          	lw	a2,0(a5)
    3ce8:	0047a683          	lw	a3,4(a5)
    3cec:	0087a703          	lw	a4,8(a5)
    3cf0:	00c7a783          	lw	a5,12(a5)
    3cf4:	0ec12823          	sw	a2,240(sp)
    3cf8:	0ed12a23          	sw	a3,244(sp)
    3cfc:	0ee12c23          	sw	a4,248(sp)
    3d00:	0ef12e23          	sw	a5,252(sp)
    3d04:	0f010513          	addi	a0,sp,240
    3d08:	521050ef          	jal	ra,9a28 <_ldcheck>
    3d0c:	0ca12623          	sw	a0,204(sp)
    3d10:	00200793          	li	a5,2
    3d14:	00f51463          	bne	a0,a5,3d1c <_vfprintf_r+0xa80>
    3d18:	0080106f          	j	4d20 <_vfprintf_r+0x1a84>
    3d1c:	00100793          	li	a5,1
    3d20:	00f51463          	bne	a0,a5,3d28 <_vfprintf_r+0xa8c>
    3d24:	21c0106f          	j	4f40 <_vfprintf_r+0x1ca4>
    3d28:	06100793          	li	a5,97
    3d2c:	00f41463          	bne	s0,a5,3d34 <_vfprintf_r+0xa98>
    3d30:	5dd0106f          	j	5b0c <_vfprintf_r+0x2870>
    3d34:	04100793          	li	a5,65
    3d38:	00f41463          	bne	s0,a5,3d40 <_vfprintf_r+0xaa4>
    3d3c:	3b80106f          	j	50f4 <_vfprintf_r+0x1e58>
    3d40:	fdf47713          	andi	a4,s0,-33
    3d44:	fff00793          	li	a5,-1
    3d48:	04e12423          	sw	a4,72(sp)
    3d4c:	00fb1463          	bne	s6,a5,3d54 <_vfprintf_r+0xab8>
    3d50:	5dd0106f          	j	5b2c <_vfprintf_r+0x2890>
    3d54:	04700793          	li	a5,71
    3d58:	00f71463          	bne	a4,a5,3d60 <_vfprintf_r+0xac4>
    3d5c:	5c10106f          	j	5b1c <_vfprintf_r+0x2880>
    3d60:	0fc12e03          	lw	t3,252(sp)
    3d64:	05312a23          	sw	s3,84(sp)
    3d68:	1009e793          	ori	a5,s3,256
    3d6c:	0f012e83          	lw	t4,240(sp)
    3d70:	0f412f03          	lw	t5,244(sp)
    3d74:	0f812f83          	lw	t6,248(sp)
    3d78:	000e5463          	bgez	t3,3d80 <_vfprintf_r+0xae4>
    3d7c:	1c90106f          	j	5744 <_vfprintf_r+0x24a8>
    3d80:	04012e23          	sw	zero,92(sp)
    3d84:	00078993          	mv	s3,a5
    3d88:	00012823          	sw	zero,16(sp)
    3d8c:	04812703          	lw	a4,72(sp)
    3d90:	04600793          	li	a5,70
    3d94:	00f71463          	bne	a4,a5,3d9c <_vfprintf_r+0xb00>
    3d98:	2650106f          	j	57fc <_vfprintf_r+0x2560>
    3d9c:	04500793          	li	a5,69
    3da0:	00f71463          	bne	a4,a5,3da8 <_vfprintf_r+0xb0c>
    3da4:	48d0106f          	j	5a30 <_vfprintf_r+0x2794>
    3da8:	0b010b93          	addi	s7,sp,176
    3dac:	0d010793          	addi	a5,sp,208
    3db0:	0cc10713          	addi	a4,sp,204
    3db4:	0dc10813          	addi	a6,sp,220
    3db8:	000b0693          	mv	a3,s6
    3dbc:	00200613          	li	a2,2
    3dc0:	000b8593          	mv	a1,s7
    3dc4:	000a8513          	mv	a0,s5
    3dc8:	0bd12823          	sw	t4,176(sp)
    3dcc:	03d12223          	sw	t4,36(sp)
    3dd0:	0be12a23          	sw	t5,180(sp)
    3dd4:	03e12023          	sw	t5,32(sp)
    3dd8:	0bf12c23          	sw	t6,184(sp)
    3ddc:	01f12c23          	sw	t6,24(sp)
    3de0:	0bc12e23          	sw	t3,188(sp)
    3de4:	01c12a23          	sw	t3,20(sp)
    3de8:	141040ef          	jal	ra,8728 <_ldtoa_r>
    3dec:	04812703          	lw	a4,72(sp)
    3df0:	04700793          	li	a5,71
    3df4:	00050d13          	mv	s10,a0
    3df8:	01412e03          	lw	t3,20(sp)
    3dfc:	01812f83          	lw	t6,24(sp)
    3e00:	02012f03          	lw	t5,32(sp)
    3e04:	02412e83          	lw	t4,36(sp)
    3e08:	00f70463          	beq	a4,a5,3e10 <_vfprintf_r+0xb74>
    3e0c:	0400206f          	j	5e4c <_vfprintf_r+0x2bb0>
    3e10:	05412783          	lw	a5,84(sp)
    3e14:	0017f793          	andi	a5,a5,1
    3e18:	00078463          	beqz	a5,3e20 <_vfprintf_r+0xb84>
    3e1c:	4e10106f          	j	5afc <_vfprintf_r+0x2860>
    3e20:	0dc12783          	lw	a5,220(sp)
    3e24:	41a787b3          	sub	a5,a5,s10
    3e28:	00f12c23          	sw	a5,24(sp)
    3e2c:	0cc12703          	lw	a4,204(sp)
    3e30:	04700793          	li	a5,71
    3e34:	00e12a23          	sw	a4,20(sp)
    3e38:	04812703          	lw	a4,72(sp)
    3e3c:	00f71463          	bne	a4,a5,3e44 <_vfprintf_r+0xba8>
    3e40:	6840106f          	j	54c4 <_vfprintf_r+0x2228>
    3e44:	04812703          	lw	a4,72(sp)
    3e48:	04600793          	li	a5,70
    3e4c:	00f71463          	bne	a4,a5,3e54 <_vfprintf_r+0xbb8>
    3e50:	30d0106f          	j	595c <_vfprintf_r+0x26c0>
    3e54:	01412783          	lw	a5,20(sp)
    3e58:	04812603          	lw	a2,72(sp)
    3e5c:	04100693          	li	a3,65
    3e60:	fff78a13          	addi	s4,a5,-1
    3e64:	0d412623          	sw	s4,204(sp)
    3e68:	0ff47793          	andi	a5,s0,255
    3e6c:	00000713          	li	a4,0
    3e70:	00d61863          	bne	a2,a3,3e80 <_vfprintf_r+0xbe4>
    3e74:	00f78793          	addi	a5,a5,15
    3e78:	0ff7f793          	andi	a5,a5,255
    3e7c:	00100713          	li	a4,1
    3e80:	0cf10a23          	sb	a5,212(sp)
    3e84:	02b00793          	li	a5,43
    3e88:	000a5a63          	bgez	s4,3e9c <_vfprintf_r+0xc00>
    3e8c:	01412783          	lw	a5,20(sp)
    3e90:	00100a13          	li	s4,1
    3e94:	40fa0a33          	sub	s4,s4,a5
    3e98:	02d00793          	li	a5,45
    3e9c:	0cf10aa3          	sb	a5,213(sp)
    3ea0:	00900793          	li	a5,9
    3ea4:	0147c463          	blt	a5,s4,3eac <_vfprintf_r+0xc10>
    3ea8:	6190106f          	j	5cc0 <_vfprintf_r+0x2a24>
    3eac:	0e310b13          	addi	s6,sp,227
    3eb0:	000b0b93          	mv	s7,s6
    3eb4:	06300993          	li	s3,99
    3eb8:	00c0006f          	j	3ec4 <_vfprintf_r+0xc28>
    3ebc:	00068b93          	mv	s7,a3
    3ec0:	00050a13          	mv	s4,a0
    3ec4:	00a00593          	li	a1,10
    3ec8:	000a0513          	mv	a0,s4
    3ecc:	b20fd0ef          	jal	ra,11ec <__modsi3>
    3ed0:	03050513          	addi	a0,a0,48
    3ed4:	feab8fa3          	sb	a0,-1(s7)
    3ed8:	00a00593          	li	a1,10
    3edc:	000a0513          	mv	a0,s4
    3ee0:	a88fd0ef          	jal	ra,1168 <__divsi3>
    3ee4:	fffb8693          	addi	a3,s7,-1
    3ee8:	fd49cae3          	blt	s3,s4,3ebc <_vfprintf_r+0xc20>
    3eec:	03050793          	addi	a5,a0,48
    3ef0:	0ff7f793          	andi	a5,a5,255
    3ef4:	ffeb8713          	addi	a4,s7,-2
    3ef8:	fef68fa3          	sb	a5,-1(a3)
    3efc:	01676463          	bltu	a4,s6,3f04 <_vfprintf_r+0xc68>
    3f00:	72d0106f          	j	5e2c <_vfprintf_r+0x2b90>
    3f04:	0d610693          	addi	a3,sp,214
    3f08:	0080006f          	j	3f10 <_vfprintf_r+0xc74>
    3f0c:	00074783          	lbu	a5,0(a4)
    3f10:	00168693          	addi	a3,a3,1
    3f14:	00170713          	addi	a4,a4,1
    3f18:	fef68fa3          	sb	a5,-1(a3)
    3f1c:	ff6718e3          	bne	a4,s6,3f0c <_vfprintf_r+0xc70>
    3f20:	0e510793          	addi	a5,sp,229
    3f24:	0d610713          	addi	a4,sp,214
    3f28:	417787b3          	sub	a5,a5,s7
    3f2c:	00f707b3          	add	a5,a4,a5
    3f30:	0d410713          	addi	a4,sp,212
    3f34:	40e787b3          	sub	a5,a5,a4
    3f38:	02f12c23          	sw	a5,56(sp)
    3f3c:	01812703          	lw	a4,24(sp)
    3f40:	03812683          	lw	a3,56(sp)
    3f44:	00100793          	li	a5,1
    3f48:	00d70bb3          	add	s7,a4,a3
    3f4c:	00e7c463          	blt	a5,a4,3f54 <_vfprintf_r+0xcb8>
    3f50:	5b50106f          	j	5d04 <_vfprintf_r+0x2a68>
    3f54:	02812783          	lw	a5,40(sp)
    3f58:	00fb8bb3          	add	s7,s7,a5
    3f5c:	05412783          	lw	a5,84(sp)
    3f60:	fffbca13          	not	s4,s7
    3f64:	41fa5a13          	srai	s4,s4,0x1f
    3f68:	bff7f993          	andi	s3,a5,-1025
    3f6c:	1009e993          	ori	s3,s3,256
    3f70:	014bfa33          	and	s4,s7,s4
    3f74:	02012223          	sw	zero,36(sp)
    3f78:	02012023          	sw	zero,32(sp)
    3f7c:	00012a23          	sw	zero,20(sp)
    3f80:	05c12783          	lw	a5,92(sp)
    3f84:	00078463          	beqz	a5,3f8c <_vfprintf_r+0xcf0>
    3f88:	55c0106f          	j	54e4 <_vfprintf_r+0x2248>
    3f8c:	0c714703          	lbu	a4,199(sp)
    3f90:	00000b13          	li	s6,0
    3f94:	98070ee3          	beqz	a4,3930 <_vfprintf_r+0x694>
    3f98:	f24ff06f          	j	36bc <_vfprintf_r+0x420>
    3f9c:	0209f793          	andi	a5,s3,32
    3fa0:	20079c63          	bnez	a5,41b8 <_vfprintf_r+0xf1c>
    3fa4:	00c12683          	lw	a3,12(sp)
    3fa8:	0109f793          	andi	a5,s3,16
    3fac:	00468713          	addi	a4,a3,4
    3fb0:	0006ac03          	lw	s8,0(a3)
    3fb4:	00078463          	beqz	a5,3fbc <_vfprintf_r+0xd20>
    3fb8:	69d0106f          	j	5e54 <_vfprintf_r+0x2bb8>
    3fbc:	0409f793          	andi	a5,s3,64
    3fc0:	760780e3          	beqz	a5,4f20 <_vfprintf_r+0x1c84>
    3fc4:	010c1c13          	slli	s8,s8,0x10
    3fc8:	00e12623          	sw	a4,12(sp)
    3fcc:	010c5c13          	srli	s8,s8,0x10
    3fd0:	00000b93          	li	s7,0
    3fd4:	00098a13          	mv	s4,s3
    3fd8:	00100713          	li	a4,1
    3fdc:	e88ff06f          	j	3664 <_vfprintf_r+0x3c8>
    3fe0:	00094403          	lbu	s0,0(s2)
    3fe4:	06800793          	li	a5,104
    3fe8:	32f408e3          	beq	s0,a5,4b18 <_vfprintf_r+0x187c>
    3fec:	0409e993          	ori	s3,s3,64
    3ff0:	c7cff06f          	j	346c <_vfprintf_r+0x1d0>
    3ff4:	0209f793          	andi	a5,s3,32
    3ff8:	1e079463          	bnez	a5,41e0 <_vfprintf_r+0xf44>
    3ffc:	00c12703          	lw	a4,12(sp)
    4000:	0109f793          	andi	a5,s3,16
    4004:	00470713          	addi	a4,a4,4
    4008:	00078463          	beqz	a5,4010 <_vfprintf_r+0xd74>
    400c:	6510106f          	j	5e5c <_vfprintf_r+0x2bc0>
    4010:	0409f793          	andi	a5,s3,64
    4014:	6e0784e3          	beqz	a5,4efc <_vfprintf_r+0x1c60>
    4018:	00c12783          	lw	a5,12(sp)
    401c:	00e12623          	sw	a4,12(sp)
    4020:	00098a13          	mv	s4,s3
    4024:	00079c03          	lh	s8,0(a5)
    4028:	41fc5b93          	srai	s7,s8,0x1f
    402c:	000b8713          	mv	a4,s7
    4030:	88075ce3          	bgez	a4,38c8 <_vfprintf_r+0x62c>
    4034:	41800c33          	neg	s8,s8
    4038:	01803733          	snez	a4,s8
    403c:	417007b3          	neg	a5,s7
    4040:	40e78bb3          	sub	s7,a5,a4
    4044:	02d00713          	li	a4,45
    4048:	0ce103a3          	sb	a4,199(sp)
    404c:	fff00693          	li	a3,-1
    4050:	00100713          	li	a4,1
    4054:	e0db1e63          	bne	s6,a3,3670 <_vfprintf_r+0x3d4>
    4058:	00100693          	li	a3,1
    405c:	1cd70c63          	beq	a4,a3,4234 <_vfprintf_r+0xf98>
    4060:	00200693          	li	a3,2
    4064:	20d70663          	beq	a4,a3,4270 <_vfprintf_r+0xfd4>
    4068:	1b010693          	addi	a3,sp,432
    406c:	0080006f          	j	4074 <_vfprintf_r+0xdd8>
    4070:	000d0693          	mv	a3,s10
    4074:	01db9793          	slli	a5,s7,0x1d
    4078:	007c7713          	andi	a4,s8,7
    407c:	003c5c13          	srli	s8,s8,0x3
    4080:	03070713          	addi	a4,a4,48
    4084:	0187ec33          	or	s8,a5,s8
    4088:	003bdb93          	srli	s7,s7,0x3
    408c:	fee68fa3          	sb	a4,-1(a3)
    4090:	017c67b3          	or	a5,s8,s7
    4094:	fff68d13          	addi	s10,a3,-1
    4098:	fc079ce3          	bnez	a5,4070 <_vfprintf_r+0xdd4>
    409c:	001a7793          	andi	a5,s4,1
    40a0:	20078263          	beqz	a5,42a4 <_vfprintf_r+0x1008>
    40a4:	03000793          	li	a5,48
    40a8:	1ef70e63          	beq	a4,a5,42a4 <_vfprintf_r+0x1008>
    40ac:	ffe68693          	addi	a3,a3,-2
    40b0:	fefd0fa3          	sb	a5,-1(s10)
    40b4:	1b010793          	addi	a5,sp,432
    40b8:	40d78bb3          	sub	s7,a5,a3
    40bc:	000a0993          	mv	s3,s4
    40c0:	00068d13          	mv	s10,a3
    40c4:	dd4ff06f          	j	3698 <_vfprintf_r+0x3fc>
    40c8:	00c12783          	lw	a5,12(sp)
    40cc:	ffff8737          	lui	a4,0xffff8
    40d0:	83074713          	xori	a4,a4,-2000
    40d4:	0007ac03          	lw	s8,0(a5)
    40d8:	00478793          	addi	a5,a5,4
    40dc:	00f12623          	sw	a5,12(sp)
    40e0:	00015797          	auipc	a5,0x15
    40e4:	36878793          	addi	a5,a5,872 # 19448 <init_jk+0x200>
    40e8:	0ce11423          	sh	a4,200(sp)
    40ec:	00000b93          	li	s7,0
    40f0:	0029ea13          	ori	s4,s3,2
    40f4:	02f12623          	sw	a5,44(sp)
    40f8:	00200713          	li	a4,2
    40fc:	07800413          	li	s0,120
    4100:	d64ff06f          	j	3664 <_vfprintf_r+0x3c8>
    4104:	0209f793          	andi	a5,s3,32
    4108:	10079063          	bnez	a5,4208 <_vfprintf_r+0xf6c>
    410c:	00c12683          	lw	a3,12(sp)
    4110:	0109f793          	andi	a5,s3,16
    4114:	00468713          	addi	a4,a3,4
    4118:	0006ac03          	lw	s8,0(a3)
    411c:	b8079ee3          	bnez	a5,3cb8 <_vfprintf_r+0xa1c>
    4120:	0409f793          	andi	a5,s3,64
    4124:	5c0780e3          	beqz	a5,4ee4 <_vfprintf_r+0x1c48>
    4128:	010c1c13          	slli	s8,s8,0x10
    412c:	010c5c13          	srli	s8,s8,0x10
    4130:	00000b93          	li	s7,0
    4134:	00e12623          	sw	a4,12(sp)
    4138:	0ec0006f          	j	4224 <_vfprintf_r+0xf88>
    413c:	00c12683          	lw	a3,12(sp)
    4140:	0209f793          	andi	a5,s3,32
    4144:	00468713          	addi	a4,a3,4
    4148:	120796e3          	bnez	a5,4a74 <_vfprintf_r+0x17d8>
    414c:	0109f793          	andi	a5,s3,16
    4150:	44079ce3          	bnez	a5,4da8 <_vfprintf_r+0x1b0c>
    4154:	0409f793          	andi	a5,s3,64
    4158:	70079ae3          	bnez	a5,506c <_vfprintf_r+0x1dd0>
    415c:	2009f993          	andi	s3,s3,512
    4160:	440984e3          	beqz	s3,4da8 <_vfprintf_r+0x1b0c>
    4164:	00c12783          	lw	a5,12(sp)
    4168:	00e12623          	sw	a4,12(sp)
    416c:	00812703          	lw	a4,8(sp)
    4170:	0007a783          	lw	a5,0(a5)
    4174:	00090d13          	mv	s10,s2
    4178:	00e78023          	sb	a4,0(a5)
    417c:	8c5ff06f          	j	3a40 <_vfprintf_r+0x7a4>
    4180:	00094403          	lbu	s0,0(s2)
    4184:	06c00793          	li	a5,108
    4188:	1af400e3          	beq	s0,a5,4b28 <_vfprintf_r+0x188c>
    418c:	0109e993          	ori	s3,s3,16
    4190:	adcff06f          	j	346c <_vfprintf_r+0x1d0>
    4194:	0c714783          	lbu	a5,199(sp)
    4198:	00094403          	lbu	s0,0(s2)
    419c:	ac079863          	bnez	a5,346c <_vfprintf_r+0x1d0>
    41a0:	02000793          	li	a5,32
    41a4:	0cf103a3          	sb	a5,199(sp)
    41a8:	ac4ff06f          	j	346c <_vfprintf_r+0x1d0>
    41ac:	01c12503          	lw	a0,28(sp)
    41b0:	528020ef          	jal	ra,66d8 <__sinit>
    41b4:	968ff06f          	j	331c <_vfprintf_r+0x80>
    41b8:	00098a13          	mv	s4,s3
    41bc:	00c12783          	lw	a5,12(sp)
    41c0:	00778793          	addi	a5,a5,7
    41c4:	ff87f793          	andi	a5,a5,-8
    41c8:	00878713          	addi	a4,a5,8
    41cc:	00e12623          	sw	a4,12(sp)
    41d0:	0007ac03          	lw	s8,0(a5)
    41d4:	0047ab83          	lw	s7,4(a5)
    41d8:	00100713          	li	a4,1
    41dc:	c88ff06f          	j	3664 <_vfprintf_r+0x3c8>
    41e0:	00098a13          	mv	s4,s3
    41e4:	00c12783          	lw	a5,12(sp)
    41e8:	00778793          	addi	a5,a5,7
    41ec:	ff87f793          	andi	a5,a5,-8
    41f0:	0047a703          	lw	a4,4(a5)
    41f4:	00878693          	addi	a3,a5,8
    41f8:	00d12623          	sw	a3,12(sp)
    41fc:	0007ac03          	lw	s8,0(a5)
    4200:	00070b93          	mv	s7,a4
    4204:	ec0ff06f          	j	38c4 <_vfprintf_r+0x628>
    4208:	00c12783          	lw	a5,12(sp)
    420c:	00778793          	addi	a5,a5,7
    4210:	ff87f793          	andi	a5,a5,-8
    4214:	0007ac03          	lw	s8,0(a5)
    4218:	0047ab83          	lw	s7,4(a5)
    421c:	00878713          	addi	a4,a5,8
    4220:	00e12623          	sw	a4,12(sp)
    4224:	bff9fa13          	andi	s4,s3,-1025
    4228:	00000713          	li	a4,0
    422c:	c38ff06f          	j	3664 <_vfprintf_r+0x3c8>
    4230:	00098a13          	mv	s4,s3
    4234:	100b92e3          	bnez	s7,4b38 <_vfprintf_r+0x189c>
    4238:	00900713          	li	a4,9
    423c:	0f876ee3          	bltu	a4,s8,4b38 <_vfprintf_r+0x189c>
    4240:	030c0c13          	addi	s8,s8,48
    4244:	1b8107a3          	sb	s8,431(sp)
    4248:	000a0993          	mv	s3,s4
    424c:	00100b93          	li	s7,1
    4250:	1af10d13          	addi	s10,sp,431
    4254:	c44ff06f          	j	3698 <_vfprintf_r+0x3fc>
    4258:	00100693          	li	a3,1
    425c:	00d71463          	bne	a4,a3,4264 <_vfprintf_r+0xfc8>
    4260:	25c0106f          	j	54bc <_vfprintf_r+0x2220>
    4264:	00200693          	li	a3,2
    4268:	00098a13          	mv	s4,s3
    426c:	ded71ee3          	bne	a4,a3,4068 <_vfprintf_r+0xdcc>
    4270:	02c12683          	lw	a3,44(sp)
    4274:	1b010d13          	addi	s10,sp,432
    4278:	00fc7793          	andi	a5,s8,15
    427c:	00f687b3          	add	a5,a3,a5
    4280:	0007c783          	lbu	a5,0(a5)
    4284:	01cb9713          	slli	a4,s7,0x1c
    4288:	004c5c13          	srli	s8,s8,0x4
    428c:	fffd0d13          	addi	s10,s10,-1
    4290:	01876c33          	or	s8,a4,s8
    4294:	004bdb93          	srli	s7,s7,0x4
    4298:	00fd0023          	sb	a5,0(s10)
    429c:	017c67b3          	or	a5,s8,s7
    42a0:	fc079ce3          	bnez	a5,4278 <_vfprintf_r+0xfdc>
    42a4:	1b010793          	addi	a5,sp,432
    42a8:	41a78bb3          	sub	s7,a5,s10
    42ac:	000a0993          	mv	s3,s4
    42b0:	be8ff06f          	j	3698 <_vfprintf_r+0x3fc>
    42b4:	06500713          	li	a4,101
    42b8:	32875063          	bge	a4,s0,45d8 <_vfprintf_r+0x133c>
    42bc:	0f012703          	lw	a4,240(sp)
    42c0:	0a010593          	addi	a1,sp,160
    42c4:	0b010513          	addi	a0,sp,176
    42c8:	0ae12823          	sw	a4,176(sp)
    42cc:	0f412703          	lw	a4,244(sp)
    42d0:	02f12a23          	sw	a5,52(sp)
    42d4:	0a012023          	sw	zero,160(sp)
    42d8:	0ae12a23          	sw	a4,180(sp)
    42dc:	0f812703          	lw	a4,248(sp)
    42e0:	0a012223          	sw	zero,164(sp)
    42e4:	0a012423          	sw	zero,168(sp)
    42e8:	0ae12c23          	sw	a4,184(sp)
    42ec:	0fc12703          	lw	a4,252(sp)
    42f0:	0a012623          	sw	zero,172(sp)
    42f4:	0ae12e23          	sw	a4,188(sp)
    42f8:	5e4110ef          	jal	ra,158dc <__eqtf2>
    42fc:	03412783          	lw	a5,52(sp)
    4300:	40051463          	bnez	a0,4708 <_vfprintf_r+0x146c>
    4304:	0e812703          	lw	a4,232(sp)
    4308:	00015697          	auipc	a3,0x15
    430c:	15c68693          	addi	a3,a3,348 # 19464 <init_jk+0x21c>
    4310:	00178793          	addi	a5,a5,1
    4314:	00dda023          	sw	a3,0(s11)
    4318:	00170713          	addi	a4,a4,1 # ffff8001 <bss_end+0xfffcd4d1>
    431c:	00100693          	li	a3,1
    4320:	00dda223          	sw	a3,4(s11)
    4324:	0ef12623          	sw	a5,236(sp)
    4328:	0ee12423          	sw	a4,232(sp)
    432c:	00700793          	li	a5,7
    4330:	008d8d93          	addi	s11,s11,8
    4334:	18e7cee3          	blt	a5,a4,4cd0 <_vfprintf_r+0x1a34>
    4338:	0cc12783          	lw	a5,204(sp)
    433c:	01812703          	lw	a4,24(sp)
    4340:	00e7ca63          	blt	a5,a4,4354 <_vfprintf_r+0x10b8>
    4344:	0019f793          	andi	a5,s3,1
    4348:	00079663          	bnez	a5,4354 <_vfprintf_r+0x10b8>
    434c:	0ec12783          	lw	a5,236(sp)
    4350:	ea8ff06f          	j	39f8 <_vfprintf_r+0x75c>
    4354:	03012783          	lw	a5,48(sp)
    4358:	02812683          	lw	a3,40(sp)
    435c:	0e812703          	lw	a4,232(sp)
    4360:	00fda023          	sw	a5,0(s11)
    4364:	0ec12783          	lw	a5,236(sp)
    4368:	00170713          	addi	a4,a4,1
    436c:	00dda223          	sw	a3,4(s11)
    4370:	00f687b3          	add	a5,a3,a5
    4374:	0ef12623          	sw	a5,236(sp)
    4378:	0ee12423          	sw	a4,232(sp)
    437c:	00700693          	li	a3,7
    4380:	008d8d93          	addi	s11,s11,8
    4384:	76e6c863          	blt	a3,a4,4af4 <_vfprintf_r+0x1858>
    4388:	01812703          	lw	a4,24(sp)
    438c:	fff70413          	addi	s0,a4,-1
    4390:	e6805463          	blez	s0,39f8 <_vfprintf_r+0x75c>
    4394:	0e812703          	lw	a4,232(sp)
    4398:	148cdce3          	bge	s9,s0,4cf0 <_vfprintf_r+0x1a54>
    439c:	00700b93          	li	s7,7
    43a0:	00412b03          	lw	s6,4(sp)
    43a4:	00c0006f          	j	43b0 <_vfprintf_r+0x1114>
    43a8:	ff040413          	addi	s0,s0,-16
    43ac:	148cd2e3          	bge	s9,s0,4cf0 <_vfprintf_r+0x1a54>
    43b0:	01078793          	addi	a5,a5,16
    43b4:	00170713          	addi	a4,a4,1
    43b8:	00015697          	auipc	a3,0x15
    43bc:	0c068693          	addi	a3,a3,192 # 19478 <zeroes.4534>
    43c0:	00dda023          	sw	a3,0(s11)
    43c4:	019da223          	sw	s9,4(s11)
    43c8:	0ef12623          	sw	a5,236(sp)
    43cc:	0ee12423          	sw	a4,232(sp)
    43d0:	008d8d93          	addi	s11,s11,8
    43d4:	fcebdae3          	bge	s7,a4,43a8 <_vfprintf_r+0x110c>
    43d8:	0e410613          	addi	a2,sp,228
    43dc:	000b0593          	mv	a1,s6
    43e0:	000a8513          	mv	a0,s5
    43e4:	4180a0ef          	jal	ra,e7fc <__sprint_r>
    43e8:	98051a63          	bnez	a0,357c <_vfprintf_r+0x2e0>
    43ec:	0ec12783          	lw	a5,236(sp)
    43f0:	0e812703          	lw	a4,232(sp)
    43f4:	10c10d93          	addi	s11,sp,268
    43f8:	fb1ff06f          	j	43a8 <_vfprintf_r+0x110c>
    43fc:	41448c33          	sub	s8,s1,s4
    4400:	dd805063          	blez	s8,39c0 <_vfprintf_r+0x724>
    4404:	0e812703          	lw	a4,232(sp)
    4408:	098cde63          	bge	s9,s8,44a4 <_vfprintf_r+0x1208>
    440c:	000c0693          	mv	a3,s8
    4410:	02812a23          	sw	s0,52(sp)
    4414:	000b8c13          	mv	s8,s7
    4418:	00700e13          	li	t3,7
    441c:	000a0b93          	mv	s7,s4
    4420:	00412403          	lw	s0,4(sp)
    4424:	00048a13          	mv	s4,s1
    4428:	00068493          	mv	s1,a3
    442c:	00c0006f          	j	4438 <_vfprintf_r+0x119c>
    4430:	ff048493          	addi	s1,s1,-16
    4434:	049cdc63          	bge	s9,s1,448c <_vfprintf_r+0x11f0>
    4438:	01078793          	addi	a5,a5,16
    443c:	00170713          	addi	a4,a4,1
    4440:	00015697          	auipc	a3,0x15
    4444:	03868693          	addi	a3,a3,56 # 19478 <zeroes.4534>
    4448:	00dda023          	sw	a3,0(s11)
    444c:	019da223          	sw	s9,4(s11)
    4450:	0ef12623          	sw	a5,236(sp)
    4454:	0ee12423          	sw	a4,232(sp)
    4458:	008d8d93          	addi	s11,s11,8
    445c:	fcee5ae3          	bge	t3,a4,4430 <_vfprintf_r+0x1194>
    4460:	0e410613          	addi	a2,sp,228
    4464:	00040593          	mv	a1,s0
    4468:	000a8513          	mv	a0,s5
    446c:	3900a0ef          	jal	ra,e7fc <__sprint_r>
    4470:	90051663          	bnez	a0,357c <_vfprintf_r+0x2e0>
    4474:	ff048493          	addi	s1,s1,-16
    4478:	0ec12783          	lw	a5,236(sp)
    447c:	0e812703          	lw	a4,232(sp)
    4480:	10c10d93          	addi	s11,sp,268
    4484:	00700e13          	li	t3,7
    4488:	fa9cc8e3          	blt	s9,s1,4438 <_vfprintf_r+0x119c>
    448c:	03412403          	lw	s0,52(sp)
    4490:	00048693          	mv	a3,s1
    4494:	000a0493          	mv	s1,s4
    4498:	000b8a13          	mv	s4,s7
    449c:	000c0b93          	mv	s7,s8
    44a0:	00068c13          	mv	s8,a3
    44a4:	00015697          	auipc	a3,0x15
    44a8:	fd468693          	addi	a3,a3,-44 # 19478 <zeroes.4534>
    44ac:	018787b3          	add	a5,a5,s8
    44b0:	00170713          	addi	a4,a4,1
    44b4:	00dda023          	sw	a3,0(s11)
    44b8:	018da223          	sw	s8,4(s11)
    44bc:	0ef12623          	sw	a5,236(sp)
    44c0:	0ee12423          	sw	a4,232(sp)
    44c4:	00700693          	li	a3,7
    44c8:	008d8d93          	addi	s11,s11,8
    44cc:	cee6da63          	bge	a3,a4,39c0 <_vfprintf_r+0x724>
    44d0:	00412583          	lw	a1,4(sp)
    44d4:	0e410613          	addi	a2,sp,228
    44d8:	000a8513          	mv	a0,s5
    44dc:	3200a0ef          	jal	ra,e7fc <__sprint_r>
    44e0:	88051e63          	bnez	a0,357c <_vfprintf_r+0x2e0>
    44e4:	0ec12783          	lw	a5,236(sp)
    44e8:	10c10d93          	addi	s11,sp,268
    44ec:	cd4ff06f          	j	39c0 <_vfprintf_r+0x724>
    44f0:	0e812703          	lw	a4,232(sp)
    44f4:	096cda63          	bge	s9,s6,4588 <_vfprintf_r+0x12ec>
    44f8:	000b0693          	mv	a3,s6
    44fc:	02812a23          	sw	s0,52(sp)
    4500:	000a0b13          	mv	s6,s4
    4504:	00700c13          	li	s8,7
    4508:	00048a13          	mv	s4,s1
    450c:	00412403          	lw	s0,4(sp)
    4510:	00068493          	mv	s1,a3
    4514:	00c0006f          	j	4520 <_vfprintf_r+0x1284>
    4518:	ff048493          	addi	s1,s1,-16
    451c:	049cdc63          	bge	s9,s1,4574 <_vfprintf_r+0x12d8>
    4520:	01078793          	addi	a5,a5,16
    4524:	00170713          	addi	a4,a4,1
    4528:	00015697          	auipc	a3,0x15
    452c:	f5068693          	addi	a3,a3,-176 # 19478 <zeroes.4534>
    4530:	00dda023          	sw	a3,0(s11)
    4534:	019da223          	sw	s9,4(s11)
    4538:	0ef12623          	sw	a5,236(sp)
    453c:	0ee12423          	sw	a4,232(sp)
    4540:	008d8d93          	addi	s11,s11,8
    4544:	fcec5ae3          	bge	s8,a4,4518 <_vfprintf_r+0x127c>
    4548:	0e410613          	addi	a2,sp,228
    454c:	00040593          	mv	a1,s0
    4550:	000a8513          	mv	a0,s5
    4554:	2a80a0ef          	jal	ra,e7fc <__sprint_r>
    4558:	00050463          	beqz	a0,4560 <_vfprintf_r+0x12c4>
    455c:	820ff06f          	j	357c <_vfprintf_r+0x2e0>
    4560:	ff048493          	addi	s1,s1,-16
    4564:	0ec12783          	lw	a5,236(sp)
    4568:	0e812703          	lw	a4,232(sp)
    456c:	10c10d93          	addi	s11,sp,268
    4570:	fa9cc8e3          	blt	s9,s1,4520 <_vfprintf_r+0x1284>
    4574:	03412403          	lw	s0,52(sp)
    4578:	00048693          	mv	a3,s1
    457c:	000a0493          	mv	s1,s4
    4580:	000b0a13          	mv	s4,s6
    4584:	00068b13          	mv	s6,a3
    4588:	00015697          	auipc	a3,0x15
    458c:	ef068693          	addi	a3,a3,-272 # 19478 <zeroes.4534>
    4590:	016787b3          	add	a5,a5,s6
    4594:	00170713          	addi	a4,a4,1
    4598:	00dda023          	sw	a3,0(s11)
    459c:	016da223          	sw	s6,4(s11)
    45a0:	0ef12623          	sw	a5,236(sp)
    45a4:	0ee12423          	sw	a4,232(sp)
    45a8:	00700693          	li	a3,7
    45ac:	008d8d93          	addi	s11,s11,8
    45b0:	c0e6dc63          	bge	a3,a4,39c8 <_vfprintf_r+0x72c>
    45b4:	00412583          	lw	a1,4(sp)
    45b8:	0e410613          	addi	a2,sp,228
    45bc:	000a8513          	mv	a0,s5
    45c0:	23c0a0ef          	jal	ra,e7fc <__sprint_r>
    45c4:	00050463          	beqz	a0,45cc <_vfprintf_r+0x1330>
    45c8:	fb5fe06f          	j	357c <_vfprintf_r+0x2e0>
    45cc:	0ec12783          	lw	a5,236(sp)
    45d0:	10c10d93          	addi	s11,sp,268
    45d4:	bf4ff06f          	j	39c8 <_vfprintf_r+0x72c>
    45d8:	0e812683          	lw	a3,232(sp)
    45dc:	00178c13          	addi	s8,a5,1
    45e0:	01812783          	lw	a5,24(sp)
    45e4:	00100713          	li	a4,1
    45e8:	01ada023          	sw	s10,0(s11)
    45ec:	00168413          	addi	s0,a3,1
    45f0:	008d8b93          	addi	s7,s11,8
    45f4:	daf75063          	bge	a4,a5,3b94 <_vfprintf_r+0x8f8>
    45f8:	00100713          	li	a4,1
    45fc:	00eda223          	sw	a4,4(s11)
    4600:	0f812623          	sw	s8,236(sp)
    4604:	0e812423          	sw	s0,232(sp)
    4608:	00700713          	li	a4,7
    460c:	62874e63          	blt	a4,s0,4c48 <_vfprintf_r+0x19ac>
    4610:	02812783          	lw	a5,40(sp)
    4614:	03012703          	lw	a4,48(sp)
    4618:	00140413          	addi	s0,s0,1
    461c:	00fc0c33          	add	s8,s8,a5
    4620:	00eba023          	sw	a4,0(s7)
    4624:	00fba223          	sw	a5,4(s7)
    4628:	0f812623          	sw	s8,236(sp)
    462c:	0e812423          	sw	s0,232(sp)
    4630:	00700713          	li	a4,7
    4634:	008b8b93          	addi	s7,s7,8
    4638:	62874c63          	blt	a4,s0,4c70 <_vfprintf_r+0x19d4>
    463c:	0f012703          	lw	a4,240(sp)
    4640:	01812783          	lw	a5,24(sp)
    4644:	00140613          	addi	a2,s0,1
    4648:	0ae12823          	sw	a4,176(sp)
    464c:	0f412703          	lw	a4,244(sp)
    4650:	0a010593          	addi	a1,sp,160
    4654:	0b010513          	addi	a0,sp,176
    4658:	0ae12a23          	sw	a4,180(sp)
    465c:	0f812703          	lw	a4,248(sp)
    4660:	00060b13          	mv	s6,a2
    4664:	02c12023          	sw	a2,32(sp)
    4668:	0ae12c23          	sw	a4,184(sp)
    466c:	0fc12703          	lw	a4,252(sp)
    4670:	0a012023          	sw	zero,160(sp)
    4674:	0a012223          	sw	zero,164(sp)
    4678:	0ae12e23          	sw	a4,188(sp)
    467c:	fff78713          	addi	a4,a5,-1
    4680:	00e12a23          	sw	a4,20(sp)
    4684:	0a012423          	sw	zero,168(sp)
    4688:	0a012623          	sw	zero,172(sp)
    468c:	250110ef          	jal	ra,158dc <__eqtf2>
    4690:	008b8d93          	addi	s11,s7,8
    4694:	01412703          	lw	a4,20(sp)
    4698:	02012603          	lw	a2,32(sp)
    469c:	1e050a63          	beqz	a0,4890 <_vfprintf_r+0x15f4>
    46a0:	00ec0c33          	add	s8,s8,a4
    46a4:	001d0813          	addi	a6,s10,1
    46a8:	00eba223          	sw	a4,4(s7)
    46ac:	010ba023          	sw	a6,0(s7)
    46b0:	0f812623          	sw	s8,236(sp)
    46b4:	0f612423          	sw	s6,232(sp)
    46b8:	00700713          	li	a4,7
    46bc:	41674463          	blt	a4,s6,4ac4 <_vfprintf_r+0x1828>
    46c0:	010b8713          	addi	a4,s7,16
    46c4:	00240b13          	addi	s6,s0,2
    46c8:	000d8b93          	mv	s7,s11
    46cc:	00070d93          	mv	s11,a4
    46d0:	ce8ff06f          	j	3bb8 <_vfprintf_r+0x91c>
    46d4:	00098a13          	mv	s4,s3
    46d8:	981ff06f          	j	4058 <_vfprintf_r+0xdbc>
    46dc:	00412583          	lw	a1,4(sp)
    46e0:	0e410613          	addi	a2,sp,228
    46e4:	000a8513          	mv	a0,s5
    46e8:	03d12a23          	sw	t4,52(sp)
    46ec:	1100a0ef          	jal	ra,e7fc <__sprint_r>
    46f0:	00050463          	beqz	a0,46f8 <_vfprintf_r+0x145c>
    46f4:	e89fe06f          	j	357c <_vfprintf_r+0x2e0>
    46f8:	0ec12783          	lw	a5,236(sp)
    46fc:	10c10d93          	addi	s11,sp,268
    4700:	03412e83          	lw	t4,52(sp)
    4704:	ab4ff06f          	j	39b8 <_vfprintf_r+0x71c>
    4708:	0cc12683          	lw	a3,204(sp)
    470c:	20d05c63          	blez	a3,4924 <_vfprintf_r+0x1688>
    4710:	01412703          	lw	a4,20(sp)
    4714:	01812683          	lw	a3,24(sp)
    4718:	00070413          	mv	s0,a4
    471c:	00e6d463          	bge	a3,a4,4724 <_vfprintf_r+0x1488>
    4720:	00068413          	mv	s0,a3
    4724:	02805863          	blez	s0,4754 <_vfprintf_r+0x14b8>
    4728:	0e812703          	lw	a4,232(sp)
    472c:	008787b3          	add	a5,a5,s0
    4730:	01ada023          	sw	s10,0(s11)
    4734:	00170713          	addi	a4,a4,1
    4738:	008da223          	sw	s0,4(s11)
    473c:	0ef12623          	sw	a5,236(sp)
    4740:	0ee12423          	sw	a4,232(sp)
    4744:	00700693          	li	a3,7
    4748:	008d8d93          	addi	s11,s11,8
    474c:	00e6d463          	bge	a3,a4,4754 <_vfprintf_r+0x14b8>
    4750:	0100106f          	j	5760 <_vfprintf_r+0x24c4>
    4754:	fff44713          	not	a4,s0
    4758:	41f75713          	srai	a4,a4,0x1f
    475c:	00e47433          	and	s0,s0,a4
    4760:	01412703          	lw	a4,20(sp)
    4764:	40870433          	sub	s0,a4,s0
    4768:	64804e63          	bgtz	s0,4dc4 <_vfprintf_r+0x1b28>
    476c:	01412683          	lw	a3,20(sp)
    4770:	4009f713          	andi	a4,s3,1024
    4774:	00dd0b33          	add	s6,s10,a3
    4778:	5c071ce3          	bnez	a4,5550 <_vfprintf_r+0x22b4>
    477c:	0cc12403          	lw	s0,204(sp)
    4780:	01812703          	lw	a4,24(sp)
    4784:	00e44663          	blt	s0,a4,4790 <_vfprintf_r+0x14f4>
    4788:	0019f713          	andi	a4,s3,1
    478c:	06070ee3          	beqz	a4,5008 <_vfprintf_r+0x1d6c>
    4790:	03012703          	lw	a4,48(sp)
    4794:	02812683          	lw	a3,40(sp)
    4798:	008d8d93          	addi	s11,s11,8
    479c:	feedac23          	sw	a4,-8(s11)
    47a0:	0e812703          	lw	a4,232(sp)
    47a4:	00d787b3          	add	a5,a5,a3
    47a8:	feddae23          	sw	a3,-4(s11)
    47ac:	00170713          	addi	a4,a4,1
    47b0:	0ef12623          	sw	a5,236(sp)
    47b4:	0ee12423          	sw	a4,232(sp)
    47b8:	00700693          	li	a3,7
    47bc:	00e6d463          	bge	a3,a4,47c4 <_vfprintf_r+0x1528>
    47c0:	1140106f          	j	58d4 <_vfprintf_r+0x2638>
    47c4:	01812683          	lw	a3,24(sp)
    47c8:	00dd0733          	add	a4,s10,a3
    47cc:	40868433          	sub	s0,a3,s0
    47d0:	41670733          	sub	a4,a4,s6
    47d4:	00040b93          	mv	s7,s0
    47d8:	00875463          	bge	a4,s0,47e0 <_vfprintf_r+0x1544>
    47dc:	00070b93          	mv	s7,a4
    47e0:	03705863          	blez	s7,4810 <_vfprintf_r+0x1574>
    47e4:	0e812703          	lw	a4,232(sp)
    47e8:	017787b3          	add	a5,a5,s7
    47ec:	016da023          	sw	s6,0(s11)
    47f0:	00170713          	addi	a4,a4,1
    47f4:	017da223          	sw	s7,4(s11)
    47f8:	0ef12623          	sw	a5,236(sp)
    47fc:	0ee12423          	sw	a4,232(sp)
    4800:	00700693          	li	a3,7
    4804:	008d8d93          	addi	s11,s11,8
    4808:	00e6d463          	bge	a3,a4,4810 <_vfprintf_r+0x1574>
    480c:	1740106f          	j	5980 <_vfprintf_r+0x26e4>
    4810:	fffbc713          	not	a4,s7
    4814:	41f75713          	srai	a4,a4,0x1f
    4818:	00ebfbb3          	and	s7,s7,a4
    481c:	41740433          	sub	s0,s0,s7
    4820:	9c805c63          	blez	s0,39f8 <_vfprintf_r+0x75c>
    4824:	0e812703          	lw	a4,232(sp)
    4828:	4c8cd463          	bge	s9,s0,4cf0 <_vfprintf_r+0x1a54>
    482c:	00700b93          	li	s7,7
    4830:	00412b03          	lw	s6,4(sp)
    4834:	00c0006f          	j	4840 <_vfprintf_r+0x15a4>
    4838:	ff040413          	addi	s0,s0,-16
    483c:	4a8cda63          	bge	s9,s0,4cf0 <_vfprintf_r+0x1a54>
    4840:	01078793          	addi	a5,a5,16
    4844:	00170713          	addi	a4,a4,1
    4848:	00015697          	auipc	a3,0x15
    484c:	c3068693          	addi	a3,a3,-976 # 19478 <zeroes.4534>
    4850:	00dda023          	sw	a3,0(s11)
    4854:	019da223          	sw	s9,4(s11)
    4858:	0ef12623          	sw	a5,236(sp)
    485c:	0ee12423          	sw	a4,232(sp)
    4860:	008d8d93          	addi	s11,s11,8
    4864:	fcebdae3          	bge	s7,a4,4838 <_vfprintf_r+0x159c>
    4868:	0e410613          	addi	a2,sp,228
    486c:	000b0593          	mv	a1,s6
    4870:	000a8513          	mv	a0,s5
    4874:	789090ef          	jal	ra,e7fc <__sprint_r>
    4878:	00050463          	beqz	a0,4880 <_vfprintf_r+0x15e4>
    487c:	d01fe06f          	j	357c <_vfprintf_r+0x2e0>
    4880:	0ec12783          	lw	a5,236(sp)
    4884:	0e812703          	lw	a4,232(sp)
    4888:	10c10d93          	addi	s11,sp,268
    488c:	fadff06f          	j	4838 <_vfprintf_r+0x159c>
    4890:	b2e05463          	blez	a4,3bb8 <_vfprintf_r+0x91c>
    4894:	00ecc463          	blt	s9,a4,489c <_vfprintf_r+0x1600>
    4898:	5300106f          	j	5dc8 <_vfprintf_r+0x2b2c>
    489c:	00700b13          	li	s6,7
    48a0:	00070d93          	mv	s11,a4
    48a4:	00412d03          	lw	s10,4(sp)
    48a8:	00060413          	mv	s0,a2
    48ac:	0100006f          	j	48bc <_vfprintf_r+0x1620>
    48b0:	ff0d8d93          	addi	s11,s11,-16
    48b4:	1fbcd063          	bge	s9,s11,4a94 <_vfprintf_r+0x17f8>
    48b8:	00140413          	addi	s0,s0,1
    48bc:	010c0c13          	addi	s8,s8,16
    48c0:	00015797          	auipc	a5,0x15
    48c4:	bb878793          	addi	a5,a5,-1096 # 19478 <zeroes.4534>
    48c8:	00fba023          	sw	a5,0(s7)
    48cc:	019ba223          	sw	s9,4(s7)
    48d0:	0f812623          	sw	s8,236(sp)
    48d4:	0e812423          	sw	s0,232(sp)
    48d8:	008b8b93          	addi	s7,s7,8
    48dc:	fc8b5ae3          	bge	s6,s0,48b0 <_vfprintf_r+0x1614>
    48e0:	0e410613          	addi	a2,sp,228
    48e4:	000d0593          	mv	a1,s10
    48e8:	000a8513          	mv	a0,s5
    48ec:	711090ef          	jal	ra,e7fc <__sprint_r>
    48f0:	00050463          	beqz	a0,48f8 <_vfprintf_r+0x165c>
    48f4:	c89fe06f          	j	357c <_vfprintf_r+0x2e0>
    48f8:	0ec12c03          	lw	s8,236(sp)
    48fc:	0e812403          	lw	s0,232(sp)
    4900:	10c10b93          	addi	s7,sp,268
    4904:	fadff06f          	j	48b0 <_vfprintf_r+0x1614>
    4908:	00412403          	lw	s0,4(sp)
    490c:	05842503          	lw	a0,88(s0)
    4910:	1f0050ef          	jal	ra,9b00 <__retarget_lock_acquire_recursive>
    4914:	00c41703          	lh	a4,12(s0)
    4918:	01071793          	slli	a5,a4,0x10
    491c:	0107d793          	srli	a5,a5,0x10
    4920:	a25fe06f          	j	3344 <_vfprintf_r+0xa8>
    4924:	0e812703          	lw	a4,232(sp)
    4928:	00015617          	auipc	a2,0x15
    492c:	b3c60613          	addi	a2,a2,-1220 # 19464 <init_jk+0x21c>
    4930:	00cda023          	sw	a2,0(s11)
    4934:	00178793          	addi	a5,a5,1
    4938:	00100613          	li	a2,1
    493c:	00170713          	addi	a4,a4,1
    4940:	00cda223          	sw	a2,4(s11)
    4944:	0ef12623          	sw	a5,236(sp)
    4948:	0ee12423          	sw	a4,232(sp)
    494c:	00700613          	li	a2,7
    4950:	008d8d93          	addi	s11,s11,8
    4954:	66e64263          	blt	a2,a4,4fb8 <_vfprintf_r+0x1d1c>
    4958:	4c069c63          	bnez	a3,4e30 <_vfprintf_r+0x1b94>
    495c:	01812683          	lw	a3,24(sp)
    4960:	0019f713          	andi	a4,s3,1
    4964:	00d76733          	or	a4,a4,a3
    4968:	88070863          	beqz	a4,39f8 <_vfprintf_r+0x75c>
    496c:	03012703          	lw	a4,48(sp)
    4970:	02812683          	lw	a3,40(sp)
    4974:	008d8893          	addi	a7,s11,8
    4978:	00eda023          	sw	a4,0(s11)
    497c:	0e812703          	lw	a4,232(sp)
    4980:	00f687b3          	add	a5,a3,a5
    4984:	00dda223          	sw	a3,4(s11)
    4988:	00170713          	addi	a4,a4,1
    498c:	0ef12623          	sw	a5,236(sp)
    4990:	0ee12423          	sw	a4,232(sp)
    4994:	00700693          	li	a3,7
    4998:	72e6c063          	blt	a3,a4,50b8 <_vfprintf_r+0x1e1c>
    499c:	01812683          	lw	a3,24(sp)
    49a0:	00170713          	addi	a4,a4,1
    49a4:	01a8a023          	sw	s10,0(a7)
    49a8:	00f687b3          	add	a5,a3,a5
    49ac:	00d8a223          	sw	a3,4(a7)
    49b0:	0ef12623          	sw	a5,236(sp)
    49b4:	0ee12423          	sw	a4,232(sp)
    49b8:	00700693          	li	a3,7
    49bc:	00888d93          	addi	s11,a7,8
    49c0:	00e6c463          	blt	a3,a4,49c8 <_vfprintf_r+0x172c>
    49c4:	834ff06f          	j	39f8 <_vfprintf_r+0x75c>
    49c8:	a14ff06f          	j	3bdc <_vfprintf_r+0x940>
    49cc:	03000793          	li	a5,48
    49d0:	1af107a3          	sb	a5,431(sp)
    49d4:	1af10d13          	addi	s10,sp,431
    49d8:	cc1fe06f          	j	3698 <_vfprintf_r+0x3fc>
    49dc:	2009f793          	andi	a5,s3,512
    49e0:	64079263          	bnez	a5,5024 <_vfprintf_r+0x1d88>
    49e4:	00000b93          	li	s7,0
    49e8:	c61fe06f          	j	3648 <_vfprintf_r+0x3ac>
    49ec:	03000713          	li	a4,48
    49f0:	0029e993          	ori	s3,s3,2
    49f4:	0ce10423          	sb	a4,200(sp)
    49f8:	0c8104a3          	sb	s0,201(sp)
    49fc:	bff9fa13          	andi	s4,s3,-1025
    4a00:	00200713          	li	a4,2
    4a04:	c61fe06f          	j	3664 <_vfprintf_r+0x3c8>
    4a08:	03c12783          	lw	a5,60(sp)
    4a0c:	00094403          	lbu	s0,0(s2)
    4a10:	00079463          	bnez	a5,4a18 <_vfprintf_r+0x177c>
    4a14:	a59fe06f          	j	346c <_vfprintf_r+0x1d0>
    4a18:	0007c783          	lbu	a5,0(a5)
    4a1c:	00079463          	bnez	a5,4a24 <_vfprintf_r+0x1788>
    4a20:	a4dfe06f          	j	346c <_vfprintf_r+0x1d0>
    4a24:	4009e993          	ori	s3,s3,1024
    4a28:	a45fe06f          	j	346c <_vfprintf_r+0x1d0>
    4a2c:	00c12783          	lw	a5,12(sp)
    4a30:	0b010513          	addi	a0,sp,176
    4a34:	00778793          	addi	a5,a5,7
    4a38:	ff87f793          	andi	a5,a5,-8
    4a3c:	0007a583          	lw	a1,0(a5)
    4a40:	0047a603          	lw	a2,4(a5)
    4a44:	00878793          	addi	a5,a5,8
    4a48:	00f12623          	sw	a5,12(sp)
    4a4c:	751130ef          	jal	ra,1899c <__extenddftf2>
    4a50:	0b012783          	lw	a5,176(sp)
    4a54:	0ef12823          	sw	a5,240(sp)
    4a58:	0b412783          	lw	a5,180(sp)
    4a5c:	0ef12a23          	sw	a5,244(sp)
    4a60:	0b812783          	lw	a5,184(sp)
    4a64:	0ef12c23          	sw	a5,248(sp)
    4a68:	0bc12783          	lw	a5,188(sp)
    4a6c:	0ef12e23          	sw	a5,252(sp)
    4a70:	a94ff06f          	j	3d04 <_vfprintf_r+0xa68>
    4a74:	00812603          	lw	a2,8(sp)
    4a78:	0006a783          	lw	a5,0(a3)
    4a7c:	00e12623          	sw	a4,12(sp)
    4a80:	41f65693          	srai	a3,a2,0x1f
    4a84:	00c7a023          	sw	a2,0(a5)
    4a88:	00d7a223          	sw	a3,4(a5)
    4a8c:	00090d13          	mv	s10,s2
    4a90:	fb1fe06f          	j	3a40 <_vfprintf_r+0x7a4>
    4a94:	000d8713          	mv	a4,s11
    4a98:	00140b13          	addi	s6,s0,1
    4a9c:	008b8613          	addi	a2,s7,8
    4aa0:	00ec0c33          	add	s8,s8,a4
    4aa4:	00015797          	auipc	a5,0x15
    4aa8:	9d478793          	addi	a5,a5,-1580 # 19478 <zeroes.4534>
    4aac:	00eba223          	sw	a4,4(s7)
    4ab0:	00fba023          	sw	a5,0(s7)
    4ab4:	0f812623          	sw	s8,236(sp)
    4ab8:	0f612423          	sw	s6,232(sp)
    4abc:	00700713          	li	a4,7
    4ac0:	53675063          	bge	a4,s6,4fe0 <_vfprintf_r+0x1d44>
    4ac4:	00412583          	lw	a1,4(sp)
    4ac8:	0e410613          	addi	a2,sp,228
    4acc:	000a8513          	mv	a0,s5
    4ad0:	52d090ef          	jal	ra,e7fc <__sprint_r>
    4ad4:	00050463          	beqz	a0,4adc <_vfprintf_r+0x1840>
    4ad8:	aa5fe06f          	j	357c <_vfprintf_r+0x2e0>
    4adc:	0e812683          	lw	a3,232(sp)
    4ae0:	0ec12c03          	lw	s8,236(sp)
    4ae4:	11410d93          	addi	s11,sp,276
    4ae8:	00168b13          	addi	s6,a3,1
    4aec:	10c10b93          	addi	s7,sp,268
    4af0:	8c8ff06f          	j	3bb8 <_vfprintf_r+0x91c>
    4af4:	00412583          	lw	a1,4(sp)
    4af8:	0e410613          	addi	a2,sp,228
    4afc:	000a8513          	mv	a0,s5
    4b00:	4fd090ef          	jal	ra,e7fc <__sprint_r>
    4b04:	00050463          	beqz	a0,4b0c <_vfprintf_r+0x1870>
    4b08:	a75fe06f          	j	357c <_vfprintf_r+0x2e0>
    4b0c:	0ec12783          	lw	a5,236(sp)
    4b10:	10c10d93          	addi	s11,sp,268
    4b14:	875ff06f          	j	4388 <_vfprintf_r+0x10ec>
    4b18:	00194403          	lbu	s0,1(s2)
    4b1c:	2009e993          	ori	s3,s3,512
    4b20:	00190913          	addi	s2,s2,1
    4b24:	949fe06f          	j	346c <_vfprintf_r+0x1d0>
    4b28:	00194403          	lbu	s0,1(s2)
    4b2c:	0209e993          	ori	s3,s3,32
    4b30:	00190913          	addi	s2,s2,1
    4b34:	939fe06f          	j	346c <_vfprintf_r+0x1d0>
    4b38:	1b010d13          	addi	s10,sp,432
    4b3c:	00000793          	li	a5,0
    4b40:	400a7993          	andi	s3,s4,1024
    4b44:	01212823          	sw	s2,16(sp)
    4b48:	00812a23          	sw	s0,20(sp)
    4b4c:	000d0913          	mv	s2,s10
    4b50:	00078413          	mv	s0,a5
    4b54:	000a8d13          	mv	s10,s5
    4b58:	000a0a93          	mv	s5,s4
    4b5c:	000b8a13          	mv	s4,s7
    4b60:	000b0b93          	mv	s7,s6
    4b64:	00048b13          	mv	s6,s1
    4b68:	03c12483          	lw	s1,60(sp)
    4b6c:	0240006f          	j	4b90 <_vfprintf_r+0x18f4>
    4b70:	00a00613          	li	a2,10
    4b74:	00000693          	li	a3,0
    4b78:	000c0513          	mv	a0,s8
    4b7c:	000a0593          	mv	a1,s4
    4b80:	5350d0ef          	jal	ra,128b4 <__udivdi3>
    4b84:	460a06e3          	beqz	s4,57f0 <_vfprintf_r+0x2554>
    4b88:	00050c13          	mv	s8,a0
    4b8c:	00058a13          	mv	s4,a1
    4b90:	00a00613          	li	a2,10
    4b94:	00000693          	li	a3,0
    4b98:	000c0513          	mv	a0,s8
    4b9c:	000a0593          	mv	a1,s4
    4ba0:	34c0e0ef          	jal	ra,12eec <__umoddi3>
    4ba4:	03050513          	addi	a0,a0,48
    4ba8:	fea90fa3          	sb	a0,-1(s2)
    4bac:	00140413          	addi	s0,s0,1
    4bb0:	fff90913          	addi	s2,s2,-1
    4bb4:	fa098ee3          	beqz	s3,4b70 <_vfprintf_r+0x18d4>
    4bb8:	0004c683          	lbu	a3,0(s1)
    4bbc:	fad41ae3          	bne	s0,a3,4b70 <_vfprintf_r+0x18d4>
    4bc0:	0ff00793          	li	a5,255
    4bc4:	faf406e3          	beq	s0,a5,4b70 <_vfprintf_r+0x18d4>
    4bc8:	3e0a14e3          	bnez	s4,57b0 <_vfprintf_r+0x2514>
    4bcc:	00900793          	li	a5,9
    4bd0:	3f87e0e3          	bltu	a5,s8,57b0 <_vfprintf_r+0x2514>
    4bd4:	000a8a13          	mv	s4,s5
    4bd8:	1b010793          	addi	a5,sp,432
    4bdc:	000d0a93          	mv	s5,s10
    4be0:	00090d13          	mv	s10,s2
    4be4:	02912e23          	sw	s1,60(sp)
    4be8:	00812c23          	sw	s0,24(sp)
    4bec:	000b0493          	mv	s1,s6
    4bf0:	01412403          	lw	s0,20(sp)
    4bf4:	000b8b13          	mv	s6,s7
    4bf8:	01012903          	lw	s2,16(sp)
    4bfc:	41a78bb3          	sub	s7,a5,s10
    4c00:	000a0993          	mv	s3,s4
    4c04:	a95fe06f          	j	3698 <_vfprintf_r+0x3fc>
    4c08:	00600793          	li	a5,6
    4c0c:	000b0a13          	mv	s4,s6
    4c10:	3f67e063          	bltu	a5,s6,4ff0 <_vfprintf_r+0x1d54>
    4c14:	01812623          	sw	s8,12(sp)
    4c18:	00012823          	sw	zero,16(sp)
    4c1c:	000a0b93          	mv	s7,s4
    4c20:	00000713          	li	a4,0
    4c24:	00000b13          	li	s6,0
    4c28:	02012223          	sw	zero,36(sp)
    4c2c:	02012023          	sw	zero,32(sp)
    4c30:	00012a23          	sw	zero,20(sp)
    4c34:	00015d17          	auipc	s10,0x15
    4c38:	828d0d13          	addi	s10,s10,-2008 # 1945c <init_jk+0x214>
    4c3c:	cf5fe06f          	j	3930 <_vfprintf_r+0x694>
    4c40:	000d0493          	mv	s1,s10
    4c44:	809fe06f          	j	344c <_vfprintf_r+0x1b0>
    4c48:	00412583          	lw	a1,4(sp)
    4c4c:	0e410613          	addi	a2,sp,228
    4c50:	000a8513          	mv	a0,s5
    4c54:	3a9090ef          	jal	ra,e7fc <__sprint_r>
    4c58:	00050463          	beqz	a0,4c60 <_vfprintf_r+0x19c4>
    4c5c:	921fe06f          	j	357c <_vfprintf_r+0x2e0>
    4c60:	0ec12c03          	lw	s8,236(sp)
    4c64:	0e812403          	lw	s0,232(sp)
    4c68:	10c10b93          	addi	s7,sp,268
    4c6c:	9a5ff06f          	j	4610 <_vfprintf_r+0x1374>
    4c70:	00412583          	lw	a1,4(sp)
    4c74:	0e410613          	addi	a2,sp,228
    4c78:	000a8513          	mv	a0,s5
    4c7c:	381090ef          	jal	ra,e7fc <__sprint_r>
    4c80:	00050463          	beqz	a0,4c88 <_vfprintf_r+0x19ec>
    4c84:	8f9fe06f          	j	357c <_vfprintf_r+0x2e0>
    4c88:	0ec12c03          	lw	s8,236(sp)
    4c8c:	0e812403          	lw	s0,232(sp)
    4c90:	10c10b93          	addi	s7,sp,268
    4c94:	9a9ff06f          	j	463c <_vfprintf_r+0x13a0>
    4c98:	00412583          	lw	a1,4(sp)
    4c9c:	0e410613          	addi	a2,sp,228
    4ca0:	000a8513          	mv	a0,s5
    4ca4:	05d12423          	sw	t4,72(sp)
    4ca8:	03e12a23          	sw	t5,52(sp)
    4cac:	351090ef          	jal	ra,e7fc <__sprint_r>
    4cb0:	00050463          	beqz	a0,4cb8 <_vfprintf_r+0x1a1c>
    4cb4:	8c9fe06f          	j	357c <_vfprintf_r+0x2e0>
    4cb8:	0c714703          	lbu	a4,199(sp)
    4cbc:	0ec12783          	lw	a5,236(sp)
    4cc0:	10c10d93          	addi	s11,sp,268
    4cc4:	04812e83          	lw	t4,72(sp)
    4cc8:	03412f03          	lw	t5,52(sp)
    4ccc:	c85fe06f          	j	3950 <_vfprintf_r+0x6b4>
    4cd0:	00412583          	lw	a1,4(sp)
    4cd4:	0e410613          	addi	a2,sp,228
    4cd8:	000a8513          	mv	a0,s5
    4cdc:	321090ef          	jal	ra,e7fc <__sprint_r>
    4ce0:	00050463          	beqz	a0,4ce8 <_vfprintf_r+0x1a4c>
    4ce4:	899fe06f          	j	357c <_vfprintf_r+0x2e0>
    4ce8:	10c10d93          	addi	s11,sp,268
    4cec:	e4cff06f          	j	4338 <_vfprintf_r+0x109c>
    4cf0:	00014697          	auipc	a3,0x14
    4cf4:	78868693          	addi	a3,a3,1928 # 19478 <zeroes.4534>
    4cf8:	00dda023          	sw	a3,0(s11)
    4cfc:	008da223          	sw	s0,4(s11)
    4d00:	008787b3          	add	a5,a5,s0
    4d04:	00170713          	addi	a4,a4,1
    4d08:	0ef12623          	sw	a5,236(sp)
    4d0c:	0ee12423          	sw	a4,232(sp)
    4d10:	00700693          	li	a3,7
    4d14:	00e6c463          	blt	a3,a4,4d1c <_vfprintf_r+0x1a80>
    4d18:	cddfe06f          	j	39f4 <_vfprintf_r+0x758>
    4d1c:	ec1fe06f          	j	3bdc <_vfprintf_r+0x940>
    4d20:	0f012783          	lw	a5,240(sp)
    4d24:	0a010593          	addi	a1,sp,160
    4d28:	0b010513          	addi	a0,sp,176
    4d2c:	0af12823          	sw	a5,176(sp)
    4d30:	0f412783          	lw	a5,244(sp)
    4d34:	0a012023          	sw	zero,160(sp)
    4d38:	0a012223          	sw	zero,164(sp)
    4d3c:	0af12a23          	sw	a5,180(sp)
    4d40:	0f812783          	lw	a5,248(sp)
    4d44:	0a012423          	sw	zero,168(sp)
    4d48:	0a012623          	sw	zero,172(sp)
    4d4c:	0af12c23          	sw	a5,184(sp)
    4d50:	0fc12783          	lw	a5,252(sp)
    4d54:	0af12e23          	sw	a5,188(sp)
    4d58:	5c1100ef          	jal	ra,15b18 <__letf2>
    4d5c:	28054e63          	bltz	a0,4ff8 <_vfprintf_r+0x1d5c>
    4d60:	0c714703          	lbu	a4,199(sp)
    4d64:	04700793          	li	a5,71
    4d68:	00014d17          	auipc	s10,0x14
    4d6c:	6bcd0d13          	addi	s10,s10,1724 # 19424 <init_jk+0x1dc>
    4d70:	0087d663          	bge	a5,s0,4d7c <_vfprintf_r+0x1ae0>
    4d74:	00014d17          	auipc	s10,0x14
    4d78:	6b4d0d13          	addi	s10,s10,1716 # 19428 <init_jk+0x1e0>
    4d7c:	00012823          	sw	zero,16(sp)
    4d80:	02012223          	sw	zero,36(sp)
    4d84:	02012023          	sw	zero,32(sp)
    4d88:	00012a23          	sw	zero,20(sp)
    4d8c:	f7f9f993          	andi	s3,s3,-129
    4d90:	00300a13          	li	s4,3
    4d94:	00300b93          	li	s7,3
    4d98:	00000b13          	li	s6,0
    4d9c:	00071463          	bnez	a4,4da4 <_vfprintf_r+0x1b08>
    4da0:	b91fe06f          	j	3930 <_vfprintf_r+0x694>
    4da4:	919fe06f          	j	36bc <_vfprintf_r+0x420>
    4da8:	00c12783          	lw	a5,12(sp)
    4dac:	00090d13          	mv	s10,s2
    4db0:	0007a783          	lw	a5,0(a5)
    4db4:	00e12623          	sw	a4,12(sp)
    4db8:	00812703          	lw	a4,8(sp)
    4dbc:	00e7a023          	sw	a4,0(a5)
    4dc0:	c81fe06f          	j	3a40 <_vfprintf_r+0x7a4>
    4dc4:	0e812703          	lw	a4,232(sp)
    4dc8:	1a8cd063          	bge	s9,s0,4f68 <_vfprintf_r+0x1ccc>
    4dcc:	00700b93          	li	s7,7
    4dd0:	00412b03          	lw	s6,4(sp)
    4dd4:	00c0006f          	j	4de0 <_vfprintf_r+0x1b44>
    4dd8:	ff040413          	addi	s0,s0,-16
    4ddc:	188cd663          	bge	s9,s0,4f68 <_vfprintf_r+0x1ccc>
    4de0:	01078793          	addi	a5,a5,16
    4de4:	00170713          	addi	a4,a4,1
    4de8:	00014697          	auipc	a3,0x14
    4dec:	69068693          	addi	a3,a3,1680 # 19478 <zeroes.4534>
    4df0:	00dda023          	sw	a3,0(s11)
    4df4:	019da223          	sw	s9,4(s11)
    4df8:	0ef12623          	sw	a5,236(sp)
    4dfc:	0ee12423          	sw	a4,232(sp)
    4e00:	008d8d93          	addi	s11,s11,8
    4e04:	fcebdae3          	bge	s7,a4,4dd8 <_vfprintf_r+0x1b3c>
    4e08:	0e410613          	addi	a2,sp,228
    4e0c:	000b0593          	mv	a1,s6
    4e10:	000a8513          	mv	a0,s5
    4e14:	1e9090ef          	jal	ra,e7fc <__sprint_r>
    4e18:	00050463          	beqz	a0,4e20 <_vfprintf_r+0x1b84>
    4e1c:	f60fe06f          	j	357c <_vfprintf_r+0x2e0>
    4e20:	0ec12783          	lw	a5,236(sp)
    4e24:	0e812703          	lw	a4,232(sp)
    4e28:	10c10d93          	addi	s11,sp,268
    4e2c:	fadff06f          	j	4dd8 <_vfprintf_r+0x1b3c>
    4e30:	03012703          	lw	a4,48(sp)
    4e34:	02812603          	lw	a2,40(sp)
    4e38:	008d8893          	addi	a7,s11,8
    4e3c:	00eda023          	sw	a4,0(s11)
    4e40:	0e812703          	lw	a4,232(sp)
    4e44:	00f607b3          	add	a5,a2,a5
    4e48:	00cda223          	sw	a2,4(s11)
    4e4c:	00170713          	addi	a4,a4,1
    4e50:	0ef12623          	sw	a5,236(sp)
    4e54:	0ee12423          	sw	a4,232(sp)
    4e58:	00700613          	li	a2,7
    4e5c:	24e64e63          	blt	a2,a4,50b8 <_vfprintf_r+0x1e1c>
    4e60:	b206dee3          	bgez	a3,499c <_vfprintf_r+0x1700>
    4e64:	ff000613          	li	a2,-16
    4e68:	40d00433          	neg	s0,a3
    4e6c:	34c6d8e3          	bge	a3,a2,59bc <_vfprintf_r+0x2720>
    4e70:	00700b93          	li	s7,7
    4e74:	00412b03          	lw	s6,4(sp)
    4e78:	00c0006f          	j	4e84 <_vfprintf_r+0x1be8>
    4e7c:	ff040413          	addi	s0,s0,-16
    4e80:	328cdee3          	bge	s9,s0,59bc <_vfprintf_r+0x2720>
    4e84:	01078793          	addi	a5,a5,16
    4e88:	00170713          	addi	a4,a4,1
    4e8c:	00014697          	auipc	a3,0x14
    4e90:	5ec68693          	addi	a3,a3,1516 # 19478 <zeroes.4534>
    4e94:	00d8a023          	sw	a3,0(a7)
    4e98:	0198a223          	sw	s9,4(a7)
    4e9c:	0ef12623          	sw	a5,236(sp)
    4ea0:	0ee12423          	sw	a4,232(sp)
    4ea4:	00888893          	addi	a7,a7,8
    4ea8:	fcebdae3          	bge	s7,a4,4e7c <_vfprintf_r+0x1be0>
    4eac:	0e410613          	addi	a2,sp,228
    4eb0:	000b0593          	mv	a1,s6
    4eb4:	000a8513          	mv	a0,s5
    4eb8:	145090ef          	jal	ra,e7fc <__sprint_r>
    4ebc:	00050463          	beqz	a0,4ec4 <_vfprintf_r+0x1c28>
    4ec0:	ebcfe06f          	j	357c <_vfprintf_r+0x2e0>
    4ec4:	0ec12783          	lw	a5,236(sp)
    4ec8:	0e812703          	lw	a4,232(sp)
    4ecc:	10c10893          	addi	a7,sp,268
    4ed0:	fadff06f          	j	4e7c <_vfprintf_r+0x1be0>
    4ed4:	000d0513          	mv	a0,s10
    4ed8:	419060ef          	jal	ra,baf0 <strlen>
    4edc:	00050b93          	mv	s7,a0
    4ee0:	981fe06f          	j	3860 <_vfprintf_r+0x5c4>
    4ee4:	2009f793          	andi	a5,s3,512
    4ee8:	16078c63          	beqz	a5,5060 <_vfprintf_r+0x1dc4>
    4eec:	0ffc7c13          	andi	s8,s8,255
    4ef0:	00000b93          	li	s7,0
    4ef4:	00e12623          	sw	a4,12(sp)
    4ef8:	b2cff06f          	j	4224 <_vfprintf_r+0xf88>
    4efc:	2009f793          	andi	a5,s3,512
    4f00:	14078263          	beqz	a5,5044 <_vfprintf_r+0x1da8>
    4f04:	00c12783          	lw	a5,12(sp)
    4f08:	00098a13          	mv	s4,s3
    4f0c:	00e12623          	sw	a4,12(sp)
    4f10:	00078c03          	lb	s8,0(a5)
    4f14:	41fc5b93          	srai	s7,s8,0x1f
    4f18:	000b8713          	mv	a4,s7
    4f1c:	9a9fe06f          	j	38c4 <_vfprintf_r+0x628>
    4f20:	2009f793          	andi	a5,s3,512
    4f24:	10078663          	beqz	a5,5030 <_vfprintf_r+0x1d94>
    4f28:	00e12623          	sw	a4,12(sp)
    4f2c:	0ffc7c13          	andi	s8,s8,255
    4f30:	00000b93          	li	s7,0
    4f34:	00098a13          	mv	s4,s3
    4f38:	00100713          	li	a4,1
    4f3c:	f28fe06f          	j	3664 <_vfprintf_r+0x3c8>
    4f40:	0fc12783          	lw	a5,252(sp)
    4f44:	1407c263          	bltz	a5,5088 <_vfprintf_r+0x1dec>
    4f48:	0c714703          	lbu	a4,199(sp)
    4f4c:	04700793          	li	a5,71
    4f50:	00014d17          	auipc	s10,0x14
    4f54:	4dcd0d13          	addi	s10,s10,1244 # 1942c <init_jk+0x1e4>
    4f58:	e287d2e3          	bge	a5,s0,4d7c <_vfprintf_r+0x1ae0>
    4f5c:	00014d17          	auipc	s10,0x14
    4f60:	4d4d0d13          	addi	s10,s10,1236 # 19430 <init_jk+0x1e8>
    4f64:	e19ff06f          	j	4d7c <_vfprintf_r+0x1ae0>
    4f68:	00014697          	auipc	a3,0x14
    4f6c:	51068693          	addi	a3,a3,1296 # 19478 <zeroes.4534>
    4f70:	008787b3          	add	a5,a5,s0
    4f74:	00170713          	addi	a4,a4,1
    4f78:	00dda023          	sw	a3,0(s11)
    4f7c:	008da223          	sw	s0,4(s11)
    4f80:	0ef12623          	sw	a5,236(sp)
    4f84:	0ee12423          	sw	a4,232(sp)
    4f88:	00700693          	li	a3,7
    4f8c:	008d8d93          	addi	s11,s11,8
    4f90:	fce6de63          	bge	a3,a4,476c <_vfprintf_r+0x14d0>
    4f94:	00412583          	lw	a1,4(sp)
    4f98:	0e410613          	addi	a2,sp,228
    4f9c:	000a8513          	mv	a0,s5
    4fa0:	05d090ef          	jal	ra,e7fc <__sprint_r>
    4fa4:	00050463          	beqz	a0,4fac <_vfprintf_r+0x1d10>
    4fa8:	dd4fe06f          	j	357c <_vfprintf_r+0x2e0>
    4fac:	0ec12783          	lw	a5,236(sp)
    4fb0:	10c10d93          	addi	s11,sp,268
    4fb4:	fb8ff06f          	j	476c <_vfprintf_r+0x14d0>
    4fb8:	00412583          	lw	a1,4(sp)
    4fbc:	0e410613          	addi	a2,sp,228
    4fc0:	000a8513          	mv	a0,s5
    4fc4:	039090ef          	jal	ra,e7fc <__sprint_r>
    4fc8:	00050463          	beqz	a0,4fd0 <_vfprintf_r+0x1d34>
    4fcc:	db0fe06f          	j	357c <_vfprintf_r+0x2e0>
    4fd0:	0cc12683          	lw	a3,204(sp)
    4fd4:	0ec12783          	lw	a5,236(sp)
    4fd8:	10c10d93          	addi	s11,sp,268
    4fdc:	97dff06f          	j	4958 <_vfprintf_r+0x16bc>
    4fe0:	001b0b13          	addi	s6,s6,1
    4fe4:	00860d93          	addi	s11,a2,8
    4fe8:	00060b93          	mv	s7,a2
    4fec:	bcdfe06f          	j	3bb8 <_vfprintf_r+0x91c>
    4ff0:	00600a13          	li	s4,6
    4ff4:	c21ff06f          	j	4c14 <_vfprintf_r+0x1978>
    4ff8:	02d00793          	li	a5,45
    4ffc:	0cf103a3          	sb	a5,199(sp)
    5000:	02d00713          	li	a4,45
    5004:	d61ff06f          	j	4d64 <_vfprintf_r+0x1ac8>
    5008:	01812703          	lw	a4,24(sp)
    500c:	00ed0833          	add	a6,s10,a4
    5010:	40870433          	sub	s0,a4,s0
    5014:	41680bb3          	sub	s7,a6,s6
    5018:	ff745c63          	bge	s0,s7,4810 <_vfprintf_r+0x1574>
    501c:	00040b93          	mv	s7,s0
    5020:	ff0ff06f          	j	4810 <_vfprintf_r+0x1574>
    5024:	0ffc7c13          	andi	s8,s8,255
    5028:	00000b93          	li	s7,0
    502c:	e1cfe06f          	j	3648 <_vfprintf_r+0x3ac>
    5030:	00e12623          	sw	a4,12(sp)
    5034:	00000b93          	li	s7,0
    5038:	00098a13          	mv	s4,s3
    503c:	00100713          	li	a4,1
    5040:	e24fe06f          	j	3664 <_vfprintf_r+0x3c8>
    5044:	00c12783          	lw	a5,12(sp)
    5048:	00098a13          	mv	s4,s3
    504c:	00e12623          	sw	a4,12(sp)
    5050:	0007ac03          	lw	s8,0(a5)
    5054:	41fc5b93          	srai	s7,s8,0x1f
    5058:	000b8713          	mv	a4,s7
    505c:	869fe06f          	j	38c4 <_vfprintf_r+0x628>
    5060:	00000b93          	li	s7,0
    5064:	00e12623          	sw	a4,12(sp)
    5068:	9bcff06f          	j	4224 <_vfprintf_r+0xf88>
    506c:	00c12783          	lw	a5,12(sp)
    5070:	00e12623          	sw	a4,12(sp)
    5074:	00812703          	lw	a4,8(sp)
    5078:	0007a783          	lw	a5,0(a5)
    507c:	00090d13          	mv	s10,s2
    5080:	00e79023          	sh	a4,0(a5)
    5084:	9bdfe06f          	j	3a40 <_vfprintf_r+0x7a4>
    5088:	02d00793          	li	a5,45
    508c:	0cf103a3          	sb	a5,199(sp)
    5090:	02d00713          	li	a4,45
    5094:	eb9ff06f          	j	4f4c <_vfprintf_r+0x1cb0>
    5098:	00412583          	lw	a1,4(sp)
    509c:	01c12503          	lw	a0,28(sp)
    50a0:	0e410613          	addi	a2,sp,228
    50a4:	758090ef          	jal	ra,e7fc <__sprint_r>
    50a8:	00050463          	beqz	a0,50b0 <_vfprintf_r+0x1e14>
    50ac:	ce4fe06f          	j	3590 <_vfprintf_r+0x2f4>
    50b0:	0e012423          	sw	zero,232(sp)
    50b4:	cdcfe06f          	j	3590 <_vfprintf_r+0x2f4>
    50b8:	00412583          	lw	a1,4(sp)
    50bc:	0e410613          	addi	a2,sp,228
    50c0:	000a8513          	mv	a0,s5
    50c4:	738090ef          	jal	ra,e7fc <__sprint_r>
    50c8:	00050463          	beqz	a0,50d0 <_vfprintf_r+0x1e34>
    50cc:	cb0fe06f          	j	357c <_vfprintf_r+0x2e0>
    50d0:	0cc12683          	lw	a3,204(sp)
    50d4:	0ec12783          	lw	a5,236(sp)
    50d8:	0e812703          	lw	a4,232(sp)
    50dc:	10c10893          	addi	a7,sp,268
    50e0:	8a06dee3          	bgez	a3,499c <_vfprintf_r+0x1700>
    50e4:	d81ff06f          	j	4e64 <_vfprintf_r+0x1bc8>
    50e8:	0586a503          	lw	a0,88(a3)
    50ec:	22d040ef          	jal	ra,9b18 <__retarget_lock_release_recursive>
    50f0:	c34fe06f          	j	3524 <_vfprintf_r+0x288>
    50f4:	03000793          	li	a5,48
    50f8:	0cf10423          	sb	a5,200(sp)
    50fc:	05800793          	li	a5,88
    5100:	0029e713          	ori	a4,s3,2
    5104:	0cf104a3          	sb	a5,201(sp)
    5108:	04e12a23          	sw	a4,84(sp)
    510c:	06300793          	li	a5,99
    5110:	00012823          	sw	zero,16(sp)
    5114:	14c10d13          	addi	s10,sp,332
    5118:	0f67cee3          	blt	a5,s6,5a14 <_vfprintf_r+0x2778>
    511c:	0fc12e03          	lw	t3,252(sp)
    5120:	fdf47793          	andi	a5,s0,-33
    5124:	04f12423          	sw	a5,72(sp)
    5128:	04012e23          	sw	zero,92(sp)
    512c:	1029e993          	ori	s3,s3,258
    5130:	0f012e83          	lw	t4,240(sp)
    5134:	0f412f03          	lw	t5,244(sp)
    5138:	0f812f83          	lw	t6,248(sp)
    513c:	600e4863          	bltz	t3,574c <_vfprintf_r+0x24b0>
    5140:	06100793          	li	a5,97
    5144:	26f40ce3          	beq	s0,a5,5bbc <_vfprintf_r+0x2920>
    5148:	04100793          	li	a5,65
    514c:	00f40463          	beq	s0,a5,5154 <_vfprintf_r+0x1eb8>
    5150:	c3dfe06f          	j	3d8c <_vfprintf_r+0xaf0>
    5154:	0b010b93          	addi	s7,sp,176
    5158:	000b8513          	mv	a0,s7
    515c:	0bd12823          	sw	t4,176(sp)
    5160:	0be12a23          	sw	t5,180(sp)
    5164:	0bf12c23          	sw	t6,184(sp)
    5168:	0bc12e23          	sw	t3,188(sp)
    516c:	29d130ef          	jal	ra,18c08 <__trunctfdf2>
    5170:	0cc10613          	addi	a2,sp,204
    5174:	578060ef          	jal	ra,b6ec <frexp>
    5178:	00058613          	mv	a2,a1
    517c:	00050593          	mv	a1,a0
    5180:	000b8513          	mv	a0,s7
    5184:	019130ef          	jal	ra,1899c <__extenddftf2>
    5188:	09010793          	addi	a5,sp,144
    518c:	00078593          	mv	a1,a5
    5190:	00f12c23          	sw	a5,24(sp)
    5194:	0b012783          	lw	a5,176(sp)
    5198:	0a010a13          	addi	s4,sp,160
    519c:	08010613          	addi	a2,sp,128
    51a0:	08f12823          	sw	a5,144(sp)
    51a4:	0b412783          	lw	a5,180(sp)
    51a8:	000a0513          	mv	a0,s4
    51ac:	04c12623          	sw	a2,76(sp)
    51b0:	08f12a23          	sw	a5,148(sp)
    51b4:	0b812783          	lw	a5,184(sp)
    51b8:	05412c23          	sw	s4,88(sp)
    51bc:	08012023          	sw	zero,128(sp)
    51c0:	08f12c23          	sw	a5,152(sp)
    51c4:	0bc12783          	lw	a5,188(sp)
    51c8:	08012223          	sw	zero,132(sp)
    51cc:	08012423          	sw	zero,136(sp)
    51d0:	08f12e23          	sw	a5,156(sp)
    51d4:	3ffc07b7          	lui	a5,0x3ffc0
    51d8:	08f12623          	sw	a5,140(sp)
    51dc:	2a9100ef          	jal	ra,15c84 <__multf3>
    51e0:	0a012683          	lw	a3,160(sp)
    51e4:	0a412e03          	lw	t3,164(sp)
    51e8:	0a812e83          	lw	t4,168(sp)
    51ec:	0ac12f03          	lw	t5,172(sp)
    51f0:	000a0593          	mv	a1,s4
    51f4:	000b8513          	mv	a0,s7
    51f8:	0ad12823          	sw	a3,176(sp)
    51fc:	02d12a23          	sw	a3,52(sp)
    5200:	0bc12a23          	sw	t3,180(sp)
    5204:	03c12223          	sw	t3,36(sp)
    5208:	0bd12c23          	sw	t4,184(sp)
    520c:	03d12023          	sw	t4,32(sp)
    5210:	0be12e23          	sw	t5,188(sp)
    5214:	01e12a23          	sw	t5,20(sp)
    5218:	0a012023          	sw	zero,160(sp)
    521c:	0a012223          	sw	zero,164(sp)
    5220:	0a012423          	sw	zero,168(sp)
    5224:	0a012623          	sw	zero,172(sp)
    5228:	6b4100ef          	jal	ra,158dc <__eqtf2>
    522c:	01412f03          	lw	t5,20(sp)
    5230:	02012e83          	lw	t4,32(sp)
    5234:	02412e03          	lw	t3,36(sp)
    5238:	03412683          	lw	a3,52(sp)
    523c:	00051663          	bnez	a0,5248 <_vfprintf_r+0x1fac>
    5240:	00100793          	li	a5,1
    5244:	0cf12623          	sw	a5,204(sp)
    5248:	00014797          	auipc	a5,0x14
    524c:	1ec78793          	addi	a5,a5,492 # 19434 <init_jk+0x1ec>
    5250:	02f12a23          	sw	a5,52(sp)
    5254:	fffb0a13          	addi	s4,s6,-1
    5258:	01a12a23          	sw	s10,20(sp)
    525c:	07212023          	sw	s2,96(sp)
    5260:	06912623          	sw	s1,108(sp)
    5264:	07b12a23          	sw	s11,116(sp)
    5268:	000a0c13          	mv	s8,s4
    526c:	07512c23          	sw	s5,120(sp)
    5270:	07a12e23          	sw	s10,124(sp)
    5274:	06812223          	sw	s0,100(sp)
    5278:	07312423          	sw	s3,104(sp)
    527c:	07612823          	sw	s6,112(sp)
    5280:	00068d13          	mv	s10,a3
    5284:	000e0d93          	mv	s11,t3
    5288:	000e8a13          	mv	s4,t4
    528c:	000f0a93          	mv	s5,t5
    5290:	01812903          	lw	s2,24(sp)
    5294:	05812483          	lw	s1,88(sp)
    5298:	0540006f          	j	52ec <_vfprintf_r+0x2050>
    529c:	00048593          	mv	a1,s1
    52a0:	000b8513          	mv	a0,s7
    52a4:	02c12223          	sw	a2,36(sp)
    52a8:	03f12023          	sw	t6,32(sp)
    52ac:	00512c23          	sw	t0,24(sp)
    52b0:	0a512a23          	sw	t0,180(sp)
    52b4:	0bf12c23          	sw	t6,184(sp)
    52b8:	0ac12e23          	sw	a2,188(sp)
    52bc:	0b312823          	sw	s3,176(sp)
    52c0:	0a012023          	sw	zero,160(sp)
    52c4:	0a012223          	sw	zero,164(sp)
    52c8:	0a012423          	sw	zero,168(sp)
    52cc:	0a012623          	sw	zero,172(sp)
    52d0:	60c100ef          	jal	ra,158dc <__eqtf2>
    52d4:	fffc0c13          	addi	s8,s8,-1
    52d8:	01812283          	lw	t0,24(sp)
    52dc:	02012f83          	lw	t6,32(sp)
    52e0:	02412603          	lw	a2,36(sp)
    52e4:	0e050463          	beqz	a0,53cc <_vfprintf_r+0x2130>
    52e8:	01612a23          	sw	s6,20(sp)
    52ec:	400307b7          	lui	a5,0x40030
    52f0:	00090613          	mv	a2,s2
    52f4:	00048593          	mv	a1,s1
    52f8:	000b8513          	mv	a0,s7
    52fc:	08f12e23          	sw	a5,156(sp)
    5300:	0ba12023          	sw	s10,160(sp)
    5304:	0bb12223          	sw	s11,164(sp)
    5308:	0b412423          	sw	s4,168(sp)
    530c:	0b512623          	sw	s5,172(sp)
    5310:	08012823          	sw	zero,144(sp)
    5314:	08012a23          	sw	zero,148(sp)
    5318:	08012c23          	sw	zero,152(sp)
    531c:	169100ef          	jal	ra,15c84 <__multf3>
    5320:	000b8513          	mv	a0,s7
    5324:	380130ef          	jal	ra,186a4 <__fixtfsi>
    5328:	00050593          	mv	a1,a0
    532c:	00050413          	mv	s0,a0
    5330:	000b8513          	mv	a0,s7
    5334:	0b012b03          	lw	s6,176(sp)
    5338:	0b412a03          	lw	s4,180(sp)
    533c:	0b812983          	lw	s3,184(sp)
    5340:	0bc12a83          	lw	s5,188(sp)
    5344:	4ac130ef          	jal	ra,187f0 <__floatsitf>
    5348:	0b012703          	lw	a4,176(sp)
    534c:	04c12603          	lw	a2,76(sp)
    5350:	00090593          	mv	a1,s2
    5354:	08e12023          	sw	a4,128(sp)
    5358:	0b412703          	lw	a4,180(sp)
    535c:	00048513          	mv	a0,s1
    5360:	09612823          	sw	s6,144(sp)
    5364:	08e12223          	sw	a4,132(sp)
    5368:	0b812703          	lw	a4,184(sp)
    536c:	09412a23          	sw	s4,148(sp)
    5370:	09312c23          	sw	s3,152(sp)
    5374:	08e12423          	sw	a4,136(sp)
    5378:	0bc12703          	lw	a4,188(sp)
    537c:	09512e23          	sw	s5,156(sp)
    5380:	08e12623          	sw	a4,140(sp)
    5384:	5a5110ef          	jal	ra,17128 <__subtf3>
    5388:	03412783          	lw	a5,52(sp)
    538c:	0a012983          	lw	s3,160(sp)
    5390:	0a412283          	lw	t0,164(sp)
    5394:	00878733          	add	a4,a5,s0
    5398:	01412783          	lw	a5,20(sp)
    539c:	00074683          	lbu	a3,0(a4)
    53a0:	0a812f83          	lw	t6,168(sp)
    53a4:	0ac12603          	lw	a2,172(sp)
    53a8:	00178b13          	addi	s6,a5,1 # 40030001 <bss_end+0x400054d1>
    53ac:	fedb0fa3          	sb	a3,-1(s6)
    53b0:	05812823          	sw	s8,80(sp)
    53b4:	fff00793          	li	a5,-1
    53b8:	00098d13          	mv	s10,s3
    53bc:	00028d93          	mv	s11,t0
    53c0:	000f8a13          	mv	s4,t6
    53c4:	00060a93          	mv	s5,a2
    53c8:	ecfc1ae3          	bne	s8,a5,529c <_vfprintf_r+0x2000>
    53cc:	05812a03          	lw	s4,88(sp)
    53d0:	00098393          	mv	t2,s3
    53d4:	3ffe0737          	lui	a4,0x3ffe0
    53d8:	000a0593          	mv	a1,s4
    53dc:	000b8513          	mv	a0,s7
    53e0:	06012903          	lw	s2,96(sp)
    53e4:	00812c23          	sw	s0,24(sp)
    53e8:	000b0c13          	mv	s8,s6
    53ec:	06c12483          	lw	s1,108(sp)
    53f0:	07412d83          	lw	s11,116(sp)
    53f4:	06412403          	lw	s0,100(sp)
    53f8:	07012b03          	lw	s6,112(sp)
    53fc:	07812a83          	lw	s5,120(sp)
    5400:	07c12d03          	lw	s10,124(sp)
    5404:	06812983          	lw	s3,104(sp)
    5408:	0a712823          	sw	t2,176(sp)
    540c:	06712023          	sw	t2,96(sp)
    5410:	0a512a23          	sw	t0,180(sp)
    5414:	04512623          	sw	t0,76(sp)
    5418:	0bf12c23          	sw	t6,184(sp)
    541c:	03f12223          	sw	t6,36(sp)
    5420:	0ac12e23          	sw	a2,188(sp)
    5424:	02c12023          	sw	a2,32(sp)
    5428:	0a012023          	sw	zero,160(sp)
    542c:	0a012223          	sw	zero,164(sp)
    5430:	0a012423          	sw	zero,168(sp)
    5434:	0ae12623          	sw	a4,172(sp)
    5438:	574100ef          	jal	ra,159ac <__getf2>
    543c:	66a04063          	bgtz	a0,5a9c <_vfprintf_r+0x2800>
    5440:	06012383          	lw	t2,96(sp)
    5444:	04c12283          	lw	t0,76(sp)
    5448:	02412f83          	lw	t6,36(sp)
    544c:	02012603          	lw	a2,32(sp)
    5450:	3ffe0737          	lui	a4,0x3ffe0
    5454:	000a0593          	mv	a1,s4
    5458:	000b8513          	mv	a0,s7
    545c:	0a712823          	sw	t2,176(sp)
    5460:	0a512a23          	sw	t0,180(sp)
    5464:	0bf12c23          	sw	t6,184(sp)
    5468:	0ac12e23          	sw	a2,188(sp)
    546c:	0a012023          	sw	zero,160(sp)
    5470:	0a012223          	sw	zero,164(sp)
    5474:	0a012423          	sw	zero,168(sp)
    5478:	0ae12623          	sw	a4,172(sp)
    547c:	460100ef          	jal	ra,158dc <__eqtf2>
    5480:	00051863          	bnez	a0,5490 <_vfprintf_r+0x21f4>
    5484:	01812783          	lw	a5,24(sp)
    5488:	0017fa13          	andi	s4,a5,1
    548c:	600a1863          	bnez	s4,5a9c <_vfprintf_r+0x2800>
    5490:	05012783          	lw	a5,80(sp)
    5494:	03000693          	li	a3,48
    5498:	00178713          	addi	a4,a5,1
    549c:	00ec0733          	add	a4,s8,a4
    54a0:	0007c863          	bltz	a5,54b0 <_vfprintf_r+0x2214>
    54a4:	001c0c13          	addi	s8,s8,1
    54a8:	fedc0fa3          	sb	a3,-1(s8)
    54ac:	feec1ce3          	bne	s8,a4,54a4 <_vfprintf_r+0x2208>
    54b0:	41ac07b3          	sub	a5,s8,s10
    54b4:	00f12c23          	sw	a5,24(sp)
    54b8:	975fe06f          	j	3e2c <_vfprintf_r+0xb90>
    54bc:	00098a13          	mv	s4,s3
    54c0:	d81fe06f          	j	4240 <_vfprintf_r+0xfa4>
    54c4:	01412703          	lw	a4,20(sp)
    54c8:	ffd00793          	li	a5,-3
    54cc:	00f74463          	blt	a4,a5,54d4 <_vfprintf_r+0x2238>
    54d0:	02eb5663          	bge	s6,a4,54fc <_vfprintf_r+0x2260>
    54d4:	ffe40413          	addi	s0,s0,-2
    54d8:	fdf47793          	andi	a5,s0,-33
    54dc:	04f12423          	sw	a5,72(sp)
    54e0:	975fe06f          	j	3e54 <_vfprintf_r+0xbb8>
    54e4:	02d00793          	li	a5,45
    54e8:	0cf103a3          	sb	a5,199(sp)
    54ec:	02d00713          	li	a4,45
    54f0:	00000b13          	li	s6,0
    54f4:	001a0a13          	addi	s4,s4,1
    54f8:	c38fe06f          	j	3930 <_vfprintf_r+0x694>
    54fc:	01812783          	lw	a5,24(sp)
    5500:	01412703          	lw	a4,20(sp)
    5504:	42f74263          	blt	a4,a5,5928 <_vfprintf_r+0x268c>
    5508:	05412783          	lw	a5,84(sp)
    550c:	00070b93          	mv	s7,a4
    5510:	0017f793          	andi	a5,a5,1
    5514:	00078663          	beqz	a5,5520 <_vfprintf_r+0x2284>
    5518:	02812783          	lw	a5,40(sp)
    551c:	00f70bb3          	add	s7,a4,a5
    5520:	05412783          	lw	a5,84(sp)
    5524:	4007f793          	andi	a5,a5,1024
    5528:	00078663          	beqz	a5,5534 <_vfprintf_r+0x2298>
    552c:	01412783          	lw	a5,20(sp)
    5530:	60f04263          	bgtz	a5,5b34 <_vfprintf_r+0x2898>
    5534:	fffbca13          	not	s4,s7
    5538:	41fa5a13          	srai	s4,s4,0x1f
    553c:	014bfa33          	and	s4,s7,s4
    5540:	06700413          	li	s0,103
    5544:	02012223          	sw	zero,36(sp)
    5548:	02012023          	sw	zero,32(sp)
    554c:	a35fe06f          	j	3f80 <_vfprintf_r+0xce4>
    5550:	01812703          	lw	a4,24(sp)
    5554:	02012b83          	lw	s7,32(sp)
    5558:	01212a23          	sw	s2,20(sp)
    555c:	00ed0433          	add	s0,s10,a4
    5560:	03312a23          	sw	s3,52(sp)
    5564:	04912423          	sw	s1,72(sp)
    5568:	02412903          	lw	s2,36(sp)
    556c:	03412023          	sw	s4,32(sp)
    5570:	03a12223          	sw	s10,36(sp)
    5574:	00700c13          	li	s8,7
    5578:	00040d13          	mv	s10,s0
    557c:	04012983          	lw	s3,64(sp)
    5580:	03c12483          	lw	s1,60(sp)
    5584:	000d8693          	mv	a3,s11
    5588:	00412a03          	lw	s4,4(sp)
    558c:	04412403          	lw	s0,68(sp)
    5590:	080b8863          	beqz	s7,5620 <_vfprintf_r+0x2384>
    5594:	14091e63          	bnez	s2,56f0 <_vfprintf_r+0x2454>
    5598:	fff48493          	addi	s1,s1,-1
    559c:	fffb8b93          	addi	s7,s7,-1
    55a0:	0e812703          	lw	a4,232(sp)
    55a4:	013787b3          	add	a5,a5,s3
    55a8:	0086a023          	sw	s0,0(a3)
    55ac:	00170713          	addi	a4,a4,1 # 3ffe0001 <bss_end+0x3ffb54d1>
    55b0:	0136a223          	sw	s3,4(a3)
    55b4:	0ef12623          	sw	a5,236(sp)
    55b8:	0ee12423          	sw	a4,232(sp)
    55bc:	00868693          	addi	a3,a3,8
    55c0:	12ec4c63          	blt	s8,a4,56f8 <_vfprintf_r+0x245c>
    55c4:	0004c603          	lbu	a2,0(s1)
    55c8:	416d05b3          	sub	a1,s10,s6
    55cc:	00060d93          	mv	s11,a2
    55d0:	00c5d463          	bge	a1,a2,55d8 <_vfprintf_r+0x233c>
    55d4:	00058d93          	mv	s11,a1
    55d8:	03b05663          	blez	s11,5604 <_vfprintf_r+0x2368>
    55dc:	0e812603          	lw	a2,232(sp)
    55e0:	01b787b3          	add	a5,a5,s11
    55e4:	0166a023          	sw	s6,0(a3)
    55e8:	00160613          	addi	a2,a2,1
    55ec:	01b6a223          	sw	s11,4(a3)
    55f0:	0ef12623          	sw	a5,236(sp)
    55f4:	0ec12423          	sw	a2,232(sp)
    55f8:	12cc4263          	blt	s8,a2,571c <_vfprintf_r+0x2480>
    55fc:	0004c603          	lbu	a2,0(s1)
    5600:	00868693          	addi	a3,a3,8
    5604:	fffdc593          	not	a1,s11
    5608:	41f5d593          	srai	a1,a1,0x1f
    560c:	00bdf733          	and	a4,s11,a1
    5610:	40e60db3          	sub	s11,a2,a4
    5614:	05b04063          	bgtz	s11,5654 <_vfprintf_r+0x23b8>
    5618:	00cb0b33          	add	s6,s6,a2
    561c:	f60b9ce3          	bnez	s7,5594 <_vfprintf_r+0x22f8>
    5620:	0c091863          	bnez	s2,56f0 <_vfprintf_r+0x2454>
    5624:	02412d03          	lw	s10,36(sp)
    5628:	01812703          	lw	a4,24(sp)
    562c:	02912e23          	sw	s1,60(sp)
    5630:	01412903          	lw	s2,20(sp)
    5634:	00ed0733          	add	a4,s10,a4
    5638:	03412983          	lw	s3,52(sp)
    563c:	04812483          	lw	s1,72(sp)
    5640:	02012a03          	lw	s4,32(sp)
    5644:	00068d93          	mv	s11,a3
