
main.elf:     file format elf32-littleriscv


Disassembly of section .text:

00000000 <__text_start>:
   0:	00005097          	auipc	ra,0x5
   4:	56c08093          	addi	ra,ra,1388 # 556c <__bss_start>
   8:	00005117          	auipc	sp,0x5
   c:	5f010113          	addi	sp,sp,1520 # 55f8 <__bss_end>

00000010 <_clear_bss_start>:
  10:	00114863          	blt	sp,ra,20 <_clear_bss_done>
  14:	0000a023          	sw	zero,0(ra)
  18:	00408093          	addi	ra,ra,4
  1c:	ff5ff06f          	j	10 <_clear_bss_start>

00000020 <_clear_bss_done>:
  20:	00010137          	lui	sp,0x10
  24:	008000ef          	jal	ra,2c <main>

00000028 <_stop>:
  28:	0000006f          	j	28 <_stop>

0000002c <main>:
  2c:	fe010113          	addi	sp,sp,-32 # ffe0 <__bss_end+0xa9e8>
  30:	00812e23          	sw	s0,28(sp)
  34:	02010413          	addi	s0,sp,32
  38:	000057b7          	lui	a5,0x5
  3c:	5687a783          	lw	a5,1384(a5) # 5568 <GPIO>
  40:	00f00713          	li	a4,15
  44:	00e7a423          	sw	a4,8(a5)
  48:	000057b7          	lui	a5,0x5
  4c:	5687a783          	lw	a5,1384(a5) # 5568 <GPIO>
  50:	0007a023          	sw	zero,0(a5)
  54:	0007a7b7          	lui	a5,0x7a
  58:	12078793          	addi	a5,a5,288 # 7a120 <__bss_end+0x74b28>
  5c:	fef42623          	sw	a5,-20(s0)
  60:	00000013          	nop
  64:	fec42783          	lw	a5,-20(s0)
  68:	fff78713          	addi	a4,a5,-1
  6c:	fee42623          	sw	a4,-20(s0)
  70:	fe079ae3          	bnez	a5,64 <main+0x38>
  74:	000057b7          	lui	a5,0x5
  78:	5687a783          	lw	a5,1384(a5) # 5568 <GPIO>
  7c:	0007a703          	lw	a4,0(a5)
  80:	fff70713          	addi	a4,a4,-1
  84:	00e7a023          	sw	a4,0(a5)
  88:	fcdff06f          	j	54 <main+0x28>

0000008c <FFT>:
  8c:	f7010113          	addi	sp,sp,-144
  90:	08112623          	sw	ra,140(sp)
  94:	08812423          	sw	s0,136(sp)
  98:	08912223          	sw	s1,132(sp)
  9c:	09212023          	sw	s2,128(sp)
  a0:	07312e23          	sw	s3,124(sp)
  a4:	09010413          	addi	s0,sp,144
  a8:	f6a42e23          	sw	a0,-132(s0)
  ac:	f6b42c23          	sw	a1,-136(s0)
  b0:	fc042423          	sw	zero,-56(s0)
  b4:	fa042823          	sw	zero,-80(s0)
  b8:	fa042a23          	sw	zero,-76(s0)
  bc:	f7c42783          	lw	a5,-132(s0)
  c0:	260782e3          	beqz	a5,b24 <FFT+0xa98>
  c4:	f7842703          	lw	a4,-136(s0)
  c8:	00100793          	li	a5,1
  cc:	24f70ce3          	beq	a4,a5,b24 <FFT+0xa98>
  d0:	f7c42783          	lw	a5,-132(s0)
  d4:	faf42623          	sw	a5,-84(s0)
  d8:	fc042c23          	sw	zero,-40(s0)
  dc:	0400006f          	j	11c <FFT+0x90>
  e0:	fd842783          	lw	a5,-40(s0)
  e4:	00100713          	li	a4,1
  e8:	00f717b3          	sll	a5,a4,a5
  ec:	00078713          	mv	a4,a5
  f0:	f7842783          	lw	a5,-136(s0)
  f4:	00f777b3          	and	a5,a4,a5
  f8:	00078c63          	beqz	a5,110 <FFT+0x84>
  fc:	fd842783          	lw	a5,-40(s0)
 100:	fcf42e23          	sw	a5,-36(s0)
 104:	fc842783          	lw	a5,-56(s0)
 108:	00178793          	addi	a5,a5,1
 10c:	fcf42423          	sw	a5,-56(s0)
 110:	fd842783          	lw	a5,-40(s0)
 114:	00178793          	addi	a5,a5,1
 118:	fcf42c23          	sw	a5,-40(s0)
 11c:	fd842703          	lw	a4,-40(s0)
 120:	01f00793          	li	a5,31
 124:	fae7fee3          	bgeu	a5,a4,e0 <FFT+0x54>
 128:	fc842703          	lw	a4,-56(s0)
 12c:	00100793          	li	a5,1
 130:	1ef71ee3          	bne	a4,a5,b2c <FFT+0xaa0>
 134:	000057b7          	lui	a5,0x5
 138:	5707a783          	lw	a5,1392(a5) # 5570 <lastNum.2149>
 13c:	f7842703          	lw	a4,-136(s0)
 140:	28f70263          	beq	a4,a5,3c4 <FFT+0x338>
 144:	f7842703          	lw	a4,-136(s0)
 148:	01000793          	li	a5,16
 14c:	1ee7e4e3          	bltu	a5,a4,b34 <FFT+0xaa8>
 150:	000057b7          	lui	a5,0x5
 154:	f7842703          	lw	a4,-136(s0)
 158:	56e7a823          	sw	a4,1392(a5) # 5570 <lastNum.2149>
 15c:	f7842783          	lw	a5,-136(s0)
 160:	0017d793          	srli	a5,a5,0x1
 164:	fcf42423          	sw	a5,-56(s0)
 168:	f7842503          	lw	a0,-136(s0)
 16c:	61d040ef          	jal	ra,4f88 <__floatunsidf>
 170:	00050693          	mv	a3,a0
 174:	00058713          	mv	a4,a1
 178:	000057b7          	lui	a5,0x5
 17c:	00068613          	mv	a2,a3
 180:	00070693          	mv	a3,a4
 184:	0d07a503          	lw	a0,208(a5) # 50d0 <__clzsi2+0x98>
 188:	0d47a583          	lw	a1,212(a5)
 18c:	308030ef          	jal	ra,3494 <__divdf3>
 190:	00050793          	mv	a5,a0
 194:	00058813          	mv	a6,a1
 198:	00078513          	mv	a0,a5
 19c:	00080593          	mv	a1,a6
 1a0:	28d000ef          	jal	ra,c2c <cos>
 1a4:	00050793          	mv	a5,a0
 1a8:	00058813          	mv	a6,a1
 1ac:	f8f42c23          	sw	a5,-104(s0)
 1b0:	f9042e23          	sw	a6,-100(s0)
 1b4:	f7842503          	lw	a0,-136(s0)
 1b8:	5d1040ef          	jal	ra,4f88 <__floatunsidf>
 1bc:	00050693          	mv	a3,a0
 1c0:	00058713          	mv	a4,a1
 1c4:	000057b7          	lui	a5,0x5
 1c8:	00068613          	mv	a2,a3
 1cc:	00070693          	mv	a3,a4
 1d0:	0d07a503          	lw	a0,208(a5) # 50d0 <__clzsi2+0x98>
 1d4:	0d47a583          	lw	a1,212(a5)
 1d8:	2bc030ef          	jal	ra,3494 <__divdf3>
 1dc:	00050793          	mv	a5,a0
 1e0:	00058813          	mv	a6,a1
 1e4:	00078513          	mv	a0,a5
 1e8:	00080593          	mv	a1,a6
 1ec:	325000ef          	jal	ra,d10 <sin>
 1f0:	00050793          	mv	a5,a0
 1f4:	00058813          	mv	a6,a1
 1f8:	00078913          	mv	s2,a5
 1fc:	80000737          	lui	a4,0x80000
 200:	00e849b3          	xor	s3,a6,a4
 204:	fb242023          	sw	s2,-96(s0)
 208:	fb342223          	sw	s3,-92(s0)
 20c:	00005737          	lui	a4,0x5
 210:	000057b7          	lui	a5,0x5
 214:	0dc7a803          	lw	a6,220(a5) # 50dc <__clzsi2+0xa4>
 218:	0d87a783          	lw	a5,216(a5)
 21c:	56f72c23          	sw	a5,1400(a4) # 5578 <W>
 220:	57072e23          	sw	a6,1404(a4)
 224:	000057b7          	lui	a5,0x5
 228:	57878793          	addi	a5,a5,1400 # 5578 <W>
 22c:	0007a423          	sw	zero,8(a5)
 230:	0007a623          	sw	zero,12(a5)
 234:	00100793          	li	a5,1
 238:	fcf42623          	sw	a5,-52(s0)
 23c:	17c0006f          	j	3b8 <FFT+0x32c>
 240:	000057b7          	lui	a5,0x5
 244:	fcc42703          	lw	a4,-52(s0)
 248:	00471713          	slli	a4,a4,0x4
 24c:	57878793          	addi	a5,a5,1400 # 5578 <W>
 250:	00f707b3          	add	a5,a4,a5
 254:	f9842583          	lw	a1,-104(s0)
 258:	f9c42603          	lw	a2,-100(s0)
 25c:	fa042683          	lw	a3,-96(s0)
 260:	fa442703          	lw	a4,-92(s0)
 264:	00b7a023          	sw	a1,0(a5)
 268:	00c7a223          	sw	a2,4(a5)
 26c:	00d7a423          	sw	a3,8(a5)
 270:	00e7a623          	sw	a4,12(a5)
 274:	f9842783          	lw	a5,-104(s0)
 278:	f9c42803          	lw	a6,-100(s0)
 27c:	00005737          	lui	a4,0x5
 280:	57870713          	addi	a4,a4,1400 # 5578 <W>
 284:	01072683          	lw	a3,16(a4)
 288:	01472703          	lw	a4,20(a4)
 28c:	00068613          	mv	a2,a3
 290:	00070693          	mv	a3,a4
 294:	00078513          	mv	a0,a5
 298:	00080593          	mv	a1,a6
 29c:	419030ef          	jal	ra,3eb4 <__muldf3>
 2a0:	00050793          	mv	a5,a0
 2a4:	00058813          	mv	a6,a1
 2a8:	00078913          	mv	s2,a5
 2ac:	00080993          	mv	s3,a6
 2b0:	fa042783          	lw	a5,-96(s0)
 2b4:	fa442803          	lw	a6,-92(s0)
 2b8:	00005737          	lui	a4,0x5
 2bc:	57870713          	addi	a4,a4,1400 # 5578 <W>
 2c0:	01872683          	lw	a3,24(a4)
 2c4:	01c72703          	lw	a4,28(a4)
 2c8:	00068613          	mv	a2,a3
 2cc:	00070693          	mv	a3,a4
 2d0:	00078513          	mv	a0,a5
 2d4:	00080593          	mv	a1,a6
 2d8:	3dd030ef          	jal	ra,3eb4 <__muldf3>
 2dc:	00050793          	mv	a5,a0
 2e0:	00058813          	mv	a6,a1
 2e4:	00078613          	mv	a2,a5
 2e8:	00080693          	mv	a3,a6
 2ec:	00090513          	mv	a0,s2
 2f0:	00098593          	mv	a1,s3
 2f4:	2d4040ef          	jal	ra,45c8 <__subdf3>
 2f8:	00050793          	mv	a5,a0
 2fc:	00058813          	mv	a6,a1
 300:	faf42823          	sw	a5,-80(s0)
 304:	fb042a23          	sw	a6,-76(s0)
 308:	f9842783          	lw	a5,-104(s0)
 30c:	f9c42803          	lw	a6,-100(s0)
 310:	00005737          	lui	a4,0x5
 314:	57870713          	addi	a4,a4,1400 # 5578 <W>
 318:	01872683          	lw	a3,24(a4)
 31c:	01c72703          	lw	a4,28(a4)
 320:	00068613          	mv	a2,a3
 324:	00070693          	mv	a3,a4
 328:	00078513          	mv	a0,a5
 32c:	00080593          	mv	a1,a6
 330:	385030ef          	jal	ra,3eb4 <__muldf3>
 334:	00050793          	mv	a5,a0
 338:	00058813          	mv	a6,a1
 33c:	00078913          	mv	s2,a5
 340:	00080993          	mv	s3,a6
 344:	fa042783          	lw	a5,-96(s0)
 348:	fa442803          	lw	a6,-92(s0)
 34c:	00005737          	lui	a4,0x5
 350:	57870713          	addi	a4,a4,1400 # 5578 <W>
 354:	01072683          	lw	a3,16(a4)
 358:	01472703          	lw	a4,20(a4)
 35c:	00068613          	mv	a2,a3
 360:	00070693          	mv	a3,a4
 364:	00078513          	mv	a0,a5
 368:	00080593          	mv	a1,a6
 36c:	349030ef          	jal	ra,3eb4 <__muldf3>
 370:	00050793          	mv	a5,a0
 374:	00058813          	mv	a6,a1
 378:	00078613          	mv	a2,a5
 37c:	00080693          	mv	a3,a6
 380:	00090513          	mv	a0,s2
 384:	00098593          	mv	a1,s3
 388:	089020ef          	jal	ra,2c10 <__adddf3>
 38c:	00050793          	mv	a5,a0
 390:	00058813          	mv	a6,a1
 394:	faf42023          	sw	a5,-96(s0)
 398:	fb042223          	sw	a6,-92(s0)
 39c:	fb042783          	lw	a5,-80(s0)
 3a0:	fb442803          	lw	a6,-76(s0)
 3a4:	f8f42c23          	sw	a5,-104(s0)
 3a8:	f9042e23          	sw	a6,-100(s0)
 3ac:	fcc42783          	lw	a5,-52(s0)
 3b0:	00178793          	addi	a5,a5,1
 3b4:	fcf42623          	sw	a5,-52(s0)
 3b8:	fcc42703          	lw	a4,-52(s0)
 3bc:	fc842783          	lw	a5,-56(s0)
 3c0:	e8f760e3          	bltu	a4,a5,240 <FFT+0x1b4>
 3c4:	f7842783          	lw	a5,-136(s0)
 3c8:	fcf42223          	sw	a5,-60(s0)
 3cc:	00100793          	li	a5,1
 3d0:	faf42e23          	sw	a5,-68(s0)
 3d4:	fc042823          	sw	zero,-48(s0)
 3d8:	62c0006f          	j	a04 <FFT+0x978>
 3dc:	fc442783          	lw	a5,-60(s0)
 3e0:	0017d793          	srli	a5,a5,0x1
 3e4:	fcf42223          	sw	a5,-60(s0)
 3e8:	fc042c23          	sw	zero,-40(s0)
 3ec:	1e80006f          	j	5d4 <FFT+0x548>
 3f0:	fd842783          	lw	a5,-40(s0)
 3f4:	00479793          	slli	a5,a5,0x4
 3f8:	fac42703          	lw	a4,-84(s0)
 3fc:	00f707b3          	add	a5,a4,a5
 400:	0047a803          	lw	a6,4(a5)
 404:	0007a783          	lw	a5,0(a5)
 408:	fd842683          	lw	a3,-40(s0)
 40c:	fc442703          	lw	a4,-60(s0)
 410:	00e68733          	add	a4,a3,a4
 414:	00471713          	slli	a4,a4,0x4
 418:	fac42683          	lw	a3,-84(s0)
 41c:	00e68733          	add	a4,a3,a4
 420:	00072683          	lw	a3,0(a4)
 424:	00472703          	lw	a4,4(a4)
 428:	00068613          	mv	a2,a3
 42c:	00070693          	mv	a3,a4
 430:	00078513          	mv	a0,a5
 434:	00080593          	mv	a1,a6
 438:	7d8020ef          	jal	ra,2c10 <__adddf3>
 43c:	00050793          	mv	a5,a0
 440:	00058813          	mv	a6,a1
 444:	f8f42c23          	sw	a5,-104(s0)
 448:	f9042e23          	sw	a6,-100(s0)
 44c:	fd842783          	lw	a5,-40(s0)
 450:	00479793          	slli	a5,a5,0x4
 454:	fac42703          	lw	a4,-84(s0)
 458:	00f707b3          	add	a5,a4,a5
 45c:	00c7a803          	lw	a6,12(a5)
 460:	0087a783          	lw	a5,8(a5)
 464:	fd842683          	lw	a3,-40(s0)
 468:	fc442703          	lw	a4,-60(s0)
 46c:	00e68733          	add	a4,a3,a4
 470:	00471713          	slli	a4,a4,0x4
 474:	fac42683          	lw	a3,-84(s0)
 478:	00e68733          	add	a4,a3,a4
 47c:	00872683          	lw	a3,8(a4)
 480:	00c72703          	lw	a4,12(a4)
 484:	00068613          	mv	a2,a3
 488:	00070693          	mv	a3,a4
 48c:	00078513          	mv	a0,a5
 490:	00080593          	mv	a1,a6
 494:	77c020ef          	jal	ra,2c10 <__adddf3>
 498:	00050793          	mv	a5,a0
 49c:	00058813          	mv	a6,a1
 4a0:	faf42023          	sw	a5,-96(s0)
 4a4:	fb042223          	sw	a6,-92(s0)
 4a8:	fd842783          	lw	a5,-40(s0)
 4ac:	00479793          	slli	a5,a5,0x4
 4b0:	fac42703          	lw	a4,-84(s0)
 4b4:	00f707b3          	add	a5,a4,a5
 4b8:	0047a803          	lw	a6,4(a5)
 4bc:	0007a783          	lw	a5,0(a5)
 4c0:	fd842683          	lw	a3,-40(s0)
 4c4:	fc442703          	lw	a4,-60(s0)
 4c8:	00e68733          	add	a4,a3,a4
 4cc:	00471713          	slli	a4,a4,0x4
 4d0:	fac42683          	lw	a3,-84(s0)
 4d4:	00e68733          	add	a4,a3,a4
 4d8:	00072683          	lw	a3,0(a4)
 4dc:	00472703          	lw	a4,4(a4)
 4e0:	fd842583          	lw	a1,-40(s0)
 4e4:	fc442603          	lw	a2,-60(s0)
 4e8:	00c58633          	add	a2,a1,a2
 4ec:	00461613          	slli	a2,a2,0x4
 4f0:	fac42583          	lw	a1,-84(s0)
 4f4:	00c584b3          	add	s1,a1,a2
 4f8:	00068613          	mv	a2,a3
 4fc:	00070693          	mv	a3,a4
 500:	00078513          	mv	a0,a5
 504:	00080593          	mv	a1,a6
 508:	0c0040ef          	jal	ra,45c8 <__subdf3>
 50c:	00050793          	mv	a5,a0
 510:	00058813          	mv	a6,a1
 514:	00f4a023          	sw	a5,0(s1)
 518:	0104a223          	sw	a6,4(s1)
 51c:	fd842783          	lw	a5,-40(s0)
 520:	00479793          	slli	a5,a5,0x4
 524:	fac42703          	lw	a4,-84(s0)
 528:	00f707b3          	add	a5,a4,a5
 52c:	00c7a803          	lw	a6,12(a5)
 530:	0087a783          	lw	a5,8(a5)
 534:	fd842683          	lw	a3,-40(s0)
 538:	fc442703          	lw	a4,-60(s0)
 53c:	00e68733          	add	a4,a3,a4
 540:	00471713          	slli	a4,a4,0x4
 544:	fac42683          	lw	a3,-84(s0)
 548:	00e68733          	add	a4,a3,a4
 54c:	00872683          	lw	a3,8(a4)
 550:	00c72703          	lw	a4,12(a4)
 554:	fd842583          	lw	a1,-40(s0)
 558:	fc442603          	lw	a2,-60(s0)
 55c:	00c58633          	add	a2,a1,a2
 560:	00461613          	slli	a2,a2,0x4
 564:	fac42583          	lw	a1,-84(s0)
 568:	00c584b3          	add	s1,a1,a2
 56c:	00068613          	mv	a2,a3
 570:	00070693          	mv	a3,a4
 574:	00078513          	mv	a0,a5
 578:	00080593          	mv	a1,a6
 57c:	04c040ef          	jal	ra,45c8 <__subdf3>
 580:	00050793          	mv	a5,a0
 584:	00058813          	mv	a6,a1
 588:	00f4a423          	sw	a5,8(s1)
 58c:	0104a623          	sw	a6,12(s1)
 590:	fd842783          	lw	a5,-40(s0)
 594:	00479793          	slli	a5,a5,0x4
 598:	fac42703          	lw	a4,-84(s0)
 59c:	00f707b3          	add	a5,a4,a5
 5a0:	f9842583          	lw	a1,-104(s0)
 5a4:	f9c42603          	lw	a2,-100(s0)
 5a8:	fa042683          	lw	a3,-96(s0)
 5ac:	fa442703          	lw	a4,-92(s0)
 5b0:	00b7a023          	sw	a1,0(a5)
 5b4:	00c7a223          	sw	a2,4(a5)
 5b8:	00d7a423          	sw	a3,8(a5)
 5bc:	00e7a623          	sw	a4,12(a5)
 5c0:	fc442783          	lw	a5,-60(s0)
 5c4:	00179793          	slli	a5,a5,0x1
 5c8:	fd842703          	lw	a4,-40(s0)
 5cc:	00f707b3          	add	a5,a4,a5
 5d0:	fcf42c23          	sw	a5,-40(s0)
 5d4:	fd842703          	lw	a4,-40(s0)
 5d8:	f7842783          	lw	a5,-136(s0)
 5dc:	e0f76ae3          	bltu	a4,a5,3f0 <FFT+0x364>
 5e0:	fbc42783          	lw	a5,-68(s0)
 5e4:	fcf42023          	sw	a5,-64(s0)
 5e8:	00100793          	li	a5,1
 5ec:	fcf42c23          	sw	a5,-40(s0)
 5f0:	3f00006f          	j	9e0 <FFT+0x954>
 5f4:	000057b7          	lui	a5,0x5
 5f8:	fc042703          	lw	a4,-64(s0)
 5fc:	00471713          	slli	a4,a4,0x4
 600:	57878793          	addi	a5,a5,1400 # 5578 <W>
 604:	00f707b3          	add	a5,a4,a5
 608:	0007a603          	lw	a2,0(a5)
 60c:	0047a683          	lw	a3,4(a5)
 610:	0087a703          	lw	a4,8(a5)
 614:	00c7a783          	lw	a5,12(a5)
 618:	f8c42423          	sw	a2,-120(s0)
 61c:	f8d42623          	sw	a3,-116(s0)
 620:	f8e42823          	sw	a4,-112(s0)
 624:	f8f42a23          	sw	a5,-108(s0)
 628:	fd842783          	lw	a5,-40(s0)
 62c:	fcf42a23          	sw	a5,-44(s0)
 630:	3880006f          	j	9b8 <FFT+0x92c>
 634:	fd442783          	lw	a5,-44(s0)
 638:	00479793          	slli	a5,a5,0x4
 63c:	fac42703          	lw	a4,-84(s0)
 640:	00f707b3          	add	a5,a4,a5
 644:	0047a803          	lw	a6,4(a5)
 648:	0007a783          	lw	a5,0(a5)
 64c:	fd442683          	lw	a3,-44(s0)
 650:	fc442703          	lw	a4,-60(s0)
 654:	00e68733          	add	a4,a3,a4
 658:	00471713          	slli	a4,a4,0x4
 65c:	fac42683          	lw	a3,-84(s0)
 660:	00e68733          	add	a4,a3,a4
 664:	00072683          	lw	a3,0(a4)
 668:	00472703          	lw	a4,4(a4)
 66c:	00068613          	mv	a2,a3
 670:	00070693          	mv	a3,a4
 674:	00078513          	mv	a0,a5
 678:	00080593          	mv	a1,a6
 67c:	594020ef          	jal	ra,2c10 <__adddf3>
 680:	00050793          	mv	a5,a0
 684:	00058813          	mv	a6,a1
 688:	f8f42c23          	sw	a5,-104(s0)
 68c:	f9042e23          	sw	a6,-100(s0)
 690:	fd442783          	lw	a5,-44(s0)
 694:	00479793          	slli	a5,a5,0x4
 698:	fac42703          	lw	a4,-84(s0)
 69c:	00f707b3          	add	a5,a4,a5
 6a0:	00c7a803          	lw	a6,12(a5)
 6a4:	0087a783          	lw	a5,8(a5)
 6a8:	fd442683          	lw	a3,-44(s0)
 6ac:	fc442703          	lw	a4,-60(s0)
 6b0:	00e68733          	add	a4,a3,a4
 6b4:	00471713          	slli	a4,a4,0x4
 6b8:	fac42683          	lw	a3,-84(s0)
 6bc:	00e68733          	add	a4,a3,a4
 6c0:	00872683          	lw	a3,8(a4)
 6c4:	00c72703          	lw	a4,12(a4)
 6c8:	00068613          	mv	a2,a3
 6cc:	00070693          	mv	a3,a4
 6d0:	00078513          	mv	a0,a5
 6d4:	00080593          	mv	a1,a6
 6d8:	538020ef          	jal	ra,2c10 <__adddf3>
 6dc:	00050793          	mv	a5,a0
 6e0:	00058813          	mv	a6,a1
 6e4:	faf42023          	sw	a5,-96(s0)
 6e8:	fb042223          	sw	a6,-92(s0)
 6ec:	fd442783          	lw	a5,-44(s0)
 6f0:	00479793          	slli	a5,a5,0x4
 6f4:	fac42703          	lw	a4,-84(s0)
 6f8:	00f707b3          	add	a5,a4,a5
 6fc:	0047a803          	lw	a6,4(a5)
 700:	0007a783          	lw	a5,0(a5)
 704:	fd442683          	lw	a3,-44(s0)
 708:	fc442703          	lw	a4,-60(s0)
 70c:	00e68733          	add	a4,a3,a4
 710:	00471713          	slli	a4,a4,0x4
 714:	fac42683          	lw	a3,-84(s0)
 718:	00e68733          	add	a4,a3,a4
 71c:	00072683          	lw	a3,0(a4)
 720:	00472703          	lw	a4,4(a4)
 724:	fd442583          	lw	a1,-44(s0)
 728:	fc442603          	lw	a2,-60(s0)
 72c:	00c58633          	add	a2,a1,a2
 730:	00461613          	slli	a2,a2,0x4
 734:	fac42583          	lw	a1,-84(s0)
 738:	00c584b3          	add	s1,a1,a2
 73c:	00068613          	mv	a2,a3
 740:	00070693          	mv	a3,a4
 744:	00078513          	mv	a0,a5
 748:	00080593          	mv	a1,a6
 74c:	67d030ef          	jal	ra,45c8 <__subdf3>
 750:	00050793          	mv	a5,a0
 754:	00058813          	mv	a6,a1
 758:	00f4a023          	sw	a5,0(s1)
 75c:	0104a223          	sw	a6,4(s1)
 760:	fd442783          	lw	a5,-44(s0)
 764:	00479793          	slli	a5,a5,0x4
 768:	fac42703          	lw	a4,-84(s0)
 76c:	00f707b3          	add	a5,a4,a5
 770:	00c7a803          	lw	a6,12(a5)
 774:	0087a783          	lw	a5,8(a5)
 778:	fd442683          	lw	a3,-44(s0)
 77c:	fc442703          	lw	a4,-60(s0)
 780:	00e68733          	add	a4,a3,a4
 784:	00471713          	slli	a4,a4,0x4
 788:	fac42683          	lw	a3,-84(s0)
 78c:	00e68733          	add	a4,a3,a4
 790:	00872683          	lw	a3,8(a4)
 794:	00c72703          	lw	a4,12(a4)
 798:	fd442583          	lw	a1,-44(s0)
 79c:	fc442603          	lw	a2,-60(s0)
 7a0:	00c58633          	add	a2,a1,a2
 7a4:	00461613          	slli	a2,a2,0x4
 7a8:	fac42583          	lw	a1,-84(s0)
 7ac:	00c584b3          	add	s1,a1,a2
 7b0:	00068613          	mv	a2,a3
 7b4:	00070693          	mv	a3,a4
 7b8:	00078513          	mv	a0,a5
 7bc:	00080593          	mv	a1,a6
 7c0:	609030ef          	jal	ra,45c8 <__subdf3>
 7c4:	00050793          	mv	a5,a0
 7c8:	00058813          	mv	a6,a1
 7cc:	00f4a423          	sw	a5,8(s1)
 7d0:	0104a623          	sw	a6,12(s1)
 7d4:	fd442783          	lw	a5,-44(s0)
 7d8:	00479793          	slli	a5,a5,0x4
 7dc:	fac42703          	lw	a4,-84(s0)
 7e0:	00f707b3          	add	a5,a4,a5
 7e4:	f9842583          	lw	a1,-104(s0)
 7e8:	f9c42603          	lw	a2,-100(s0)
 7ec:	fa042683          	lw	a3,-96(s0)
 7f0:	fa442703          	lw	a4,-92(s0)
 7f4:	00b7a023          	sw	a1,0(a5)
 7f8:	00c7a223          	sw	a2,4(a5)
 7fc:	00d7a423          	sw	a3,8(a5)
 800:	00e7a623          	sw	a4,12(a5)
 804:	fd442703          	lw	a4,-44(s0)
 808:	fc442783          	lw	a5,-60(s0)
 80c:	00f707b3          	add	a5,a4,a5
 810:	00479793          	slli	a5,a5,0x4
 814:	fac42703          	lw	a4,-84(s0)
 818:	00f707b3          	add	a5,a4,a5
 81c:	0047a803          	lw	a6,4(a5)
 820:	0007a783          	lw	a5,0(a5)
 824:	f8842683          	lw	a3,-120(s0)
 828:	f8c42703          	lw	a4,-116(s0)
 82c:	00068613          	mv	a2,a3
 830:	00070693          	mv	a3,a4
 834:	00078513          	mv	a0,a5
 838:	00080593          	mv	a1,a6
 83c:	678030ef          	jal	ra,3eb4 <__muldf3>
 840:	00050793          	mv	a5,a0
 844:	00058813          	mv	a6,a1
 848:	00078913          	mv	s2,a5
 84c:	00080993          	mv	s3,a6
 850:	fd442703          	lw	a4,-44(s0)
 854:	fc442783          	lw	a5,-60(s0)
 858:	00f707b3          	add	a5,a4,a5
 85c:	00479793          	slli	a5,a5,0x4
 860:	fac42703          	lw	a4,-84(s0)
 864:	00f707b3          	add	a5,a4,a5
 868:	00c7a803          	lw	a6,12(a5)
 86c:	0087a783          	lw	a5,8(a5)
 870:	f9042683          	lw	a3,-112(s0)
 874:	f9442703          	lw	a4,-108(s0)
 878:	00068613          	mv	a2,a3
 87c:	00070693          	mv	a3,a4
 880:	00078513          	mv	a0,a5
 884:	00080593          	mv	a1,a6
 888:	62c030ef          	jal	ra,3eb4 <__muldf3>
 88c:	00050793          	mv	a5,a0
 890:	00058813          	mv	a6,a1
 894:	00078613          	mv	a2,a5
 898:	00080693          	mv	a3,a6
 89c:	00090513          	mv	a0,s2
 8a0:	00098593          	mv	a1,s3
 8a4:	525030ef          	jal	ra,45c8 <__subdf3>
 8a8:	00050793          	mv	a5,a0
 8ac:	00058813          	mv	a6,a1
 8b0:	f8f42c23          	sw	a5,-104(s0)
 8b4:	f9042e23          	sw	a6,-100(s0)
 8b8:	fd442703          	lw	a4,-44(s0)
 8bc:	fc442783          	lw	a5,-60(s0)
 8c0:	00f707b3          	add	a5,a4,a5
 8c4:	00479793          	slli	a5,a5,0x4
 8c8:	fac42703          	lw	a4,-84(s0)
 8cc:	00f707b3          	add	a5,a4,a5
 8d0:	0047a803          	lw	a6,4(a5)
 8d4:	0007a783          	lw	a5,0(a5)
 8d8:	f9042683          	lw	a3,-112(s0)
 8dc:	f9442703          	lw	a4,-108(s0)
 8e0:	00068613          	mv	a2,a3
 8e4:	00070693          	mv	a3,a4
 8e8:	00078513          	mv	a0,a5
 8ec:	00080593          	mv	a1,a6
 8f0:	5c4030ef          	jal	ra,3eb4 <__muldf3>
 8f4:	00050793          	mv	a5,a0
 8f8:	00058813          	mv	a6,a1
 8fc:	00078913          	mv	s2,a5
 900:	00080993          	mv	s3,a6
 904:	fd442703          	lw	a4,-44(s0)
 908:	fc442783          	lw	a5,-60(s0)
 90c:	00f707b3          	add	a5,a4,a5
 910:	00479793          	slli	a5,a5,0x4
 914:	fac42703          	lw	a4,-84(s0)
 918:	00f707b3          	add	a5,a4,a5
 91c:	00c7a803          	lw	a6,12(a5)
 920:	0087a783          	lw	a5,8(a5)
 924:	f8842683          	lw	a3,-120(s0)
 928:	f8c42703          	lw	a4,-116(s0)
 92c:	00068613          	mv	a2,a3
 930:	00070693          	mv	a3,a4
 934:	00078513          	mv	a0,a5
 938:	00080593          	mv	a1,a6
 93c:	578030ef          	jal	ra,3eb4 <__muldf3>
 940:	00050793          	mv	a5,a0
 944:	00058813          	mv	a6,a1
 948:	00078613          	mv	a2,a5
 94c:	00080693          	mv	a3,a6
 950:	00090513          	mv	a0,s2
 954:	00098593          	mv	a1,s3
 958:	2b8020ef          	jal	ra,2c10 <__adddf3>
 95c:	00050793          	mv	a5,a0
 960:	00058813          	mv	a6,a1
 964:	faf42023          	sw	a5,-96(s0)
 968:	fb042223          	sw	a6,-92(s0)
 96c:	fd442703          	lw	a4,-44(s0)
 970:	fc442783          	lw	a5,-60(s0)
 974:	00f707b3          	add	a5,a4,a5
 978:	00479793          	slli	a5,a5,0x4
 97c:	fac42703          	lw	a4,-84(s0)
 980:	00f707b3          	add	a5,a4,a5
 984:	f9842583          	lw	a1,-104(s0)
 988:	f9c42603          	lw	a2,-100(s0)
 98c:	fa042683          	lw	a3,-96(s0)
 990:	fa442703          	lw	a4,-92(s0)
 994:	00b7a023          	sw	a1,0(a5)
 998:	00c7a223          	sw	a2,4(a5)
 99c:	00d7a423          	sw	a3,8(a5)
 9a0:	00e7a623          	sw	a4,12(a5)
 9a4:	fc442783          	lw	a5,-60(s0)
 9a8:	00179793          	slli	a5,a5,0x1
 9ac:	fd442703          	lw	a4,-44(s0)
 9b0:	00f707b3          	add	a5,a4,a5
 9b4:	fcf42a23          	sw	a5,-44(s0)
 9b8:	fd442703          	lw	a4,-44(s0)
 9bc:	f7842783          	lw	a5,-136(s0)
 9c0:	c6f76ae3          	bltu	a4,a5,634 <FFT+0x5a8>
 9c4:	fc042703          	lw	a4,-64(s0)
 9c8:	fbc42783          	lw	a5,-68(s0)
 9cc:	00f707b3          	add	a5,a4,a5
 9d0:	fcf42023          	sw	a5,-64(s0)
 9d4:	fd842783          	lw	a5,-40(s0)
 9d8:	00178793          	addi	a5,a5,1
 9dc:	fcf42c23          	sw	a5,-40(s0)
 9e0:	fd842703          	lw	a4,-40(s0)
 9e4:	fc442783          	lw	a5,-60(s0)
 9e8:	c0f766e3          	bltu	a4,a5,5f4 <FFT+0x568>
 9ec:	fbc42783          	lw	a5,-68(s0)
 9f0:	00179793          	slli	a5,a5,0x1
 9f4:	faf42e23          	sw	a5,-68(s0)
 9f8:	fd042783          	lw	a5,-48(s0)
 9fc:	00178793          	addi	a5,a5,1
 a00:	fcf42823          	sw	a5,-48(s0)
 a04:	fd042703          	lw	a4,-48(s0)
 a08:	fdc42783          	lw	a5,-36(s0)
 a0c:	9cf768e3          	bltu	a4,a5,3dc <FFT+0x350>
 a10:	fc042c23          	sw	zero,-40(s0)
 a14:	1000006f          	j	b14 <FFT+0xa88>
 a18:	fc042a23          	sw	zero,-44(s0)
 a1c:	fc042823          	sw	zero,-48(s0)
 a20:	0300006f          	j	a50 <FFT+0x9c4>
 a24:	fd442783          	lw	a5,-44(s0)
 a28:	00179713          	slli	a4,a5,0x1
 a2c:	fd042783          	lw	a5,-48(s0)
 a30:	fd842683          	lw	a3,-40(s0)
 a34:	00f6d7b3          	srl	a5,a3,a5
 a38:	0017f793          	andi	a5,a5,1
 a3c:	00f767b3          	or	a5,a4,a5
 a40:	fcf42a23          	sw	a5,-44(s0)
 a44:	fd042783          	lw	a5,-48(s0)
 a48:	00178793          	addi	a5,a5,1
 a4c:	fcf42823          	sw	a5,-48(s0)
 a50:	fd042703          	lw	a4,-48(s0)
 a54:	fdc42783          	lw	a5,-36(s0)
 a58:	fcf766e3          	bltu	a4,a5,a24 <FFT+0x998>
 a5c:	fd842703          	lw	a4,-40(s0)
 a60:	fd442783          	lw	a5,-44(s0)
 a64:	0af77263          	bgeu	a4,a5,b08 <FFT+0xa7c>
 a68:	fd842783          	lw	a5,-40(s0)
 a6c:	00479793          	slli	a5,a5,0x4
 a70:	fac42703          	lw	a4,-84(s0)
 a74:	00f707b3          	add	a5,a4,a5
 a78:	0007a603          	lw	a2,0(a5)
 a7c:	0047a683          	lw	a3,4(a5)
 a80:	0087a703          	lw	a4,8(a5)
 a84:	00c7a783          	lw	a5,12(a5)
 a88:	f8c42c23          	sw	a2,-104(s0)
 a8c:	f8d42e23          	sw	a3,-100(s0)
 a90:	fae42023          	sw	a4,-96(s0)
 a94:	faf42223          	sw	a5,-92(s0)
 a98:	fd442783          	lw	a5,-44(s0)
 a9c:	00479793          	slli	a5,a5,0x4
 aa0:	fac42703          	lw	a4,-84(s0)
 aa4:	00f70733          	add	a4,a4,a5
 aa8:	fd842783          	lw	a5,-40(s0)
 aac:	00479793          	slli	a5,a5,0x4
 ab0:	fac42683          	lw	a3,-84(s0)
 ab4:	00f687b3          	add	a5,a3,a5
 ab8:	00072583          	lw	a1,0(a4)
 abc:	00472603          	lw	a2,4(a4)
 ac0:	00872683          	lw	a3,8(a4)
 ac4:	00c72703          	lw	a4,12(a4)
 ac8:	00b7a023          	sw	a1,0(a5)
 acc:	00c7a223          	sw	a2,4(a5)
 ad0:	00d7a423          	sw	a3,8(a5)
 ad4:	00e7a623          	sw	a4,12(a5)
 ad8:	fd442783          	lw	a5,-44(s0)
 adc:	00479793          	slli	a5,a5,0x4
 ae0:	fac42703          	lw	a4,-84(s0)
 ae4:	00f707b3          	add	a5,a4,a5
 ae8:	f9842583          	lw	a1,-104(s0)
 aec:	f9c42603          	lw	a2,-100(s0)
 af0:	fa042683          	lw	a3,-96(s0)
 af4:	fa442703          	lw	a4,-92(s0)
 af8:	00b7a023          	sw	a1,0(a5)
 afc:	00c7a223          	sw	a2,4(a5)
 b00:	00d7a423          	sw	a3,8(a5)
 b04:	00e7a623          	sw	a4,12(a5)
 b08:	fd842783          	lw	a5,-40(s0)
 b0c:	00178793          	addi	a5,a5,1
 b10:	fcf42c23          	sw	a5,-40(s0)
 b14:	fd842703          	lw	a4,-40(s0)
 b18:	f7842783          	lw	a5,-136(s0)
 b1c:	eef76ee3          	bltu	a4,a5,a18 <FFT+0x98c>
 b20:	0180006f          	j	b38 <FFT+0xaac>
 b24:	00000013          	nop
 b28:	0100006f          	j	b38 <FFT+0xaac>
 b2c:	00000013          	nop
 b30:	0080006f          	j	b38 <FFT+0xaac>
 b34:	00000013          	nop
 b38:	08c12083          	lw	ra,140(sp)
 b3c:	08812403          	lw	s0,136(sp)
 b40:	08412483          	lw	s1,132(sp)
 b44:	08012903          	lw	s2,128(sp)
 b48:	07c12983          	lw	s3,124(sp)
 b4c:	09010113          	addi	sp,sp,144
 b50:	00008067          	ret

00000b54 <__mulsi3>:
 b54:	00050613          	mv	a2,a0
 b58:	00000513          	li	a0,0
 b5c:	0015f693          	andi	a3,a1,1
 b60:	00068463          	beqz	a3,b68 <__mulsi3+0x14>
 b64:	00c50533          	add	a0,a0,a2
 b68:	0015d593          	srli	a1,a1,0x1
 b6c:	00161613          	slli	a2,a2,0x1
 b70:	fe0596e3          	bnez	a1,b5c <__mulsi3+0x8>
 b74:	00008067          	ret

00000b78 <__divsi3>:
 b78:	06054063          	bltz	a0,bd8 <__umodsi3+0x10>
 b7c:	0605c663          	bltz	a1,be8 <__umodsi3+0x20>

00000b80 <__udivsi3>:
 b80:	00058613          	mv	a2,a1
 b84:	00050593          	mv	a1,a0
 b88:	fff00513          	li	a0,-1
 b8c:	02060c63          	beqz	a2,bc4 <__udivsi3+0x44>
 b90:	00100693          	li	a3,1
 b94:	00b67a63          	bgeu	a2,a1,ba8 <__udivsi3+0x28>
 b98:	00c05863          	blez	a2,ba8 <__udivsi3+0x28>
 b9c:	00161613          	slli	a2,a2,0x1
 ba0:	00169693          	slli	a3,a3,0x1
 ba4:	feb66ae3          	bltu	a2,a1,b98 <__udivsi3+0x18>
 ba8:	00000513          	li	a0,0
 bac:	00c5e663          	bltu	a1,a2,bb8 <__udivsi3+0x38>
 bb0:	40c585b3          	sub	a1,a1,a2
 bb4:	00d56533          	or	a0,a0,a3
 bb8:	0016d693          	srli	a3,a3,0x1
 bbc:	00165613          	srli	a2,a2,0x1
 bc0:	fe0696e3          	bnez	a3,bac <__udivsi3+0x2c>
 bc4:	00008067          	ret

00000bc8 <__umodsi3>:
 bc8:	00008293          	mv	t0,ra
 bcc:	fb5ff0ef          	jal	ra,b80 <__udivsi3>
 bd0:	00058513          	mv	a0,a1
 bd4:	00028067          	jr	t0
 bd8:	40a00533          	neg	a0,a0
 bdc:	0005d863          	bgez	a1,bec <__umodsi3+0x24>
 be0:	40b005b3          	neg	a1,a1
 be4:	f9dff06f          	j	b80 <__udivsi3>
 be8:	40b005b3          	neg	a1,a1
 bec:	00008293          	mv	t0,ra
 bf0:	f91ff0ef          	jal	ra,b80 <__udivsi3>
 bf4:	40a00533          	neg	a0,a0
 bf8:	00028067          	jr	t0

00000bfc <__modsi3>:
 bfc:	00008293          	mv	t0,ra
 c00:	0005ca63          	bltz	a1,c14 <__modsi3+0x18>
 c04:	00054c63          	bltz	a0,c1c <__modsi3+0x20>
 c08:	f79ff0ef          	jal	ra,b80 <__udivsi3>
 c0c:	00058513          	mv	a0,a1
 c10:	00028067          	jr	t0
 c14:	40b005b3          	neg	a1,a1
 c18:	fe0558e3          	bgez	a0,c08 <__modsi3+0xc>
 c1c:	40a00533          	neg	a0,a0
 c20:	f61ff0ef          	jal	ra,b80 <__udivsi3>
 c24:	40b00533          	neg	a0,a1
 c28:	00028067          	jr	t0

Disassembly of section .text.cos:

00000c2c <cos>:
 c2c:	fe010113          	addi	sp,sp,-32
 c30:	00812c23          	sw	s0,24(sp)
 c34:	80000437          	lui	s0,0x80000
 c38:	fff44793          	not	a5,s0
 c3c:	3fe92737          	lui	a4,0x3fe92
 c40:	00112e23          	sw	ra,28(sp)
 c44:	00b7f7b3          	and	a5,a5,a1
 c48:	1fb70713          	addi	a4,a4,507 # 3fe921fb <__bss_end+0x3fe8cc03>
 c4c:	06f75263          	bge	a4,a5,cb0 <cos+0x84>
 c50:	7ff00737          	lui	a4,0x7ff00
 c54:	02e7c063          	blt	a5,a4,c74 <cos+0x48>
 c58:	00058693          	mv	a3,a1
 c5c:	00050613          	mv	a2,a0
 c60:	169030ef          	jal	ra,45c8 <__subdf3>
 c64:	01c12083          	lw	ra,28(sp)
 c68:	01812403          	lw	s0,24(sp)
 c6c:	02010113          	addi	sp,sp,32
 c70:	00008067          	ret
 c74:	00010613          	mv	a2,sp
 c78:	180000ef          	jal	ra,df8 <__ieee754_rem_pio2>
 c7c:	00357513          	andi	a0,a0,3
 c80:	00100793          	li	a5,1
 c84:	04f50463          	beq	a0,a5,ccc <cos+0xa0>
 c88:	00200793          	li	a5,2
 c8c:	00812603          	lw	a2,8(sp)
 c90:	00c12683          	lw	a3,12(sp)
 c94:	06f50463          	beq	a0,a5,cfc <cos+0xd0>
 c98:	04050a63          	beqz	a0,cec <cos+0xc0>
 c9c:	00012503          	lw	a0,0(sp)
 ca0:	00412583          	lw	a1,4(sp)
 ca4:	00100713          	li	a4,1
 ca8:	0d1010ef          	jal	ra,2578 <__kernel_sin>
 cac:	fb9ff06f          	j	c64 <cos+0x38>
 cb0:	00000613          	li	a2,0
 cb4:	00000693          	li	a3,0
 cb8:	78c000ef          	jal	ra,1444 <__kernel_cos>
 cbc:	01c12083          	lw	ra,28(sp)
 cc0:	01812403          	lw	s0,24(sp)
 cc4:	02010113          	addi	sp,sp,32
 cc8:	00008067          	ret
 ccc:	00812603          	lw	a2,8(sp)
 cd0:	00c12683          	lw	a3,12(sp)
 cd4:	00012503          	lw	a0,0(sp)
 cd8:	00412583          	lw	a1,4(sp)
 cdc:	00100713          	li	a4,1
 ce0:	099010ef          	jal	ra,2578 <__kernel_sin>
 ce4:	00b445b3          	xor	a1,s0,a1
 ce8:	f7dff06f          	j	c64 <cos+0x38>
 cec:	00012503          	lw	a0,0(sp)
 cf0:	00412583          	lw	a1,4(sp)
 cf4:	750000ef          	jal	ra,1444 <__kernel_cos>
 cf8:	f6dff06f          	j	c64 <cos+0x38>
 cfc:	00012503          	lw	a0,0(sp)
 d00:	00412583          	lw	a1,4(sp)
 d04:	740000ef          	jal	ra,1444 <__kernel_cos>
 d08:	00b445b3          	xor	a1,s0,a1
 d0c:	f59ff06f          	j	c64 <cos+0x38>

Disassembly of section .text.sin:

00000d10 <sin>:
 d10:	fe010113          	addi	sp,sp,-32
 d14:	00812c23          	sw	s0,24(sp)
 d18:	80000437          	lui	s0,0x80000
 d1c:	fff44793          	not	a5,s0
 d20:	3fe92737          	lui	a4,0x3fe92
 d24:	00112e23          	sw	ra,28(sp)
 d28:	00b7f7b3          	and	a5,a5,a1
 d2c:	1fb70713          	addi	a4,a4,507 # 3fe921fb <__bss_end+0x3fe8cc03>
 d30:	06f75263          	bge	a4,a5,d94 <sin+0x84>
 d34:	7ff00737          	lui	a4,0x7ff00
 d38:	02e7c063          	blt	a5,a4,d58 <sin+0x48>
 d3c:	00058693          	mv	a3,a1
 d40:	00050613          	mv	a2,a0
 d44:	085030ef          	jal	ra,45c8 <__subdf3>
 d48:	01c12083          	lw	ra,28(sp)
 d4c:	01812403          	lw	s0,24(sp)
 d50:	02010113          	addi	sp,sp,32
 d54:	00008067          	ret
 d58:	00010613          	mv	a2,sp
 d5c:	09c000ef          	jal	ra,df8 <__ieee754_rem_pio2>
 d60:	00357513          	andi	a0,a0,3
 d64:	00100793          	li	a5,1
 d68:	04f50663          	beq	a0,a5,db4 <sin+0xa4>
 d6c:	00200793          	li	a5,2
 d70:	00812603          	lw	a2,8(sp)
 d74:	00c12683          	lw	a3,12(sp)
 d78:	06f50463          	beq	a0,a5,de0 <sin+0xd0>
 d7c:	04050863          	beqz	a0,dcc <sin+0xbc>
 d80:	00012503          	lw	a0,0(sp)
 d84:	00412583          	lw	a1,4(sp)
 d88:	6bc000ef          	jal	ra,1444 <__kernel_cos>
 d8c:	00b445b3          	xor	a1,s0,a1
 d90:	fb9ff06f          	j	d48 <sin+0x38>
 d94:	00000713          	li	a4,0
 d98:	00000613          	li	a2,0
 d9c:	00000693          	li	a3,0
 da0:	7d8010ef          	jal	ra,2578 <__kernel_sin>
 da4:	01c12083          	lw	ra,28(sp)
 da8:	01812403          	lw	s0,24(sp)
 dac:	02010113          	addi	sp,sp,32
 db0:	00008067          	ret
 db4:	00812603          	lw	a2,8(sp)
 db8:	00c12683          	lw	a3,12(sp)
 dbc:	00012503          	lw	a0,0(sp)
 dc0:	00412583          	lw	a1,4(sp)
 dc4:	680000ef          	jal	ra,1444 <__kernel_cos>
 dc8:	f81ff06f          	j	d48 <sin+0x38>
 dcc:	00012503          	lw	a0,0(sp)
 dd0:	00412583          	lw	a1,4(sp)
 dd4:	00100713          	li	a4,1
 dd8:	7a0010ef          	jal	ra,2578 <__kernel_sin>
 ddc:	f6dff06f          	j	d48 <sin+0x38>
 de0:	00012503          	lw	a0,0(sp)
 de4:	00412583          	lw	a1,4(sp)
 de8:	00100713          	li	a4,1
 dec:	78c010ef          	jal	ra,2578 <__kernel_sin>
 df0:	00b445b3          	xor	a1,s0,a1
 df4:	f55ff06f          	j	d48 <sin+0x38>

Disassembly of section .text.__ieee754_rem_pio2:

00000df8 <__ieee754_rem_pio2>:
     df8:	f9010113          	addi	sp,sp,-112
     dfc:	06812423          	sw	s0,104(sp)
     e00:	3fe92737          	lui	a4,0x3fe92
     e04:	00159413          	slli	s0,a1,0x1
     e08:	06112623          	sw	ra,108(sp)
     e0c:	06912223          	sw	s1,100(sp)
     e10:	07212023          	sw	s2,96(sp)
     e14:	05312e23          	sw	s3,92(sp)
     e18:	05412c23          	sw	s4,88(sp)
     e1c:	05512a23          	sw	s5,84(sp)
     e20:	05612823          	sw	s6,80(sp)
     e24:	05712623          	sw	s7,76(sp)
     e28:	05812423          	sw	s8,72(sp)
     e2c:	05912223          	sw	s9,68(sp)
     e30:	05a12023          	sw	s10,64(sp)
     e34:	03b12e23          	sw	s11,60(sp)
     e38:	00145413          	srli	s0,s0,0x1
     e3c:	1fb70713          	addi	a4,a4,507 # 3fe921fb <__bss_end+0x3fe8cc03>
     e40:	1e875263          	bge	a4,s0,1024 <__ieee754_rem_pio2+0x22c>
     e44:	4002e737          	lui	a4,0x4002e
     e48:	97b70713          	addi	a4,a4,-1669 # 4002d97b <__bss_end+0x40028383>
     e4c:	00060993          	mv	s3,a2
     e50:	0a874c63          	blt	a4,s0,f08 <__ieee754_rem_pio2+0x110>
     e54:	00004797          	auipc	a5,0x4
     e58:	28c78793          	addi	a5,a5,652 # 50e0 <__clzsi2+0xa8>
     e5c:	0007a603          	lw	a2,0(a5)
     e60:	0047a683          	lw	a3,4(a5)
     e64:	54b05463          	blez	a1,13ac <__ieee754_rem_pio2+0x5b4>
     e68:	760030ef          	jal	ra,45c8 <__subdf3>
     e6c:	3ff927b7          	lui	a5,0x3ff92
     e70:	1fb78793          	addi	a5,a5,507 # 3ff921fb <__bss_end+0x3ff8cc03>
     e74:	00050a13          	mv	s4,a0
     e78:	00058a93          	mv	s5,a1
     e7c:	1ef40263          	beq	s0,a5,1060 <__ieee754_rem_pio2+0x268>
     e80:	00004417          	auipc	s0,0x4
     e84:	26840413          	addi	s0,s0,616 # 50e8 <__clzsi2+0xb0>
     e88:	00042603          	lw	a2,0(s0)
     e8c:	00442683          	lw	a3,4(s0)
     e90:	00100493          	li	s1,1
     e94:	734030ef          	jal	ra,45c8 <__subdf3>
     e98:	00050613          	mv	a2,a0
     e9c:	00058693          	mv	a3,a1
     ea0:	00a9a023          	sw	a0,0(s3)
     ea4:	00b9a223          	sw	a1,4(s3)
     ea8:	000a0513          	mv	a0,s4
     eac:	000a8593          	mv	a1,s5
     eb0:	718030ef          	jal	ra,45c8 <__subdf3>
     eb4:	00042603          	lw	a2,0(s0)
     eb8:	00442683          	lw	a3,4(s0)
     ebc:	70c030ef          	jal	ra,45c8 <__subdf3>
     ec0:	00a9a423          	sw	a0,8(s3)
     ec4:	00b9a623          	sw	a1,12(s3)
     ec8:	06c12083          	lw	ra,108(sp)
     ecc:	06812403          	lw	s0,104(sp)
     ed0:	00048513          	mv	a0,s1
     ed4:	06012903          	lw	s2,96(sp)
     ed8:	06412483          	lw	s1,100(sp)
     edc:	05c12983          	lw	s3,92(sp)
     ee0:	05812a03          	lw	s4,88(sp)
     ee4:	05412a83          	lw	s5,84(sp)
     ee8:	05012b03          	lw	s6,80(sp)
     eec:	04c12b83          	lw	s7,76(sp)
     ef0:	04812c03          	lw	s8,72(sp)
     ef4:	04412c83          	lw	s9,68(sp)
     ef8:	04012d03          	lw	s10,64(sp)
     efc:	03c12d83          	lw	s11,60(sp)
     f00:	07010113          	addi	sp,sp,112
     f04:	00008067          	ret
     f08:	41392737          	lui	a4,0x41392
     f0c:	1fb70713          	addi	a4,a4,507 # 413921fb <__bss_end+0x4138cc03>
     f10:	00058913          	mv	s2,a1
     f14:	18875063          	bge	a4,s0,1094 <__ieee754_rem_pio2+0x29c>
     f18:	7ff00737          	lui	a4,0x7ff00
     f1c:	12e45063          	bge	s0,a4,103c <__ieee754_rem_pio2+0x244>
     f20:	41445a13          	srai	s4,s0,0x14
     f24:	beaa0a13          	addi	s4,s4,-1046
     f28:	014a1793          	slli	a5,s4,0x14
     f2c:	40f40433          	sub	s0,s0,a5
     f30:	00040593          	mv	a1,s0
     f34:	00050493          	mv	s1,a0
     f38:	70d030ef          	jal	ra,4e44 <__fixdfsi>
     f3c:	78d030ef          	jal	ra,4ec8 <__floatsidf>
     f40:	00050713          	mv	a4,a0
     f44:	00058793          	mv	a5,a1
     f48:	00070613          	mv	a2,a4
     f4c:	00078693          	mv	a3,a5
     f50:	00048513          	mv	a0,s1
     f54:	00040593          	mv	a1,s0
     f58:	00e12c23          	sw	a4,24(sp)
     f5c:	00f12e23          	sw	a5,28(sp)
     f60:	00004497          	auipc	s1,0x4
     f64:	1c048493          	addi	s1,s1,448 # 5120 <__clzsi2+0xe8>
     f68:	660030ef          	jal	ra,45c8 <__subdf3>
     f6c:	0004a603          	lw	a2,0(s1)
     f70:	0044a683          	lw	a3,4(s1)
     f74:	741020ef          	jal	ra,3eb4 <__muldf3>
     f78:	00058b93          	mv	s7,a1
     f7c:	00050b13          	mv	s6,a0
     f80:	6c5030ef          	jal	ra,4e44 <__fixdfsi>
     f84:	00050413          	mv	s0,a0
     f88:	741030ef          	jal	ra,4ec8 <__floatsidf>
     f8c:	00050713          	mv	a4,a0
     f90:	00058793          	mv	a5,a1
     f94:	00050613          	mv	a2,a0
     f98:	00058693          	mv	a3,a1
     f9c:	000b0513          	mv	a0,s6
     fa0:	000b8593          	mv	a1,s7
     fa4:	02e12023          	sw	a4,32(sp)
     fa8:	02f12223          	sw	a5,36(sp)
     fac:	61c030ef          	jal	ra,45c8 <__subdf3>
     fb0:	0004a603          	lw	a2,0(s1)
     fb4:	0044a683          	lw	a3,4(s1)
     fb8:	6fd020ef          	jal	ra,3eb4 <__muldf3>
     fbc:	00000693          	li	a3,0
     fc0:	00000613          	li	a2,0
     fc4:	02a12423          	sw	a0,40(sp)
     fc8:	02b12623          	sw	a1,44(sp)
     fcc:	56d020ef          	jal	ra,3d38 <__eqdf2>
     fd0:	008036b3          	snez	a3,s0
     fd4:	00168693          	addi	a3,a3,1
     fd8:	30051463          	bnez	a0,12e0 <__ieee754_rem_pio2+0x4e8>
     fdc:	00004797          	auipc	a5,0x4
     fe0:	1cc78793          	addi	a5,a5,460 # 51a8 <two_over_pi>
     fe4:	00200713          	li	a4,2
     fe8:	000a0613          	mv	a2,s4
     fec:	00098593          	mv	a1,s3
     ff0:	01810513          	addi	a0,sp,24
     ff4:	051000ef          	jal	ra,1844 <__kernel_rem_pio2>
     ff8:	00050493          	mv	s1,a0
     ffc:	ec0956e3          	bgez	s2,ec8 <__ieee754_rem_pio2+0xd0>
    1000:	0049a703          	lw	a4,4(s3)
    1004:	00c9a783          	lw	a5,12(s3)
    1008:	800006b7          	lui	a3,0x80000
    100c:	00d74733          	xor	a4,a4,a3
    1010:	00d7c7b3          	xor	a5,a5,a3
    1014:	00e9a223          	sw	a4,4(s3)
    1018:	00f9a623          	sw	a5,12(s3)
    101c:	40a004b3          	neg	s1,a0
    1020:	ea9ff06f          	j	ec8 <__ieee754_rem_pio2+0xd0>
    1024:	00a62023          	sw	a0,0(a2)
    1028:	00b62223          	sw	a1,4(a2)
    102c:	00062423          	sw	zero,8(a2)
    1030:	00062623          	sw	zero,12(a2)
    1034:	00000493          	li	s1,0
    1038:	e91ff06f          	j	ec8 <__ieee754_rem_pio2+0xd0>
    103c:	00050613          	mv	a2,a0
    1040:	00058693          	mv	a3,a1
    1044:	584030ef          	jal	ra,45c8 <__subdf3>
    1048:	00a9a423          	sw	a0,8(s3)
    104c:	00b9a623          	sw	a1,12(s3)
    1050:	00a9a023          	sw	a0,0(s3)
    1054:	00b9a223          	sw	a1,4(s3)
    1058:	00000493          	li	s1,0
    105c:	e6dff06f          	j	ec8 <__ieee754_rem_pio2+0xd0>
    1060:	00004797          	auipc	a5,0x4
    1064:	09078793          	addi	a5,a5,144 # 50f0 <__clzsi2+0xb8>
    1068:	0007a603          	lw	a2,0(a5)
    106c:	0047a683          	lw	a3,4(a5)
    1070:	00004417          	auipc	s0,0x4
    1074:	08840413          	addi	s0,s0,136 # 50f8 <__clzsi2+0xc0>
    1078:	00100493          	li	s1,1
    107c:	54c030ef          	jal	ra,45c8 <__subdf3>
    1080:	00050a13          	mv	s4,a0
    1084:	00058a93          	mv	s5,a1
    1088:	00042603          	lw	a2,0(s0)
    108c:	00442683          	lw	a3,4(s0)
    1090:	e05ff06f          	j	e94 <__ieee754_rem_pio2+0x9c>
    1094:	76c010ef          	jal	ra,2800 <fabs>
    1098:	00004797          	auipc	a5,0x4
    109c:	06878793          	addi	a5,a5,104 # 5100 <__clzsi2+0xc8>
    10a0:	0007a603          	lw	a2,0(a5)
    10a4:	0047a683          	lw	a3,4(a5)
    10a8:	00050a13          	mv	s4,a0
    10ac:	00058a93          	mv	s5,a1
    10b0:	605020ef          	jal	ra,3eb4 <__muldf3>
    10b4:	00004797          	auipc	a5,0x4
    10b8:	05478793          	addi	a5,a5,84 # 5108 <__clzsi2+0xd0>
    10bc:	0007a603          	lw	a2,0(a5)
    10c0:	0047a683          	lw	a3,4(a5)
    10c4:	34d010ef          	jal	ra,2c10 <__adddf3>
    10c8:	57d030ef          	jal	ra,4e44 <__fixdfsi>
    10cc:	00050493          	mv	s1,a0
    10d0:	5f9030ef          	jal	ra,4ec8 <__floatsidf>
    10d4:	00004797          	auipc	a5,0x4
    10d8:	00c78793          	addi	a5,a5,12 # 50e0 <__clzsi2+0xa8>
    10dc:	0007a603          	lw	a2,0(a5)
    10e0:	0047a683          	lw	a3,4(a5)
    10e4:	00050b13          	mv	s6,a0
    10e8:	00058b93          	mv	s7,a1
    10ec:	5c9020ef          	jal	ra,3eb4 <__muldf3>
    10f0:	00050613          	mv	a2,a0
    10f4:	00058693          	mv	a3,a1
    10f8:	000a0513          	mv	a0,s4
    10fc:	000a8593          	mv	a1,s5
    1100:	4c8030ef          	jal	ra,45c8 <__subdf3>
    1104:	00004797          	auipc	a5,0x4
    1108:	fe478793          	addi	a5,a5,-28 # 50e8 <__clzsi2+0xb0>
    110c:	0007a603          	lw	a2,0(a5)
    1110:	0047a683          	lw	a3,4(a5)
    1114:	00050d13          	mv	s10,a0
    1118:	00058c93          	mv	s9,a1
    111c:	000b0513          	mv	a0,s6
    1120:	000b8593          	mv	a1,s7
    1124:	591020ef          	jal	ra,3eb4 <__muldf3>
    1128:	00050a13          	mv	s4,a0
    112c:	00058a93          	mv	s5,a1
    1130:	01f00793          	li	a5,31
    1134:	000d0513          	mv	a0,s10
    1138:	000c8593          	mv	a1,s9
    113c:	000a0613          	mv	a2,s4
    1140:	000a8693          	mv	a3,s5
    1144:	0297cc63          	blt	a5,s1,117c <__ieee754_rem_pio2+0x384>
    1148:	480030ef          	jal	ra,45c8 <__subdf3>
    114c:	fff48793          	addi	a5,s1,-1
    1150:	00279713          	slli	a4,a5,0x2
    1154:	00004797          	auipc	a5,0x4
    1158:	fd478793          	addi	a5,a5,-44 # 5128 <npio2_hw>
    115c:	00e787b3          	add	a5,a5,a4
    1160:	0007a783          	lw	a5,0(a5)
    1164:	00050d93          	mv	s11,a0
    1168:	00058c13          	mv	s8,a1
    116c:	00878e63          	beq	a5,s0,1188 <__ieee754_rem_pio2+0x390>
    1170:	00a9a023          	sw	a0,0(s3)
    1174:	00b9a223          	sw	a1,4(s3)
    1178:	0300006f          	j	11a8 <__ieee754_rem_pio2+0x3b0>
    117c:	44c030ef          	jal	ra,45c8 <__subdf3>
    1180:	00050d93          	mv	s11,a0
    1184:	00058c13          	mv	s8,a1
    1188:	014c5793          	srli	a5,s8,0x14
    118c:	41445813          	srai	a6,s0,0x14
    1190:	7ff7f793          	andi	a5,a5,2047
    1194:	40f807b3          	sub	a5,a6,a5
    1198:	01000693          	li	a3,16
    119c:	04f6ce63          	blt	a3,a5,11f8 <__ieee754_rem_pio2+0x400>
    11a0:	01b9a023          	sw	s11,0(s3)
    11a4:	0189a223          	sw	s8,4(s3)
    11a8:	000d8613          	mv	a2,s11
    11ac:	000c0693          	mv	a3,s8
    11b0:	000d0513          	mv	a0,s10
    11b4:	000c8593          	mv	a1,s9
    11b8:	410030ef          	jal	ra,45c8 <__subdf3>
    11bc:	000a0613          	mv	a2,s4
    11c0:	000a8693          	mv	a3,s5
    11c4:	404030ef          	jal	ra,45c8 <__subdf3>
    11c8:	00a9a423          	sw	a0,8(s3)
    11cc:	00b9a623          	sw	a1,12(s3)
    11d0:	ce095ce3          	bgez	s2,ec8 <__ieee754_rem_pio2+0xd0>
    11d4:	800007b7          	lui	a5,0x80000
    11d8:	0187cc33          	xor	s8,a5,s8
    11dc:	00b7c5b3          	xor	a1,a5,a1
    11e0:	01b9a023          	sw	s11,0(s3)
    11e4:	0189a223          	sw	s8,4(s3)
    11e8:	00a9a423          	sw	a0,8(s3)
    11ec:	00b9a623          	sw	a1,12(s3)
    11f0:	409004b3          	neg	s1,s1
    11f4:	cd5ff06f          	j	ec8 <__ieee754_rem_pio2+0xd0>
    11f8:	00004797          	auipc	a5,0x4
    11fc:	ef878793          	addi	a5,a5,-264 # 50f0 <__clzsi2+0xb8>
    1200:	0007a603          	lw	a2,0(a5)
    1204:	0047a683          	lw	a3,4(a5)
    1208:	000b0513          	mv	a0,s6
    120c:	000b8593          	mv	a1,s7
    1210:	01012423          	sw	a6,8(sp)
    1214:	4a1020ef          	jal	ra,3eb4 <__muldf3>
    1218:	00050a13          	mv	s4,a0
    121c:	00058a93          	mv	s5,a1
    1220:	00050613          	mv	a2,a0
    1224:	00058693          	mv	a3,a1
    1228:	000d0513          	mv	a0,s10
    122c:	000c8593          	mv	a1,s9
    1230:	398030ef          	jal	ra,45c8 <__subdf3>
    1234:	00058c13          	mv	s8,a1
    1238:	00050613          	mv	a2,a0
    123c:	00058693          	mv	a3,a1
    1240:	00050413          	mv	s0,a0
    1244:	00b12623          	sw	a1,12(sp)
    1248:	000d0513          	mv	a0,s10
    124c:	000c8593          	mv	a1,s9
    1250:	378030ef          	jal	ra,45c8 <__subdf3>
    1254:	000a0613          	mv	a2,s4
    1258:	000a8693          	mv	a3,s5
    125c:	36c030ef          	jal	ra,45c8 <__subdf3>
    1260:	00004797          	auipc	a5,0x4
    1264:	e9878793          	addi	a5,a5,-360 # 50f8 <__clzsi2+0xc0>
    1268:	0007a603          	lw	a2,0(a5)
    126c:	0047a683          	lw	a3,4(a5)
    1270:	00050a13          	mv	s4,a0
    1274:	00058a93          	mv	s5,a1
    1278:	000b0513          	mv	a0,s6
    127c:	000b8593          	mv	a1,s7
    1280:	435020ef          	jal	ra,3eb4 <__muldf3>
    1284:	000a0613          	mv	a2,s4
    1288:	000a8693          	mv	a3,s5
    128c:	33c030ef          	jal	ra,45c8 <__subdf3>
    1290:	00050613          	mv	a2,a0
    1294:	00058693          	mv	a3,a1
    1298:	00050a13          	mv	s4,a0
    129c:	00058a93          	mv	s5,a1
    12a0:	00040513          	mv	a0,s0
    12a4:	000c0593          	mv	a1,s8
    12a8:	320030ef          	jal	ra,45c8 <__subdf3>
    12ac:	00812803          	lw	a6,8(sp)
    12b0:	0145d793          	srli	a5,a1,0x14
    12b4:	7ff7f793          	andi	a5,a5,2047
    12b8:	40f80833          	sub	a6,a6,a5
    12bc:	03100793          	li	a5,49
    12c0:	000c0c93          	mv	s9,s8
    12c4:	00050d93          	mv	s11,a0
    12c8:	00058c13          	mv	s8,a1
    12cc:	0107ce63          	blt	a5,a6,12e8 <__ieee754_rem_pio2+0x4f0>
    12d0:	00a9a023          	sw	a0,0(s3)
    12d4:	00b9a223          	sw	a1,4(s3)
    12d8:	00040d13          	mv	s10,s0
    12dc:	ecdff06f          	j	11a8 <__ieee754_rem_pio2+0x3b0>
    12e0:	00300693          	li	a3,3
    12e4:	cf9ff06f          	j	fdc <__ieee754_rem_pio2+0x1e4>
    12e8:	00004797          	auipc	a5,0x4
    12ec:	e2878793          	addi	a5,a5,-472 # 5110 <__clzsi2+0xd8>
    12f0:	0007a603          	lw	a2,0(a5)
    12f4:	0047a683          	lw	a3,4(a5)
    12f8:	000b0513          	mv	a0,s6
    12fc:	000b8593          	mv	a1,s7
    1300:	3b5020ef          	jal	ra,3eb4 <__muldf3>
    1304:	00c12c03          	lw	s8,12(sp)
    1308:	00050a13          	mv	s4,a0
    130c:	00058a93          	mv	s5,a1
    1310:	00050613          	mv	a2,a0
    1314:	00058693          	mv	a3,a1
    1318:	00040513          	mv	a0,s0
    131c:	000c0593          	mv	a1,s8
    1320:	2a8030ef          	jal	ra,45c8 <__subdf3>
    1324:	00050613          	mv	a2,a0
    1328:	00058693          	mv	a3,a1
    132c:	00050d13          	mv	s10,a0
    1330:	00058c93          	mv	s9,a1
    1334:	00040513          	mv	a0,s0
    1338:	000c0593          	mv	a1,s8
    133c:	28c030ef          	jal	ra,45c8 <__subdf3>
    1340:	000a0613          	mv	a2,s4
    1344:	000a8693          	mv	a3,s5
    1348:	280030ef          	jal	ra,45c8 <__subdf3>
    134c:	00004797          	auipc	a5,0x4
    1350:	dcc78793          	addi	a5,a5,-564 # 5118 <__clzsi2+0xe0>
    1354:	0007a603          	lw	a2,0(a5)
    1358:	0047a683          	lw	a3,4(a5)
    135c:	00050a13          	mv	s4,a0
    1360:	00058a93          	mv	s5,a1
    1364:	000b0513          	mv	a0,s6
    1368:	000b8593          	mv	a1,s7
    136c:	349020ef          	jal	ra,3eb4 <__muldf3>
    1370:	000a0613          	mv	a2,s4
    1374:	000a8693          	mv	a3,s5
    1378:	250030ef          	jal	ra,45c8 <__subdf3>
    137c:	00050613          	mv	a2,a0
    1380:	00058693          	mv	a3,a1
    1384:	00050a13          	mv	s4,a0
    1388:	00058a93          	mv	s5,a1
    138c:	000d0513          	mv	a0,s10
    1390:	000c8593          	mv	a1,s9
    1394:	234030ef          	jal	ra,45c8 <__subdf3>
    1398:	00050d93          	mv	s11,a0
    139c:	00058c13          	mv	s8,a1
    13a0:	00a9a023          	sw	a0,0(s3)
    13a4:	00b9a223          	sw	a1,4(s3)
    13a8:	e01ff06f          	j	11a8 <__ieee754_rem_pio2+0x3b0>
    13ac:	065010ef          	jal	ra,2c10 <__adddf3>
    13b0:	3ff927b7          	lui	a5,0x3ff92
    13b4:	1fb78793          	addi	a5,a5,507 # 3ff921fb <__bss_end+0x3ff8cc03>
    13b8:	00050a13          	mv	s4,a0
    13bc:	00058a93          	mv	s5,a1
    13c0:	04f40863          	beq	s0,a5,1410 <__ieee754_rem_pio2+0x618>
    13c4:	00004417          	auipc	s0,0x4
    13c8:	d2440413          	addi	s0,s0,-732 # 50e8 <__clzsi2+0xb0>
    13cc:	00042603          	lw	a2,0(s0)
    13d0:	00442683          	lw	a3,4(s0)
    13d4:	fff00493          	li	s1,-1
    13d8:	039010ef          	jal	ra,2c10 <__adddf3>
    13dc:	00050613          	mv	a2,a0
    13e0:	00058693          	mv	a3,a1
    13e4:	00a9a023          	sw	a0,0(s3)
    13e8:	00b9a223          	sw	a1,4(s3)
    13ec:	000a0513          	mv	a0,s4
    13f0:	000a8593          	mv	a1,s5
    13f4:	1d4030ef          	jal	ra,45c8 <__subdf3>
    13f8:	00042603          	lw	a2,0(s0)
    13fc:	00442683          	lw	a3,4(s0)
    1400:	011010ef          	jal	ra,2c10 <__adddf3>
    1404:	00a9a423          	sw	a0,8(s3)
    1408:	00b9a623          	sw	a1,12(s3)
    140c:	abdff06f          	j	ec8 <__ieee754_rem_pio2+0xd0>
    1410:	00004797          	auipc	a5,0x4
    1414:	ce078793          	addi	a5,a5,-800 # 50f0 <__clzsi2+0xb8>
    1418:	0007a603          	lw	a2,0(a5)
    141c:	0047a683          	lw	a3,4(a5)
    1420:	00004417          	auipc	s0,0x4
    1424:	cd840413          	addi	s0,s0,-808 # 50f8 <__clzsi2+0xc0>
    1428:	fff00493          	li	s1,-1
    142c:	7e4010ef          	jal	ra,2c10 <__adddf3>
    1430:	00050a13          	mv	s4,a0
    1434:	00058a93          	mv	s5,a1
    1438:	00042603          	lw	a2,0(s0)
    143c:	00442683          	lw	a3,4(s0)
    1440:	f99ff06f          	j	13d8 <__ieee754_rem_pio2+0x5e0>

Disassembly of section .text.__kernel_cos:

00001444 <__kernel_cos>:
    1444:	fc010113          	addi	sp,sp,-64
    1448:	03612023          	sw	s6,32(sp)
    144c:	00159b13          	slli	s6,a1,0x1
    1450:	03212823          	sw	s2,48(sp)
    1454:	03312623          	sw	s3,44(sp)
    1458:	01812c23          	sw	s8,24(sp)
    145c:	01912a23          	sw	s9,20(sp)
    1460:	02112e23          	sw	ra,60(sp)
    1464:	02812c23          	sw	s0,56(sp)
    1468:	02912a23          	sw	s1,52(sp)
    146c:	03412423          	sw	s4,40(sp)
    1470:	03512223          	sw	s5,36(sp)
    1474:	01712e23          	sw	s7,28(sp)
    1478:	01a12823          	sw	s10,16(sp)
    147c:	01b12623          	sw	s11,12(sp)
    1480:	001b5b13          	srli	s6,s6,0x1
    1484:	3e4007b7          	lui	a5,0x3e400
    1488:	00058c13          	mv	s8,a1
    148c:	00050c93          	mv	s9,a0
    1490:	00060913          	mv	s2,a2
    1494:	00068993          	mv	s3,a3
    1498:	18fb5063          	bge	s6,a5,1618 <__kernel_cos+0x1d4>
    149c:	1a9030ef          	jal	ra,4e44 <__fixdfsi>
    14a0:	38050863          	beqz	a0,1830 <__kernel_cos+0x3ec>
    14a4:	000c8613          	mv	a2,s9
    14a8:	000c0693          	mv	a3,s8
    14ac:	000c8513          	mv	a0,s9
    14b0:	000c0593          	mv	a1,s8
    14b4:	201020ef          	jal	ra,3eb4 <__muldf3>
    14b8:	00004797          	auipc	a5,0x4
    14bc:	e1078793          	addi	a5,a5,-496 # 52c8 <two_over_pi+0x120>
    14c0:	0007a603          	lw	a2,0(a5)
    14c4:	0047a683          	lw	a3,4(a5)
    14c8:	00050413          	mv	s0,a0
    14cc:	00058493          	mv	s1,a1
    14d0:	1e5020ef          	jal	ra,3eb4 <__muldf3>
    14d4:	00004797          	auipc	a5,0x4
    14d8:	dfc78793          	addi	a5,a5,-516 # 52d0 <two_over_pi+0x128>
    14dc:	0007a603          	lw	a2,0(a5)
    14e0:	0047a683          	lw	a3,4(a5)
    14e4:	72c010ef          	jal	ra,2c10 <__adddf3>
    14e8:	00040613          	mv	a2,s0
    14ec:	00048693          	mv	a3,s1
    14f0:	1c5020ef          	jal	ra,3eb4 <__muldf3>
    14f4:	00004797          	auipc	a5,0x4
    14f8:	de478793          	addi	a5,a5,-540 # 52d8 <two_over_pi+0x130>
    14fc:	0007a603          	lw	a2,0(a5)
    1500:	0047a683          	lw	a3,4(a5)
    1504:	0c4030ef          	jal	ra,45c8 <__subdf3>
    1508:	00040613          	mv	a2,s0
    150c:	00048693          	mv	a3,s1
    1510:	1a5020ef          	jal	ra,3eb4 <__muldf3>
    1514:	00004797          	auipc	a5,0x4
    1518:	dcc78793          	addi	a5,a5,-564 # 52e0 <two_over_pi+0x138>
    151c:	0007a603          	lw	a2,0(a5)
    1520:	0047a683          	lw	a3,4(a5)
    1524:	6ec010ef          	jal	ra,2c10 <__adddf3>
    1528:	00040613          	mv	a2,s0
    152c:	00048693          	mv	a3,s1
    1530:	185020ef          	jal	ra,3eb4 <__muldf3>
    1534:	00004797          	auipc	a5,0x4
    1538:	db478793          	addi	a5,a5,-588 # 52e8 <two_over_pi+0x140>
    153c:	0007a603          	lw	a2,0(a5)
    1540:	0047a683          	lw	a3,4(a5)
    1544:	084030ef          	jal	ra,45c8 <__subdf3>
    1548:	00040613          	mv	a2,s0
    154c:	00048693          	mv	a3,s1
    1550:	165020ef          	jal	ra,3eb4 <__muldf3>
    1554:	00004797          	auipc	a5,0x4
    1558:	d9c78793          	addi	a5,a5,-612 # 52f0 <two_over_pi+0x148>
    155c:	0007a603          	lw	a2,0(a5)
    1560:	0047a683          	lw	a3,4(a5)
    1564:	6ac010ef          	jal	ra,2c10 <__adddf3>
    1568:	00040613          	mv	a2,s0
    156c:	00048693          	mv	a3,s1
    1570:	145020ef          	jal	ra,3eb4 <__muldf3>
    1574:	00050a13          	mv	s4,a0
    1578:	00058a93          	mv	s5,a1
    157c:	00004797          	auipc	a5,0x4
    1580:	d7c78793          	addi	a5,a5,-644 # 52f8 <two_over_pi+0x150>
    1584:	0007a603          	lw	a2,0(a5)
    1588:	0047a683          	lw	a3,4(a5)
    158c:	00040513          	mv	a0,s0
    1590:	00048593          	mv	a1,s1
    1594:	121020ef          	jal	ra,3eb4 <__muldf3>
    1598:	00050b13          	mv	s6,a0
    159c:	00058b93          	mv	s7,a1
    15a0:	000a0613          	mv	a2,s4
    15a4:	000a8693          	mv	a3,s5
    15a8:	00040513          	mv	a0,s0
    15ac:	00048593          	mv	a1,s1
    15b0:	105020ef          	jal	ra,3eb4 <__muldf3>
    15b4:	00050413          	mv	s0,a0
    15b8:	00058493          	mv	s1,a1
    15bc:	00090613          	mv	a2,s2
    15c0:	00098693          	mv	a3,s3
    15c4:	000c8513          	mv	a0,s9
    15c8:	000c0593          	mv	a1,s8
    15cc:	0e9020ef          	jal	ra,3eb4 <__muldf3>
    15d0:	00050613          	mv	a2,a0
    15d4:	00058693          	mv	a3,a1
    15d8:	00040513          	mv	a0,s0
    15dc:	00048593          	mv	a1,s1
    15e0:	7e9020ef          	jal	ra,45c8 <__subdf3>
    15e4:	00050613          	mv	a2,a0
    15e8:	00058693          	mv	a3,a1
    15ec:	000b0513          	mv	a0,s6
    15f0:	000b8593          	mv	a1,s7
    15f4:	7d5020ef          	jal	ra,45c8 <__subdf3>
    15f8:	00004797          	auipc	a5,0x4
    15fc:	cc878793          	addi	a5,a5,-824 # 52c0 <two_over_pi+0x118>
    1600:	00050613          	mv	a2,a0
    1604:	00058693          	mv	a3,a1
    1608:	0007a503          	lw	a0,0(a5)
    160c:	0047a583          	lw	a1,4(a5)
    1610:	7b9020ef          	jal	ra,45c8 <__subdf3>
    1614:	1bc0006f          	j	17d0 <__kernel_cos+0x38c>
    1618:	00050613          	mv	a2,a0
    161c:	00058693          	mv	a3,a1
    1620:	095020ef          	jal	ra,3eb4 <__muldf3>
    1624:	00004797          	auipc	a5,0x4
    1628:	ca478793          	addi	a5,a5,-860 # 52c8 <two_over_pi+0x120>
    162c:	0007a603          	lw	a2,0(a5)
    1630:	0047a683          	lw	a3,4(a5)
    1634:	00050413          	mv	s0,a0
    1638:	00058493          	mv	s1,a1
    163c:	079020ef          	jal	ra,3eb4 <__muldf3>
    1640:	00004797          	auipc	a5,0x4
    1644:	c9078793          	addi	a5,a5,-880 # 52d0 <two_over_pi+0x128>
    1648:	0007a603          	lw	a2,0(a5)
    164c:	0047a683          	lw	a3,4(a5)
    1650:	5c0010ef          	jal	ra,2c10 <__adddf3>
    1654:	00040613          	mv	a2,s0
    1658:	00048693          	mv	a3,s1
    165c:	059020ef          	jal	ra,3eb4 <__muldf3>
    1660:	00004797          	auipc	a5,0x4
    1664:	c7878793          	addi	a5,a5,-904 # 52d8 <two_over_pi+0x130>
    1668:	0007a603          	lw	a2,0(a5)
    166c:	0047a683          	lw	a3,4(a5)
    1670:	759020ef          	jal	ra,45c8 <__subdf3>
    1674:	00040613          	mv	a2,s0
    1678:	00048693          	mv	a3,s1
    167c:	039020ef          	jal	ra,3eb4 <__muldf3>
    1680:	00004797          	auipc	a5,0x4
    1684:	c6078793          	addi	a5,a5,-928 # 52e0 <two_over_pi+0x138>
    1688:	0007a603          	lw	a2,0(a5)
    168c:	0047a683          	lw	a3,4(a5)
    1690:	580010ef          	jal	ra,2c10 <__adddf3>
    1694:	00040613          	mv	a2,s0
    1698:	00048693          	mv	a3,s1
    169c:	019020ef          	jal	ra,3eb4 <__muldf3>
    16a0:	00004797          	auipc	a5,0x4
    16a4:	c4878793          	addi	a5,a5,-952 # 52e8 <two_over_pi+0x140>
    16a8:	0007a603          	lw	a2,0(a5)
    16ac:	0047a683          	lw	a3,4(a5)
    16b0:	719020ef          	jal	ra,45c8 <__subdf3>
    16b4:	00040613          	mv	a2,s0
    16b8:	00048693          	mv	a3,s1
    16bc:	7f8020ef          	jal	ra,3eb4 <__muldf3>
    16c0:	00004797          	auipc	a5,0x4
    16c4:	c3078793          	addi	a5,a5,-976 # 52f0 <two_over_pi+0x148>
    16c8:	0007a603          	lw	a2,0(a5)
    16cc:	0047a683          	lw	a3,4(a5)
    16d0:	540010ef          	jal	ra,2c10 <__adddf3>
    16d4:	00040613          	mv	a2,s0
    16d8:	00048693          	mv	a3,s1
    16dc:	7d8020ef          	jal	ra,3eb4 <__muldf3>
    16e0:	3fd337b7          	lui	a5,0x3fd33
    16e4:	33278793          	addi	a5,a5,818 # 3fd33332 <__bss_end+0x3fd2dd3a>
    16e8:	00050a13          	mv	s4,a0
    16ec:	00058a93          	mv	s5,a1
    16f0:	e967d6e3          	bge	a5,s6,157c <__kernel_cos+0x138>
    16f4:	3fe907b7          	lui	a5,0x3fe90
    16f8:	1167ca63          	blt	a5,s6,180c <__kernel_cos+0x3c8>
    16fc:	00004717          	auipc	a4,0x4
    1700:	bc470713          	addi	a4,a4,-1084 # 52c0 <two_over_pi+0x118>
    1704:	ffe007b7          	lui	a5,0xffe00
    1708:	00072503          	lw	a0,0(a4)
    170c:	00472583          	lw	a1,4(a4)
    1710:	00fb0b33          	add	s6,s6,a5
    1714:	00000793          	li	a5,0
    1718:	000b0693          	mv	a3,s6
    171c:	00078613          	mv	a2,a5
    1720:	00078d13          	mv	s10,a5
    1724:	6a5020ef          	jal	ra,45c8 <__subdf3>
    1728:	000b0d93          	mv	s11,s6
    172c:	00058b93          	mv	s7,a1
    1730:	00050b13          	mv	s6,a0
    1734:	00004797          	auipc	a5,0x4
    1738:	bc478793          	addi	a5,a5,-1084 # 52f8 <two_over_pi+0x150>
    173c:	0007a603          	lw	a2,0(a5)
    1740:	0047a683          	lw	a3,4(a5)
    1744:	00040513          	mv	a0,s0
    1748:	00048593          	mv	a1,s1
    174c:	768020ef          	jal	ra,3eb4 <__muldf3>
    1750:	000d0613          	mv	a2,s10
    1754:	000d8693          	mv	a3,s11
    1758:	671020ef          	jal	ra,45c8 <__subdf3>
    175c:	00050d13          	mv	s10,a0
    1760:	00058d93          	mv	s11,a1
    1764:	000a0613          	mv	a2,s4
    1768:	000a8693          	mv	a3,s5
    176c:	00040513          	mv	a0,s0
    1770:	00048593          	mv	a1,s1
    1774:	740020ef          	jal	ra,3eb4 <__muldf3>
    1778:	00050413          	mv	s0,a0
    177c:	00058493          	mv	s1,a1
    1780:	00090613          	mv	a2,s2
    1784:	00098693          	mv	a3,s3
    1788:	000c8513          	mv	a0,s9
    178c:	000c0593          	mv	a1,s8
    1790:	724020ef          	jal	ra,3eb4 <__muldf3>
    1794:	00050613          	mv	a2,a0
    1798:	00058693          	mv	a3,a1
    179c:	00040513          	mv	a0,s0
    17a0:	00048593          	mv	a1,s1
    17a4:	625020ef          	jal	ra,45c8 <__subdf3>
    17a8:	00050613          	mv	a2,a0
    17ac:	00058693          	mv	a3,a1
    17b0:	000d0513          	mv	a0,s10
    17b4:	000d8593          	mv	a1,s11
    17b8:	611020ef          	jal	ra,45c8 <__subdf3>
    17bc:	00050613          	mv	a2,a0
    17c0:	00058693          	mv	a3,a1
    17c4:	000b0513          	mv	a0,s6
    17c8:	000b8593          	mv	a1,s7
    17cc:	5fd020ef          	jal	ra,45c8 <__subdf3>
    17d0:	03c12083          	lw	ra,60(sp)
    17d4:	03812403          	lw	s0,56(sp)
    17d8:	03412483          	lw	s1,52(sp)
    17dc:	03012903          	lw	s2,48(sp)
    17e0:	02c12983          	lw	s3,44(sp)
    17e4:	02812a03          	lw	s4,40(sp)
    17e8:	02412a83          	lw	s5,36(sp)
    17ec:	02012b03          	lw	s6,32(sp)
    17f0:	01c12b83          	lw	s7,28(sp)
    17f4:	01812c03          	lw	s8,24(sp)
    17f8:	01412c83          	lw	s9,20(sp)
    17fc:	01012d03          	lw	s10,16(sp)
    1800:	00c12d83          	lw	s11,12(sp)
    1804:	04010113          	addi	sp,sp,64
    1808:	00008067          	ret
    180c:	00004797          	auipc	a5,0x4
    1810:	aa478793          	addi	a5,a5,-1372 # 52b0 <two_over_pi+0x108>
    1814:	0007ab03          	lw	s6,0(a5)
    1818:	0047ab83          	lw	s7,4(a5)
    181c:	00004797          	auipc	a5,0x4
    1820:	a9c78793          	addi	a5,a5,-1380 # 52b8 <two_over_pi+0x110>
    1824:	0007ad03          	lw	s10,0(a5)
    1828:	0047ad83          	lw	s11,4(a5)
    182c:	f09ff06f          	j	1734 <__kernel_cos+0x2f0>
    1830:	00004797          	auipc	a5,0x4
    1834:	a9078793          	addi	a5,a5,-1392 # 52c0 <two_over_pi+0x118>
    1838:	0007a503          	lw	a0,0(a5)
    183c:	0047a583          	lw	a1,4(a5)
    1840:	f91ff06f          	j	17d0 <__kernel_cos+0x38c>

Disassembly of section .text.__kernel_rem_pio2:

00001844 <__kernel_rem_pio2>:
    1844:	d5010113          	addi	sp,sp,-688
    1848:	29312e23          	sw	s3,668(sp)
    184c:	00068993          	mv	s3,a3
    1850:	00271813          	slli	a6,a4,0x2
    1854:	02e12c23          	sw	a4,56(sp)
    1858:	02f12423          	sw	a5,40(sp)
    185c:	00004717          	auipc	a4,0x4
    1860:	b1c70713          	addi	a4,a4,-1252 # 5378 <init_jk>
    1864:	fff98793          	addi	a5,s3,-1
    1868:	2a912223          	sw	s1,676(sp)
    186c:	27b12e23          	sw	s11,636(sp)
    1870:	01070733          	add	a4,a4,a6
    1874:	2a112623          	sw	ra,684(sp)
    1878:	2a812423          	sw	s0,680(sp)
    187c:	2b212023          	sw	s2,672(sp)
    1880:	29412c23          	sw	s4,664(sp)
    1884:	29512a23          	sw	s5,660(sp)
    1888:	29612823          	sw	s6,656(sp)
    188c:	29712623          	sw	s7,652(sp)
    1890:	29812423          	sw	s8,648(sp)
    1894:	29912223          	sw	s9,644(sp)
    1898:	29a12023          	sw	s10,640(sp)
    189c:	fec00693          	li	a3,-20
    18a0:	02a12223          	sw	a0,36(sp)
    18a4:	02b12a23          	sw	a1,52(sp)
    18a8:	00f12823          	sw	a5,16(sp)
    18ac:	00060493          	mv	s1,a2
    18b0:	00072d83          	lw	s11,0(a4)
    18b4:	34d64ae3          	blt	a2,a3,2408 <__kernel_rem_pio2+0xbc4>
    18b8:	01800593          	li	a1,24
    18bc:	ffd60513          	addi	a0,a2,-3
    18c0:	ab8ff0ef          	jal	ra,b78 <__divsi3>
    18c4:	00150793          	addi	a5,a0,1
    18c8:	00279713          	slli	a4,a5,0x2
    18cc:	40e787b3          	sub	a5,a5,a4
    18d0:	02a12023          	sw	a0,32(sp)
    18d4:	00379793          	slli	a5,a5,0x3
    18d8:	02012603          	lw	a2,32(sp)
    18dc:	fff98693          	addi	a3,s3,-1
    18e0:	00f487b3          	add	a5,s1,a5
    18e4:	00dd8733          	add	a4,s11,a3
    18e8:	40d60433          	sub	s0,a2,a3
    18ec:	00170913          	addi	s2,a4,1
    18f0:	00f12a23          	sw	a5,20(sp)
    18f4:	09010493          	addi	s1,sp,144
    18f8:	00890933          	add	s2,s2,s0
    18fc:	02074c63          	bltz	a4,1934 <__kernel_rem_pio2+0xf0>
    1900:	02812a03          	lw	s4,40(sp)
    1904:	00241793          	slli	a5,s0,0x2
    1908:	00fa07b3          	add	a5,s4,a5
    190c:	00000513          	li	a0,0
    1910:	00000593          	li	a1,0
    1914:	00044663          	bltz	s0,1920 <__kernel_rem_pio2+0xdc>
    1918:	0007a503          	lw	a0,0(a5)
    191c:	5ac030ef          	jal	ra,4ec8 <__floatsidf>
    1920:	00a4a023          	sw	a0,0(s1)
    1924:	00b4a223          	sw	a1,4(s1)
    1928:	00140413          	addi	s0,s0,1
    192c:	00848493          	addi	s1,s1,8
    1930:	fd241ae3          	bne	s0,s2,1904 <__kernel_rem_pio2+0xc0>
    1934:	080dca63          	bltz	s11,19c8 <__kernel_rem_pio2+0x184>
    1938:	01012b83          	lw	s7,16(sp)
    193c:	02412d03          	lw	s10,36(sp)
    1940:	09010793          	addi	a5,sp,144
    1944:	003b9913          	slli	s2,s7,0x3
    1948:	00890413          	addi	s0,s2,8
    194c:	003d9a13          	slli	s4,s11,0x3
    1950:	01278933          	add	s2,a5,s2
    1954:	1d810793          	addi	a5,sp,472
    1958:	1d010493          	addi	s1,sp,464
    195c:	01478a33          	add	s4,a5,s4
    1960:	01a40433          	add	s0,s0,s10
    1964:	00090b13          	mv	s6,s2
    1968:	000d0a93          	mv	s5,s10
    196c:	00000c13          	li	s8,0
    1970:	00000c93          	li	s9,0
    1974:	040bc063          	bltz	s7,19b4 <__kernel_rem_pio2+0x170>
    1978:	000b2603          	lw	a2,0(s6)
    197c:	004b2683          	lw	a3,4(s6)
    1980:	000aa503          	lw	a0,0(s5)
    1984:	004aa583          	lw	a1,4(s5)
    1988:	008a8a93          	addi	s5,s5,8
    198c:	ff8b0b13          	addi	s6,s6,-8
    1990:	524020ef          	jal	ra,3eb4 <__muldf3>
    1994:	00050613          	mv	a2,a0
    1998:	00058693          	mv	a3,a1
    199c:	000c0513          	mv	a0,s8
    19a0:	000c8593          	mv	a1,s9
    19a4:	26c010ef          	jal	ra,2c10 <__adddf3>
    19a8:	00050c13          	mv	s8,a0
    19ac:	00058c93          	mv	s9,a1
    19b0:	fc8a94e3          	bne	s5,s0,1978 <__kernel_rem_pio2+0x134>
    19b4:	0184a023          	sw	s8,0(s1)
    19b8:	0194a223          	sw	s9,4(s1)
    19bc:	00848493          	addi	s1,s1,8
    19c0:	00890913          	addi	s2,s2,8
    19c4:	fb4490e3          	bne	s1,s4,1964 <__kernel_rem_pio2+0x120>
    19c8:	002d9713          	slli	a4,s11,0x2
    19cc:	03c10613          	addi	a2,sp,60
    19d0:	ff870693          	addi	a3,a4,-8
    19d4:	00e60c33          	add	s8,a2,a4
    19d8:	04010713          	addi	a4,sp,64
    19dc:	00d70733          	add	a4,a4,a3
    19e0:	02e12823          	sw	a4,48(sp)
    19e4:	02412703          	lw	a4,36(sp)
    19e8:	00399413          	slli	s0,s3,0x3
    19ec:	fffd8793          	addi	a5,s11,-1
    19f0:	00870433          	add	s0,a4,s0
    19f4:	20000737          	lui	a4,0x20000
    19f8:	fff70713          	addi	a4,a4,-1 # 1fffffff <__bss_end+0x1fffaa07>
    19fc:	00e12c23          	sw	a4,24(sp)
    1a00:	00800737          	lui	a4,0x800
    1a04:	fff70713          	addi	a4,a4,-1 # 7fffff <__bss_end+0x7faa07>
    1a08:	00279793          	slli	a5,a5,0x2
    1a0c:	02e12e23          	sw	a4,60(sp)
    1a10:	27010713          	addi	a4,sp,624
    1a14:	00f707b3          	add	a5,a4,a5
    1a18:	000d8493          	mv	s1,s11
    1a1c:	1d010d13          	addi	s10,sp,464
    1a20:	02f12623          	sw	a5,44(sp)
    1a24:	01b12e23          	sw	s11,28(sp)
    1a28:	00349793          	slli	a5,s1,0x3
    1a2c:	27010713          	addi	a4,sp,624
    1a30:	00f707b3          	add	a5,a4,a5
    1a34:	f607aa03          	lw	s4,-160(a5)
    1a38:	f647aa83          	lw	s5,-156(a5)
    1a3c:	0c905263          	blez	s1,1b00 <__kernel_rem_pio2+0x2bc>
    1a40:	01812783          	lw	a5,24(sp)
    1a44:	04010993          	addi	s3,sp,64
    1a48:	00f48933          	add	s2,s1,a5
    1a4c:	00004797          	auipc	a5,0x4
    1a50:	8fc78793          	addi	a5,a5,-1796 # 5348 <PIo2+0x48>
    1a54:	0047a803          	lw	a6,4(a5)
    1a58:	0007a783          	lw	a5,0(a5)
    1a5c:	00391913          	slli	s2,s2,0x3
    1a60:	01012223          	sw	a6,4(sp)
    1a64:	00f12023          	sw	a5,0(sp)
    1a68:	00004797          	auipc	a5,0x4
    1a6c:	8e878793          	addi	a5,a5,-1816 # 5350 <PIo2+0x50>
    1a70:	0047a803          	lw	a6,4(a5)
    1a74:	0007a783          	lw	a5,0(a5)
    1a78:	012d0933          	add	s2,s10,s2
    1a7c:	01012623          	sw	a6,12(sp)
    1a80:	00f12423          	sw	a5,8(sp)
    1a84:	0080006f          	j	1a8c <__kernel_rem_pio2+0x248>
    1a88:	00078913          	mv	s2,a5
    1a8c:	00012603          	lw	a2,0(sp)
    1a90:	00412683          	lw	a3,4(sp)
    1a94:	000a0513          	mv	a0,s4
    1a98:	000a8593          	mv	a1,s5
    1a9c:	418020ef          	jal	ra,3eb4 <__muldf3>
    1aa0:	3a4030ef          	jal	ra,4e44 <__fixdfsi>
    1aa4:	424030ef          	jal	ra,4ec8 <__floatsidf>
    1aa8:	00812603          	lw	a2,8(sp)
    1aac:	00c12683          	lw	a3,12(sp)
    1ab0:	00050b13          	mv	s6,a0
    1ab4:	00058b93          	mv	s7,a1
    1ab8:	3fc020ef          	jal	ra,3eb4 <__muldf3>
    1abc:	00050613          	mv	a2,a0
    1ac0:	00058693          	mv	a3,a1
    1ac4:	000a0513          	mv	a0,s4
    1ac8:	000a8593          	mv	a1,s5
    1acc:	2fd020ef          	jal	ra,45c8 <__subdf3>
    1ad0:	374030ef          	jal	ra,4e44 <__fixdfsi>
    1ad4:	00092603          	lw	a2,0(s2)
    1ad8:	00492683          	lw	a3,4(s2)
    1adc:	00a9a023          	sw	a0,0(s3)
    1ae0:	000b8593          	mv	a1,s7
    1ae4:	000b0513          	mv	a0,s6
    1ae8:	128010ef          	jal	ra,2c10 <__adddf3>
    1aec:	00050a13          	mv	s4,a0
    1af0:	00058a93          	mv	s5,a1
    1af4:	ff890793          	addi	a5,s2,-8
    1af8:	00498993          	addi	s3,s3,4
    1afc:	f92d16e3          	bne	s10,s2,1a88 <__kernel_rem_pio2+0x244>
    1b00:	01412b03          	lw	s6,20(sp)
    1b04:	000a8593          	mv	a1,s5
    1b08:	000a0513          	mv	a0,s4
    1b0c:	000b0613          	mv	a2,s6
    1b10:	6e9000ef          	jal	ra,29f8 <scalbn>
    1b14:	00004797          	auipc	a5,0x4
    1b18:	84478793          	addi	a5,a5,-1980 # 5358 <PIo2+0x58>
    1b1c:	0007a603          	lw	a2,0(a5)
    1b20:	0047a683          	lw	a3,4(a5)
    1b24:	00050913          	mv	s2,a0
    1b28:	00058993          	mv	s3,a1
    1b2c:	388020ef          	jal	ra,3eb4 <__muldf3>
    1b30:	4dd000ef          	jal	ra,280c <floor>
    1b34:	00004797          	auipc	a5,0x4
    1b38:	82c78793          	addi	a5,a5,-2004 # 5360 <PIo2+0x60>
    1b3c:	0007a603          	lw	a2,0(a5)
    1b40:	0047a683          	lw	a3,4(a5)
    1b44:	370020ef          	jal	ra,3eb4 <__muldf3>
    1b48:	00050613          	mv	a2,a0
    1b4c:	00058693          	mv	a3,a1
    1b50:	00090513          	mv	a0,s2
    1b54:	00098593          	mv	a1,s3
    1b58:	271020ef          	jal	ra,45c8 <__subdf3>
    1b5c:	00058993          	mv	s3,a1
    1b60:	00050913          	mv	s2,a0
    1b64:	2e0030ef          	jal	ra,4e44 <__fixdfsi>
    1b68:	00050a93          	mv	s5,a0
    1b6c:	35c030ef          	jal	ra,4ec8 <__floatsidf>
    1b70:	00050613          	mv	a2,a0
    1b74:	00058693          	mv	a3,a1
    1b78:	00090513          	mv	a0,s2
    1b7c:	00098593          	mv	a1,s3
    1b80:	249020ef          	jal	ra,45c8 <__subdf3>
    1b84:	00050913          	mv	s2,a0
    1b88:	00058993          	mv	s3,a1
    1b8c:	1b605a63          	blez	s6,1d40 <__kernel_rem_pio2+0x4fc>
    1b90:	fff48793          	addi	a5,s1,-1
    1b94:	27010713          	addi	a4,sp,624
    1b98:	00279793          	slli	a5,a5,0x2
    1b9c:	00f707b3          	add	a5,a4,a5
    1ba0:	dd07aa03          	lw	s4,-560(a5)
    1ba4:	01800713          	li	a4,24
    1ba8:	41670733          	sub	a4,a4,s6
    1bac:	40ea56b3          	sra	a3,s4,a4
    1bb0:	00e69733          	sll	a4,a3,a4
    1bb4:	40ea0733          	sub	a4,s4,a4
    1bb8:	01700a13          	li	s4,23
    1bbc:	416a0a33          	sub	s4,s4,s6
    1bc0:	dce7a823          	sw	a4,-560(a5)
    1bc4:	41475a33          	sra	s4,a4,s4
    1bc8:	00da8ab3          	add	s5,s5,a3
    1bcc:	19404c63          	bgtz	s4,1d64 <__kernel_rem_pio2+0x520>
    1bd0:	00000613          	li	a2,0
    1bd4:	00000693          	li	a3,0
    1bd8:	00090513          	mv	a0,s2
    1bdc:	00098593          	mv	a1,s3
    1be0:	158020ef          	jal	ra,3d38 <__eqdf2>
    1be4:	26051a63          	bnez	a0,1e58 <__kernel_rem_pio2+0x614>
    1be8:	01c12783          	lw	a5,28(sp)
    1bec:	fff48613          	addi	a2,s1,-1
    1bf0:	02f64663          	blt	a2,a5,1c1c <__kernel_rem_pio2+0x3d8>
    1bf4:	00249793          	slli	a5,s1,0x2
    1bf8:	04010713          	addi	a4,sp,64
    1bfc:	ffc78793          	addi	a5,a5,-4
    1c00:	00f707b3          	add	a5,a4,a5
    1c04:	00000713          	li	a4,0
    1c08:	0007a683          	lw	a3,0(a5)
    1c0c:	ffc78793          	addi	a5,a5,-4
    1c10:	00d76733          	or	a4,a4,a3
    1c14:	ff879ae3          	bne	a5,s8,1c08 <__kernel_rem_pio2+0x3c4>
    1c18:	3a071e63          	bnez	a4,1fd4 <__kernel_rem_pio2+0x790>
    1c1c:	02c12783          	lw	a5,44(sp)
    1c20:	dd07a783          	lw	a5,-560(a5)
    1c24:	3a079063          	bnez	a5,1fc4 <__kernel_rem_pio2+0x780>
    1c28:	03012783          	lw	a5,48(sp)
    1c2c:	00100713          	li	a4,1
    1c30:	ffc78793          	addi	a5,a5,-4
    1c34:	0047a683          	lw	a3,4(a5)
    1c38:	00170713          	addi	a4,a4,1
    1c3c:	fe068ae3          	beqz	a3,1c30 <__kernel_rem_pio2+0x3ec>
    1c40:	00148793          	addi	a5,s1,1
    1c44:	00078a93          	mv	s5,a5
    1c48:	00e484b3          	add	s1,s1,a4
    1c4c:	01012703          	lw	a4,16(sp)
    1c50:	02412d83          	lw	s11,36(sp)
    1c54:	01812023          	sw	s8,0(sp)
    1c58:	00f70933          	add	s2,a4,a5
    1c5c:	02012703          	lw	a4,32(sp)
    1c60:	00f70a33          	add	s4,a4,a5
    1c64:	01812703          	lw	a4,24(sp)
    1c68:	00379793          	slli	a5,a5,0x3
    1c6c:	002a1a13          	slli	s4,s4,0x2
    1c70:	00e90933          	add	s2,s2,a4
    1c74:	02812703          	lw	a4,40(sp)
    1c78:	00391913          	slli	s2,s2,0x3
    1c7c:	00fd09b3          	add	s3,s10,a5
    1c80:	09010793          	addi	a5,sp,144
    1c84:	01470a33          	add	s4,a4,s4
    1c88:	01278933          	add	s2,a5,s2
    1c8c:	000a2503          	lw	a0,0(s4)
    1c90:	238030ef          	jal	ra,4ec8 <__floatsidf>
    1c94:	01012783          	lw	a5,16(sp)
    1c98:	00a92423          	sw	a0,8(s2)
    1c9c:	00b92623          	sw	a1,12(s2)
    1ca0:	0607cc63          	bltz	a5,1d18 <__kernel_rem_pio2+0x4d4>
    1ca4:	00090b93          	mv	s7,s2
    1ca8:	000d8b13          	mv	s6,s11
    1cac:	00000c13          	li	s8,0
    1cb0:	00000c93          	li	s9,0
    1cb4:	0100006f          	j	1cc4 <__kernel_rem_pio2+0x480>
    1cb8:	000ba503          	lw	a0,0(s7)
    1cbc:	004ba583          	lw	a1,4(s7)
    1cc0:	ff8b8b93          	addi	s7,s7,-8
    1cc4:	000b2603          	lw	a2,0(s6)
    1cc8:	004b2683          	lw	a3,4(s6)
    1ccc:	008b0b13          	addi	s6,s6,8
    1cd0:	1e4020ef          	jal	ra,3eb4 <__muldf3>
    1cd4:	00050613          	mv	a2,a0
    1cd8:	00058693          	mv	a3,a1
    1cdc:	000c0513          	mv	a0,s8
    1ce0:	000c8593          	mv	a1,s9
    1ce4:	72d000ef          	jal	ra,2c10 <__adddf3>
    1ce8:	00050c13          	mv	s8,a0
    1cec:	00058c93          	mv	s9,a1
    1cf0:	fc8b14e3          	bne	s6,s0,1cb8 <__kernel_rem_pio2+0x474>
    1cf4:	0189a023          	sw	s8,0(s3)
    1cf8:	0199a223          	sw	s9,4(s3)
    1cfc:	001a8a93          	addi	s5,s5,1
    1d00:	004a0a13          	addi	s4,s4,4
    1d04:	00898993          	addi	s3,s3,8
    1d08:	00890913          	addi	s2,s2,8
    1d0c:	f954d0e3          	bge	s1,s5,1c8c <__kernel_rem_pio2+0x448>
    1d10:	00012c03          	lw	s8,0(sp)
    1d14:	d15ff06f          	j	1a28 <__kernel_rem_pio2+0x1e4>
    1d18:	00000c13          	li	s8,0
    1d1c:	00000c93          	li	s9,0
    1d20:	0189a023          	sw	s8,0(s3)
    1d24:	0199a223          	sw	s9,4(s3)
    1d28:	001a8a93          	addi	s5,s5,1
    1d2c:	004a0a13          	addi	s4,s4,4
    1d30:	00898993          	addi	s3,s3,8
    1d34:	00890913          	addi	s2,s2,8
    1d38:	f554dae3          	bge	s1,s5,1c8c <__kernel_rem_pio2+0x448>
    1d3c:	fd5ff06f          	j	1d10 <__kernel_rem_pio2+0x4cc>
    1d40:	01412783          	lw	a5,20(sp)
    1d44:	22079863          	bnez	a5,1f74 <__kernel_rem_pio2+0x730>
    1d48:	fff48793          	addi	a5,s1,-1
    1d4c:	00279793          	slli	a5,a5,0x2
    1d50:	27010713          	addi	a4,sp,624
    1d54:	00f707b3          	add	a5,a4,a5
    1d58:	dd07aa03          	lw	s4,-560(a5)
    1d5c:	417a5a13          	srai	s4,s4,0x17
    1d60:	e74058e3          	blez	s4,1bd0 <__kernel_rem_pio2+0x38c>
    1d64:	001a8a93          	addi	s5,s5,1
    1d68:	6a905663          	blez	s1,2414 <__kernel_rem_pio2+0xbd0>
    1d6c:	04012803          	lw	a6,64(sp)
    1d70:	00100793          	li	a5,1
    1d74:	1a081063          	bnez	a6,1f14 <__kernel_rem_pio2+0x6d0>
    1d78:	02f48263          	beq	s1,a5,1d9c <__kernel_rem_pio2+0x558>
    1d7c:	04410693          	addi	a3,sp,68
    1d80:	00100713          	li	a4,1
    1d84:	0006a803          	lw	a6,0(a3) # 80000000 <__bss_end+0x7fffaa08>
    1d88:	00170793          	addi	a5,a4,1
    1d8c:	00468693          	addi	a3,a3,4
    1d90:	18081463          	bnez	a6,1f18 <__kernel_rem_pio2+0x6d4>
    1d94:	00078713          	mv	a4,a5
    1d98:	fef496e3          	bne	s1,a5,1d84 <__kernel_rem_pio2+0x540>
    1d9c:	01412703          	lw	a4,20(sp)
    1da0:	02e05a63          	blez	a4,1dd4 <__kernel_rem_pio2+0x590>
    1da4:	00100793          	li	a5,1
    1da8:	62f70e63          	beq	a4,a5,23e4 <__kernel_rem_pio2+0xba0>
    1dac:	00200793          	li	a5,2
    1db0:	02f71263          	bne	a4,a5,1dd4 <__kernel_rem_pio2+0x590>
    1db4:	fff48793          	addi	a5,s1,-1
    1db8:	27010713          	addi	a4,sp,624
    1dbc:	00279793          	slli	a5,a5,0x2
    1dc0:	00f707b3          	add	a5,a4,a5
    1dc4:	dd07a703          	lw	a4,-560(a5)
    1dc8:	00a71713          	slli	a4,a4,0xa
    1dcc:	00a75713          	srli	a4,a4,0xa
    1dd0:	dce7a823          	sw	a4,-560(a5)
    1dd4:	00200793          	li	a5,2
    1dd8:	defa1ce3          	bne	s4,a5,1bd0 <__kernel_rem_pio2+0x38c>
    1ddc:	00003797          	auipc	a5,0x3
    1de0:	59478793          	addi	a5,a5,1428 # 5370 <PIo2+0x70>
    1de4:	0007a503          	lw	a0,0(a5)
    1de8:	0047a583          	lw	a1,4(a5)
    1dec:	00090613          	mv	a2,s2
    1df0:	00098693          	mv	a3,s3
    1df4:	01012023          	sw	a6,0(sp)
    1df8:	7d0020ef          	jal	ra,45c8 <__subdf3>
    1dfc:	00012803          	lw	a6,0(sp)
    1e00:	00050913          	mv	s2,a0
    1e04:	00058993          	mv	s3,a1
    1e08:	dc0804e3          	beqz	a6,1bd0 <__kernel_rem_pio2+0x38c>
    1e0c:	00003797          	auipc	a5,0x3
    1e10:	56478793          	addi	a5,a5,1380 # 5370 <PIo2+0x70>
    1e14:	0007a503          	lw	a0,0(a5)
    1e18:	0047a583          	lw	a1,4(a5)
    1e1c:	01412603          	lw	a2,20(sp)
    1e20:	3d9000ef          	jal	ra,29f8 <scalbn>
    1e24:	00050613          	mv	a2,a0
    1e28:	00058693          	mv	a3,a1
    1e2c:	00090513          	mv	a0,s2
    1e30:	00098593          	mv	a1,s3
    1e34:	794020ef          	jal	ra,45c8 <__subdf3>
    1e38:	00050913          	mv	s2,a0
    1e3c:	00058993          	mv	s3,a1
    1e40:	00000613          	li	a2,0
    1e44:	00000693          	li	a3,0
    1e48:	00090513          	mv	a0,s2
    1e4c:	00098593          	mv	a1,s3
    1e50:	6e9010ef          	jal	ra,3d38 <__eqdf2>
    1e54:	d8050ae3          	beqz	a0,1be8 <__kernel_rem_pio2+0x3a4>
    1e58:	01412d03          	lw	s10,20(sp)
    1e5c:	00090513          	mv	a0,s2
    1e60:	00098593          	mv	a1,s3
    1e64:	41a00633          	neg	a2,s10
    1e68:	01c12d83          	lw	s11,28(sp)
    1e6c:	38d000ef          	jal	ra,29f8 <scalbn>
    1e70:	00003797          	auipc	a5,0x3
    1e74:	4e078793          	addi	a5,a5,1248 # 5350 <PIo2+0x50>
    1e78:	0007a903          	lw	s2,0(a5)
    1e7c:	0047a983          	lw	s3,4(a5)
    1e80:	00050c13          	mv	s8,a0
    1e84:	00090613          	mv	a2,s2
    1e88:	00098693          	mv	a3,s3
    1e8c:	00058c93          	mv	s9,a1
    1e90:	735010ef          	jal	ra,3dc4 <__gedf2>
    1e94:	62054c63          	bltz	a0,24cc <__kernel_rem_pio2+0xc88>
    1e98:	00003717          	auipc	a4,0x3
    1e9c:	4b070713          	addi	a4,a4,1200 # 5348 <PIo2+0x48>
    1ea0:	00072603          	lw	a2,0(a4)
    1ea4:	00472683          	lw	a3,4(a4)
    1ea8:	000c0513          	mv	a0,s8
    1eac:	000c8593          	mv	a1,s9
    1eb0:	004020ef          	jal	ra,3eb4 <__muldf3>
    1eb4:	791020ef          	jal	ra,4e44 <__fixdfsi>
    1eb8:	27010793          	addi	a5,sp,624
    1ebc:	00249413          	slli	s0,s1,0x2
    1ec0:	00878433          	add	s0,a5,s0
    1ec4:	00050b93          	mv	s7,a0
    1ec8:	000030ef          	jal	ra,4ec8 <__floatsidf>
    1ecc:	00090613          	mv	a2,s2
    1ed0:	00098693          	mv	a3,s3
    1ed4:	7e1010ef          	jal	ra,3eb4 <__muldf3>
    1ed8:	00050613          	mv	a2,a0
    1edc:	00058693          	mv	a3,a1
    1ee0:	000c0513          	mv	a0,s8
    1ee4:	000c8593          	mv	a1,s9
    1ee8:	6e0020ef          	jal	ra,45c8 <__subdf3>
    1eec:	759020ef          	jal	ra,4e44 <__fixdfsi>
    1ef0:	00148b13          	addi	s6,s1,1
    1ef4:	27010713          	addi	a4,sp,624
    1ef8:	002b1793          	slli	a5,s6,0x2
    1efc:	00f707b3          	add	a5,a4,a5
    1f00:	dca42823          	sw	a0,-560(s0)
    1f04:	018d0713          	addi	a4,s10,24
    1f08:	00e12a23          	sw	a4,20(sp)
    1f0c:	dd77a823          	sw	s7,-560(a5)
    1f10:	1140006f          	j	2024 <__kernel_rem_pio2+0x7e0>
    1f14:	00000713          	li	a4,0
    1f18:	00271713          	slli	a4,a4,0x2
    1f1c:	01000637          	lui	a2,0x1000
    1f20:	27010693          	addi	a3,sp,624
    1f24:	00e68733          	add	a4,a3,a4
    1f28:	41060833          	sub	a6,a2,a6
    1f2c:	dd072823          	sw	a6,-560(a4)
    1f30:	0297de63          	bge	a5,s1,1f6c <__kernel_rem_pio2+0x728>
    1f34:	00279793          	slli	a5,a5,0x2
    1f38:	00f68733          	add	a4,a3,a5
    1f3c:	04010593          	addi	a1,sp,64
    1f40:	00249693          	slli	a3,s1,0x2
    1f44:	dd072703          	lw	a4,-560(a4)
    1f48:	00f587b3          	add	a5,a1,a5
    1f4c:	00d586b3          	add	a3,a1,a3
    1f50:	fff60613          	addi	a2,a2,-1 # ffffff <__bss_end+0xffaa07>
    1f54:	0080006f          	j	1f5c <__kernel_rem_pio2+0x718>
    1f58:	0007a703          	lw	a4,0(a5)
    1f5c:	40e60733          	sub	a4,a2,a4
    1f60:	00e7a023          	sw	a4,0(a5)
    1f64:	00478793          	addi	a5,a5,4
    1f68:	fed798e3          	bne	a5,a3,1f58 <__kernel_rem_pio2+0x714>
    1f6c:	00100813          	li	a6,1
    1f70:	e2dff06f          	j	1d9c <__kernel_rem_pio2+0x558>
    1f74:	00003797          	auipc	a5,0x3
    1f78:	3f478793          	addi	a5,a5,1012 # 5368 <PIo2+0x68>
    1f7c:	0007a603          	lw	a2,0(a5)
    1f80:	0047a683          	lw	a3,4(a5)
    1f84:	00000a13          	li	s4,0
    1f88:	63d010ef          	jal	ra,3dc4 <__gedf2>
    1f8c:	c40542e3          	bltz	a0,1bd0 <__kernel_rem_pio2+0x38c>
    1f90:	001a8a93          	addi	s5,s5,1
    1f94:	00200a13          	li	s4,2
    1f98:	dc904ae3          	bgtz	s1,1d6c <__kernel_rem_pio2+0x528>
    1f9c:	00003797          	auipc	a5,0x3
    1fa0:	3d478793          	addi	a5,a5,980 # 5370 <PIo2+0x70>
    1fa4:	0007a503          	lw	a0,0(a5)
    1fa8:	0047a583          	lw	a1,4(a5)
    1fac:	00090613          	mv	a2,s2
    1fb0:	00098693          	mv	a3,s3
    1fb4:	614020ef          	jal	ra,45c8 <__subdf3>
    1fb8:	00050913          	mv	s2,a0
    1fbc:	00058993          	mv	s3,a1
    1fc0:	c11ff06f          	j	1bd0 <__kernel_rem_pio2+0x38c>
    1fc4:	00148793          	addi	a5,s1,1
    1fc8:	00078a93          	mv	s5,a5
    1fcc:	00078493          	mv	s1,a5
    1fd0:	c7dff06f          	j	1c4c <__kernel_rem_pio2+0x408>
    1fd4:	27010713          	addi	a4,sp,624
    1fd8:	00261793          	slli	a5,a2,0x2
    1fdc:	00f707b3          	add	a5,a4,a5
    1fe0:	01412703          	lw	a4,20(sp)
    1fe4:	dd07a783          	lw	a5,-560(a5)
    1fe8:	01c12d83          	lw	s11,28(sp)
    1fec:	fe870713          	addi	a4,a4,-24
    1ff0:	00e12a23          	sw	a4,20(sp)
    1ff4:	00060b13          	mv	s6,a2
    1ff8:	02079663          	bnez	a5,2024 <__kernel_rem_pio2+0x7e0>
    1ffc:	00249793          	slli	a5,s1,0x2
    2000:	ff878793          	addi	a5,a5,-8
    2004:	04010693          	addi	a3,sp,64
    2008:	00f687b3          	add	a5,a3,a5
    200c:	ffc78793          	addi	a5,a5,-4
    2010:	0047a683          	lw	a3,4(a5)
    2014:	fffb0b13          	addi	s6,s6,-1
    2018:	fe870713          	addi	a4,a4,-24
    201c:	fe0688e3          	beqz	a3,200c <__kernel_rem_pio2+0x7c8>
    2020:	00e12a23          	sw	a4,20(sp)
    2024:	00003797          	auipc	a5,0x3
    2028:	34c78793          	addi	a5,a5,844 # 5370 <PIo2+0x70>
    202c:	0007a503          	lw	a0,0(a5)
    2030:	0047a583          	lw	a1,4(a5)
    2034:	01412603          	lw	a2,20(sp)
    2038:	1c1000ef          	jal	ra,29f8 <scalbn>
    203c:	00050413          	mv	s0,a0
    2040:	00058493          	mv	s1,a1
    2044:	4e0b4c63          	bltz	s6,253c <__kernel_rem_pio2+0xcf8>
    2048:	003b1793          	slli	a5,s6,0x3
    204c:	00078713          	mv	a4,a5
    2050:	1d010693          	addi	a3,sp,464
    2054:	00e68bb3          	add	s7,a3,a4
    2058:	00f12423          	sw	a5,8(sp)
    205c:	00003717          	auipc	a4,0x3
    2060:	2ec70713          	addi	a4,a4,748 # 5348 <PIo2+0x48>
    2064:	002b1793          	slli	a5,s6,0x2
    2068:	04010693          	addi	a3,sp,64
    206c:	00f68cb3          	add	s9,a3,a5
    2070:	000b8c13          	mv	s8,s7
    2074:	00072903          	lw	s2,0(a4)
    2078:	00472983          	lw	s3,4(a4)
    207c:	0080006f          	j	2084 <__kernel_rem_pio2+0x840>
    2080:	00078c93          	mv	s9,a5
    2084:	000ca503          	lw	a0,0(s9)
    2088:	ff8c0c13          	addi	s8,s8,-8
    208c:	63d020ef          	jal	ra,4ec8 <__floatsidf>
    2090:	00040613          	mv	a2,s0
    2094:	00048693          	mv	a3,s1
    2098:	61d010ef          	jal	ra,3eb4 <__muldf3>
    209c:	00ac2423          	sw	a0,8(s8)
    20a0:	00bc2623          	sw	a1,12(s8)
    20a4:	00040513          	mv	a0,s0
    20a8:	00048593          	mv	a1,s1
    20ac:	00090613          	mv	a2,s2
    20b0:	00098693          	mv	a3,s3
    20b4:	601010ef          	jal	ra,3eb4 <__muldf3>
    20b8:	04010713          	addi	a4,sp,64
    20bc:	00050413          	mv	s0,a0
    20c0:	00058493          	mv	s1,a1
    20c4:	ffcc8793          	addi	a5,s9,-4
    20c8:	fb971ce3          	bne	a4,s9,2080 <__kernel_rem_pio2+0x83c>
    20cc:	13010793          	addi	a5,sp,304
    20d0:	00f12023          	sw	a5,0(sp)
    20d4:	000d8c93          	mv	s9,s11
    20d8:	00078493          	mv	s1,a5
    20dc:	00000413          	li	s0,0
    20e0:	080ccc63          	bltz	s9,2178 <__kernel_rem_pio2+0x934>
    20e4:	00003797          	auipc	a5,0x3
    20e8:	25c78793          	addi	a5,a5,604 # 5340 <PIo2+0x40>
    20ec:	00003c17          	auipc	s8,0x3
    20f0:	214c0c13          	addi	s8,s8,532 # 5300 <PIo2>
    20f4:	000b8993          	mv	s3,s7
    20f8:	0007a503          	lw	a0,0(a5)
    20fc:	0047a583          	lw	a1,4(a5)
    2100:	00000d13          	li	s10,0
    2104:	00000d93          	li	s11,0
    2108:	00000913          	li	s2,0
    210c:	0180006f          	j	2124 <__kernel_rem_pio2+0x8e0>
    2110:	008c0c13          	addi	s8,s8,8
    2114:	00898993          	addi	s3,s3,8
    2118:	03244e63          	blt	s0,s2,2154 <__kernel_rem_pio2+0x910>
    211c:	000c2503          	lw	a0,0(s8)
    2120:	004c2583          	lw	a1,4(s8)
    2124:	0009a603          	lw	a2,0(s3)
    2128:	0049a683          	lw	a3,4(s3)
    212c:	00190913          	addi	s2,s2,1
    2130:	585010ef          	jal	ra,3eb4 <__muldf3>
    2134:	00050613          	mv	a2,a0
    2138:	00058693          	mv	a3,a1
    213c:	000d0513          	mv	a0,s10
    2140:	000d8593          	mv	a1,s11
    2144:	2cd000ef          	jal	ra,2c10 <__adddf3>
    2148:	00050d13          	mv	s10,a0
    214c:	00058d93          	mv	s11,a1
    2150:	fd2cd0e3          	bge	s9,s2,2110 <__kernel_rem_pio2+0x8cc>
    2154:	01a4a023          	sw	s10,0(s1)
    2158:	01b4a223          	sw	s11,4(s1)
    215c:	1d010713          	addi	a4,sp,464
    2160:	00140413          	addi	s0,s0,1
    2164:	00848493          	addi	s1,s1,8
    2168:	ff8b8793          	addi	a5,s7,-8
    216c:	03770863          	beq	a4,s7,219c <__kernel_rem_pio2+0x958>
    2170:	00078b93          	mv	s7,a5
    2174:	f60cd8e3          	bgez	s9,20e4 <__kernel_rem_pio2+0x8a0>
    2178:	00000d13          	li	s10,0
    217c:	00000d93          	li	s11,0
    2180:	01a4a023          	sw	s10,0(s1)
    2184:	01b4a223          	sw	s11,4(s1)
    2188:	1d010713          	addi	a4,sp,464
    218c:	00140413          	addi	s0,s0,1
    2190:	00848493          	addi	s1,s1,8
    2194:	ff8b8793          	addi	a5,s7,-8
    2198:	fd771ce3          	bne	a4,s7,2170 <__kernel_rem_pio2+0x92c>
    219c:	03812703          	lw	a4,56(sp)
    21a0:	00200793          	li	a5,2
    21a4:	0ae7c263          	blt	a5,a4,2248 <__kernel_rem_pio2+0xa04>
    21a8:	26e04a63          	bgtz	a4,241c <__kernel_rem_pio2+0xbd8>
    21ac:	04071e63          	bnez	a4,2208 <__kernel_rem_pio2+0x9c4>
    21b0:	00812783          	lw	a5,8(sp)
    21b4:	00012403          	lw	s0,0(sp)
    21b8:	00000513          	li	a0,0
    21bc:	00000593          	li	a1,0
    21c0:	00f40cb3          	add	s9,s0,a5
    21c4:	000ca603          	lw	a2,0(s9)
    21c8:	004ca683          	lw	a3,4(s9)
    21cc:	245000ef          	jal	ra,2c10 <__adddf3>
    21d0:	ff8c8793          	addi	a5,s9,-8
    21d4:	01940e63          	beq	s0,s9,21f0 <__kernel_rem_pio2+0x9ac>
    21d8:	00078c93          	mv	s9,a5
    21dc:	000ca603          	lw	a2,0(s9)
    21e0:	004ca683          	lw	a3,4(s9)
    21e4:	22d000ef          	jal	ra,2c10 <__adddf3>
    21e8:	ff8c8793          	addi	a5,s9,-8
    21ec:	ff9416e3          	bne	s0,s9,21d8 <__kernel_rem_pio2+0x994>
    21f0:	000a0663          	beqz	s4,21fc <__kernel_rem_pio2+0x9b8>
    21f4:	800007b7          	lui	a5,0x80000
    21f8:	00b7c5b3          	xor	a1,a5,a1
    21fc:	03412683          	lw	a3,52(sp)
    2200:	00a6a023          	sw	a0,0(a3)
    2204:	00b6a223          	sw	a1,4(a3)
    2208:	2ac12083          	lw	ra,684(sp)
    220c:	2a812403          	lw	s0,680(sp)
    2210:	007af513          	andi	a0,s5,7
    2214:	2a412483          	lw	s1,676(sp)
    2218:	2a012903          	lw	s2,672(sp)
    221c:	29c12983          	lw	s3,668(sp)
    2220:	29812a03          	lw	s4,664(sp)
    2224:	29412a83          	lw	s5,660(sp)
    2228:	29012b03          	lw	s6,656(sp)
    222c:	28c12b83          	lw	s7,652(sp)
    2230:	28812c03          	lw	s8,648(sp)
    2234:	28412c83          	lw	s9,644(sp)
    2238:	28012d03          	lw	s10,640(sp)
    223c:	27c12d83          	lw	s11,636(sp)
    2240:	2b010113          	addi	sp,sp,688
    2244:	00008067          	ret
    2248:	03812703          	lw	a4,56(sp)
    224c:	00300793          	li	a5,3
    2250:	faf71ce3          	bne	a4,a5,2208 <__kernel_rem_pio2+0x9c4>
    2254:	31605c63          	blez	s6,256c <__kernel_rem_pio2+0xd28>
    2258:	003b1b93          	slli	s7,s6,0x3
    225c:	27010793          	addi	a5,sp,624
    2260:	017787b3          	add	a5,a5,s7
    2264:	13010993          	addi	s3,sp,304
    2268:	ff8b8413          	addi	s0,s7,-8
    226c:	01312023          	sw	s3,0(sp)
    2270:	ec07ad83          	lw	s11,-320(a5) # 7ffffec0 <__bss_end+0x7fffa8c8>
    2274:	ec47ad03          	lw	s10,-316(a5)
    2278:	00898433          	add	s0,s3,s0
    227c:	0080006f          	j	2284 <__kernel_rem_pio2+0xa40>
    2280:	00078413          	mv	s0,a5
    2284:	00042c03          	lw	s8,0(s0)
    2288:	00442c83          	lw	s9,4(s0)
    228c:	000d8613          	mv	a2,s11
    2290:	000d0693          	mv	a3,s10
    2294:	000c0513          	mv	a0,s8
    2298:	000c8593          	mv	a1,s9
    229c:	175000ef          	jal	ra,2c10 <__adddf3>
    22a0:	00050913          	mv	s2,a0
    22a4:	00058493          	mv	s1,a1
    22a8:	00050613          	mv	a2,a0
    22ac:	00058693          	mv	a3,a1
    22b0:	000c0513          	mv	a0,s8
    22b4:	000c8593          	mv	a1,s9
    22b8:	310020ef          	jal	ra,45c8 <__subdf3>
    22bc:	000d8613          	mv	a2,s11
    22c0:	000d0693          	mv	a3,s10
    22c4:	14d000ef          	jal	ra,2c10 <__adddf3>
    22c8:	00a42423          	sw	a0,8(s0)
    22cc:	00b42623          	sw	a1,12(s0)
    22d0:	01242023          	sw	s2,0(s0)
    22d4:	00942223          	sw	s1,4(s0)
    22d8:	ff840793          	addi	a5,s0,-8
    22dc:	00090d93          	mv	s11,s2
    22e0:	00048d13          	mv	s10,s1
    22e4:	f8899ee3          	bne	s3,s0,2280 <__kernel_rem_pio2+0xa3c>
    22e8:	00100793          	li	a5,1
    22ec:	2967d063          	bge	a5,s6,256c <__kernel_rem_pio2+0xd28>
    22f0:	003b1413          	slli	s0,s6,0x3
    22f4:	00012b03          	lw	s6,0(sp)
    22f8:	27010793          	addi	a5,sp,624
    22fc:	01778bb3          	add	s7,a5,s7
    2300:	ff840413          	addi	s0,s0,-8
    2304:	ec0bad03          	lw	s10,-320(s7)
    2308:	008b04b3          	add	s1,s6,s0
    230c:	ec4bab83          	lw	s7,-316(s7)
    2310:	0080006f          	j	2318 <__kernel_rem_pio2+0xad4>
    2314:	00078493          	mv	s1,a5
    2318:	0004ac03          	lw	s8,0(s1)
    231c:	0044ac83          	lw	s9,4(s1)
    2320:	000d0613          	mv	a2,s10
    2324:	000b8693          	mv	a3,s7
    2328:	000c0513          	mv	a0,s8
    232c:	000c8593          	mv	a1,s9
    2330:	0e1000ef          	jal	ra,2c10 <__adddf3>
    2334:	00050993          	mv	s3,a0
    2338:	00058913          	mv	s2,a1
    233c:	00050613          	mv	a2,a0
    2340:	00058693          	mv	a3,a1
    2344:	000c0513          	mv	a0,s8
    2348:	000c8593          	mv	a1,s9
    234c:	27c020ef          	jal	ra,45c8 <__subdf3>
    2350:	000d0613          	mv	a2,s10
    2354:	000b8693          	mv	a3,s7
    2358:	0b9000ef          	jal	ra,2c10 <__adddf3>
    235c:	00a4a423          	sw	a0,8(s1)
    2360:	00b4a623          	sw	a1,12(s1)
    2364:	0134a023          	sw	s3,0(s1)
    2368:	0124a223          	sw	s2,4(s1)
    236c:	ff848793          	addi	a5,s1,-8
    2370:	00098d13          	mv	s10,s3
    2374:	00090b93          	mv	s7,s2
    2378:	f8fb1ee3          	bne	s6,a5,2314 <__kernel_rem_pio2+0xad0>
    237c:	00012783          	lw	a5,0(sp)
    2380:	00840413          	addi	s0,s0,8
    2384:	00000513          	li	a0,0
    2388:	00878933          	add	s2,a5,s0
    238c:	00000593          	li	a1,0
    2390:	00092603          	lw	a2,0(s2)
    2394:	00492683          	lw	a3,4(s2)
    2398:	ff890913          	addi	s2,s2,-8
    239c:	075000ef          	jal	ra,2c10 <__adddf3>
    23a0:	ff2498e3          	bne	s1,s2,2390 <__kernel_rem_pio2+0xb4c>
    23a4:	13012803          	lw	a6,304(sp)
    23a8:	13412703          	lw	a4,308(sp)
    23ac:	13812603          	lw	a2,312(sp)
    23b0:	13c12783          	lw	a5,316(sp)
    23b4:	120a1e63          	bnez	s4,24f0 <__kernel_rem_pio2+0xcac>
    23b8:	00078893          	mv	a7,a5
    23bc:	03412783          	lw	a5,52(sp)
    23c0:	00080313          	mv	t1,a6
    23c4:	00060813          	mv	a6,a2
    23c8:	0067a023          	sw	t1,0(a5)
    23cc:	00e7a223          	sw	a4,4(a5)
    23d0:	0107a423          	sw	a6,8(a5)
    23d4:	0117a623          	sw	a7,12(a5)
    23d8:	00a7a823          	sw	a0,16(a5)
    23dc:	00b7aa23          	sw	a1,20(a5)
    23e0:	e29ff06f          	j	2208 <__kernel_rem_pio2+0x9c4>
    23e4:	fff48793          	addi	a5,s1,-1
    23e8:	27010713          	addi	a4,sp,624
    23ec:	00279793          	slli	a5,a5,0x2
    23f0:	00f707b3          	add	a5,a4,a5
    23f4:	dd07a703          	lw	a4,-560(a5)
    23f8:	03c12683          	lw	a3,60(sp)
    23fc:	00d77733          	and	a4,a4,a3
    2400:	dce7a823          	sw	a4,-560(a5)
    2404:	9d1ff06f          	j	1dd4 <__kernel_rem_pio2+0x590>
    2408:	fe800793          	li	a5,-24
    240c:	02012023          	sw	zero,32(sp)
    2410:	cc8ff06f          	j	18d8 <__kernel_rem_pio2+0x94>
    2414:	00000813          	li	a6,0
    2418:	985ff06f          	j	1d9c <__kernel_rem_pio2+0x558>
    241c:	00012703          	lw	a4,0(sp)
    2420:	00812783          	lw	a5,8(sp)
    2424:	00000413          	li	s0,0
    2428:	00000493          	li	s1,0
    242c:	00f70cb3          	add	s9,a4,a5
    2430:	00040793          	mv	a5,s0
    2434:	00070413          	mv	s0,a4
    2438:	0080006f          	j	2440 <__kernel_rem_pio2+0xbfc>
    243c:	00070c93          	mv	s9,a4
    2440:	000ca603          	lw	a2,0(s9)
    2444:	004ca683          	lw	a3,4(s9)
    2448:	00048513          	mv	a0,s1
    244c:	00078593          	mv	a1,a5
    2450:	7c0000ef          	jal	ra,2c10 <__adddf3>
    2454:	ff8c8713          	addi	a4,s9,-8
    2458:	00050493          	mv	s1,a0
    245c:	00058793          	mv	a5,a1
    2460:	fd941ee3          	bne	s0,s9,243c <__kernel_rem_pio2+0xbf8>
    2464:	00058413          	mv	s0,a1
    2468:	13012503          	lw	a0,304(sp)
    246c:	13412583          	lw	a1,308(sp)
    2470:	00048613          	mv	a2,s1
    2474:	00040693          	mv	a3,s0
    2478:	150020ef          	jal	ra,45c8 <__subdf3>
    247c:	0a0a1263          	bnez	s4,2520 <__kernel_rem_pio2+0xcdc>
    2480:	03412683          	lw	a3,52(sp)
    2484:	0096a023          	sw	s1,0(a3)
    2488:	0086a223          	sw	s0,4(a3)
    248c:	03605863          	blez	s6,24bc <__kernel_rem_pio2+0xc78>
    2490:	13810493          	addi	s1,sp,312
    2494:	00100413          	li	s0,1
    2498:	0004a603          	lw	a2,0(s1)
    249c:	0044a683          	lw	a3,4(s1)
    24a0:	00140413          	addi	s0,s0,1
    24a4:	00848493          	addi	s1,s1,8
    24a8:	768000ef          	jal	ra,2c10 <__adddf3>
    24ac:	fe8b56e3          	bge	s6,s0,2498 <__kernel_rem_pio2+0xc54>
    24b0:	000a0663          	beqz	s4,24bc <__kernel_rem_pio2+0xc78>
    24b4:	800007b7          	lui	a5,0x80000
    24b8:	00b7c5b3          	xor	a1,a5,a1
    24bc:	03412683          	lw	a3,52(sp)
    24c0:	00a6a423          	sw	a0,8(a3)
    24c4:	00b6a623          	sw	a1,12(a3)
    24c8:	d41ff06f          	j	2208 <__kernel_rem_pio2+0x9c4>
    24cc:	27010793          	addi	a5,sp,624
    24d0:	00249413          	slli	s0,s1,0x2
    24d4:	000c0513          	mv	a0,s8
    24d8:	000c8593          	mv	a1,s9
    24dc:	00878433          	add	s0,a5,s0
    24e0:	165020ef          	jal	ra,4e44 <__fixdfsi>
    24e4:	dca42823          	sw	a0,-560(s0)
    24e8:	00048b13          	mv	s6,s1
    24ec:	b39ff06f          	j	2024 <__kernel_rem_pio2+0x7e0>
    24f0:	800006b7          	lui	a3,0x80000
    24f4:	00e6c733          	xor	a4,a3,a4
    24f8:	00f6c7b3          	xor	a5,a3,a5
    24fc:	00b6c6b3          	xor	a3,a3,a1
    2500:	03412583          	lw	a1,52(sp)
    2504:	0105a023          	sw	a6,0(a1)
    2508:	00e5a223          	sw	a4,4(a1)
    250c:	00c5a423          	sw	a2,8(a1)
    2510:	00f5a623          	sw	a5,12(a1)
    2514:	00a5a823          	sw	a0,16(a1)
    2518:	00d5aa23          	sw	a3,20(a1)
    251c:	cedff06f          	j	2208 <__kernel_rem_pio2+0x9c4>
    2520:	800007b7          	lui	a5,0x80000
    2524:	0087c433          	xor	s0,a5,s0
    2528:	03412783          	lw	a5,52(sp)
    252c:	0097a023          	sw	s1,0(a5) # 80000000 <__bss_end+0x7fffaa08>
    2530:	0087a223          	sw	s0,4(a5)
    2534:	f5604ee3          	bgtz	s6,2490 <__kernel_rem_pio2+0xc4c>
    2538:	f7dff06f          	j	24b4 <__kernel_rem_pio2+0xc70>
    253c:	03812703          	lw	a4,56(sp)
    2540:	00200793          	li	a5,2
    2544:	d0e7c2e3          	blt	a5,a4,2248 <__kernel_rem_pio2+0xa04>
    2548:	00e04c63          	bgtz	a4,2560 <__kernel_rem_pio2+0xd1c>
    254c:	00000513          	li	a0,0
    2550:	00000593          	li	a1,0
    2554:	ca071ae3          	bnez	a4,2208 <__kernel_rem_pio2+0x9c4>
    2558:	ca0a02e3          	beqz	s4,21fc <__kernel_rem_pio2+0x9b8>
    255c:	c99ff06f          	j	21f4 <__kernel_rem_pio2+0x9b0>
    2560:	00000493          	li	s1,0
    2564:	00000413          	li	s0,0
    2568:	f01ff06f          	j	2468 <__kernel_rem_pio2+0xc24>
    256c:	00000513          	li	a0,0
    2570:	00000593          	li	a1,0
    2574:	e31ff06f          	j	23a4 <__kernel_rem_pio2+0xb60>

Disassembly of section .text.__kernel_sin:

00002578 <__kernel_sin>:
    2578:	fc010113          	addi	sp,sp,-64
    257c:	00159793          	slli	a5,a1,0x1
    2580:	02812c23          	sw	s0,56(sp)
    2584:	02912a23          	sw	s1,52(sp)
    2588:	03412423          	sw	s4,40(sp)
    258c:	03512223          	sw	s5,36(sp)
    2590:	01812c23          	sw	s8,24(sp)
    2594:	02112e23          	sw	ra,60(sp)
    2598:	03212823          	sw	s2,48(sp)
    259c:	03312623          	sw	s3,44(sp)
    25a0:	03612023          	sw	s6,32(sp)
    25a4:	01712e23          	sw	s7,28(sp)
    25a8:	01912a23          	sw	s9,20(sp)
    25ac:	01a12823          	sw	s10,16(sp)
    25b0:	01b12623          	sw	s11,12(sp)
    25b4:	0017d793          	srli	a5,a5,0x1
    25b8:	3e400837          	lui	a6,0x3e400
    25bc:	00058413          	mv	s0,a1
    25c0:	00050493          	mv	s1,a0
    25c4:	00060a13          	mv	s4,a2
    25c8:	00068a93          	mv	s5,a3
    25cc:	00070c13          	mv	s8,a4
    25d0:	0107da63          	bge	a5,a6,25e4 <__kernel_sin+0x6c>
    25d4:	071020ef          	jal	ra,4e44 <__fixdfsi>
    25d8:	00048713          	mv	a4,s1
    25dc:	00040793          	mv	a5,s0
    25e0:	12050063          	beqz	a0,2700 <__kernel_sin+0x188>
    25e4:	00048613          	mv	a2,s1
    25e8:	00040693          	mv	a3,s0
    25ec:	00048513          	mv	a0,s1
    25f0:	00040593          	mv	a1,s0
    25f4:	0c1010ef          	jal	ra,3eb4 <__muldf3>
    25f8:	00050913          	mv	s2,a0
    25fc:	00058993          	mv	s3,a1
    2600:	00050613          	mv	a2,a0
    2604:	00058693          	mv	a3,a1
    2608:	00048513          	mv	a0,s1
    260c:	00040593          	mv	a1,s0
    2610:	0a5010ef          	jal	ra,3eb4 <__muldf3>
    2614:	00003797          	auipc	a5,0x3
    2618:	d7478793          	addi	a5,a5,-652 # 5388 <init_jk+0x10>
    261c:	0007a603          	lw	a2,0(a5)
    2620:	0047a683          	lw	a3,4(a5)
    2624:	00050b13          	mv	s6,a0
    2628:	00058b93          	mv	s7,a1
    262c:	00090513          	mv	a0,s2
    2630:	00098593          	mv	a1,s3
    2634:	081010ef          	jal	ra,3eb4 <__muldf3>
    2638:	00003797          	auipc	a5,0x3
    263c:	d5878793          	addi	a5,a5,-680 # 5390 <init_jk+0x18>
    2640:	0007a603          	lw	a2,0(a5)
    2644:	0047a683          	lw	a3,4(a5)
    2648:	781010ef          	jal	ra,45c8 <__subdf3>
    264c:	00090613          	mv	a2,s2
    2650:	00098693          	mv	a3,s3
    2654:	061010ef          	jal	ra,3eb4 <__muldf3>
    2658:	00003797          	auipc	a5,0x3
    265c:	d4078793          	addi	a5,a5,-704 # 5398 <init_jk+0x20>
    2660:	0007a603          	lw	a2,0(a5)
    2664:	0047a683          	lw	a3,4(a5)
    2668:	5a8000ef          	jal	ra,2c10 <__adddf3>
    266c:	00090613          	mv	a2,s2
    2670:	00098693          	mv	a3,s3
    2674:	041010ef          	jal	ra,3eb4 <__muldf3>
    2678:	00003797          	auipc	a5,0x3
    267c:	d2878793          	addi	a5,a5,-728 # 53a0 <init_jk+0x28>
    2680:	0007a603          	lw	a2,0(a5)
    2684:	0047a683          	lw	a3,4(a5)
    2688:	741010ef          	jal	ra,45c8 <__subdf3>
    268c:	00090613          	mv	a2,s2
    2690:	00098693          	mv	a3,s3
    2694:	021010ef          	jal	ra,3eb4 <__muldf3>
    2698:	00003797          	auipc	a5,0x3
    269c:	d1078793          	addi	a5,a5,-752 # 53a8 <init_jk+0x30>
    26a0:	0007a603          	lw	a2,0(a5)
    26a4:	0047a683          	lw	a3,4(a5)
    26a8:	568000ef          	jal	ra,2c10 <__adddf3>
    26ac:	00050d13          	mv	s10,a0
    26b0:	00058d93          	mv	s11,a1
    26b4:	080c1863          	bnez	s8,2744 <__kernel_sin+0x1cc>
    26b8:	00050613          	mv	a2,a0
    26bc:	00058693          	mv	a3,a1
    26c0:	00090513          	mv	a0,s2
    26c4:	00098593          	mv	a1,s3
    26c8:	7ec010ef          	jal	ra,3eb4 <__muldf3>
    26cc:	00003797          	auipc	a5,0x3
    26d0:	ce478793          	addi	a5,a5,-796 # 53b0 <init_jk+0x38>
    26d4:	0007a603          	lw	a2,0(a5)
    26d8:	0047a683          	lw	a3,4(a5)
    26dc:	6ed010ef          	jal	ra,45c8 <__subdf3>
    26e0:	000b0613          	mv	a2,s6
    26e4:	000b8693          	mv	a3,s7
    26e8:	7cc010ef          	jal	ra,3eb4 <__muldf3>
    26ec:	00048613          	mv	a2,s1
    26f0:	00040693          	mv	a3,s0
    26f4:	51c000ef          	jal	ra,2c10 <__adddf3>
    26f8:	00050713          	mv	a4,a0
    26fc:	00058793          	mv	a5,a1
    2700:	03c12083          	lw	ra,60(sp)
    2704:	03812403          	lw	s0,56(sp)
    2708:	03412483          	lw	s1,52(sp)
    270c:	03012903          	lw	s2,48(sp)
    2710:	02c12983          	lw	s3,44(sp)
    2714:	02812a03          	lw	s4,40(sp)
    2718:	02412a83          	lw	s5,36(sp)
    271c:	02012b03          	lw	s6,32(sp)
    2720:	01c12b83          	lw	s7,28(sp)
    2724:	01812c03          	lw	s8,24(sp)
    2728:	01412c83          	lw	s9,20(sp)
    272c:	01012d03          	lw	s10,16(sp)
    2730:	00c12d83          	lw	s11,12(sp)
    2734:	00070513          	mv	a0,a4
    2738:	00078593          	mv	a1,a5
    273c:	04010113          	addi	sp,sp,64
    2740:	00008067          	ret
    2744:	00003797          	auipc	a5,0x3
    2748:	c7478793          	addi	a5,a5,-908 # 53b8 <init_jk+0x40>
    274c:	0007a603          	lw	a2,0(a5)
    2750:	0047a683          	lw	a3,4(a5)
    2754:	000a0513          	mv	a0,s4
    2758:	000a8593          	mv	a1,s5
    275c:	758010ef          	jal	ra,3eb4 <__muldf3>
    2760:	00050c13          	mv	s8,a0
    2764:	00058c93          	mv	s9,a1
    2768:	000d0613          	mv	a2,s10
    276c:	000d8693          	mv	a3,s11
    2770:	000b0513          	mv	a0,s6
    2774:	000b8593          	mv	a1,s7
    2778:	73c010ef          	jal	ra,3eb4 <__muldf3>
    277c:	00050613          	mv	a2,a0
    2780:	00058693          	mv	a3,a1
    2784:	000c0513          	mv	a0,s8
    2788:	000c8593          	mv	a1,s9
    278c:	63d010ef          	jal	ra,45c8 <__subdf3>
    2790:	00090613          	mv	a2,s2
    2794:	00098693          	mv	a3,s3
    2798:	71c010ef          	jal	ra,3eb4 <__muldf3>
    279c:	000a0613          	mv	a2,s4
    27a0:	000a8693          	mv	a3,s5
    27a4:	625010ef          	jal	ra,45c8 <__subdf3>
    27a8:	00003797          	auipc	a5,0x3
    27ac:	c0878793          	addi	a5,a5,-1016 # 53b0 <init_jk+0x38>
    27b0:	0007a603          	lw	a2,0(a5)
    27b4:	0047a683          	lw	a3,4(a5)
    27b8:	00050913          	mv	s2,a0
    27bc:	00058993          	mv	s3,a1
    27c0:	000b0513          	mv	a0,s6
    27c4:	000b8593          	mv	a1,s7
    27c8:	6ec010ef          	jal	ra,3eb4 <__muldf3>
    27cc:	00050613          	mv	a2,a0
    27d0:	00058693          	mv	a3,a1
    27d4:	00090513          	mv	a0,s2
    27d8:	00098593          	mv	a1,s3
    27dc:	434000ef          	jal	ra,2c10 <__adddf3>
    27e0:	00050613          	mv	a2,a0
    27e4:	00058693          	mv	a3,a1
    27e8:	00048513          	mv	a0,s1
    27ec:	00040593          	mv	a1,s0
    27f0:	5d9010ef          	jal	ra,45c8 <__subdf3>
    27f4:	00050713          	mv	a4,a0
    27f8:	00058793          	mv	a5,a1
    27fc:	f05ff06f          	j	2700 <__kernel_sin+0x188>

Disassembly of section .text.fabs:

00002800 <fabs>:
    2800:	00159593          	slli	a1,a1,0x1
    2804:	0015d593          	srli	a1,a1,0x1
    2808:	00008067          	ret

Disassembly of section .text.floor:

0000280c <floor>:
    280c:	4145d793          	srai	a5,a1,0x14
    2810:	fe010113          	addi	sp,sp,-32
    2814:	7ff7f793          	andi	a5,a5,2047
    2818:	00812c23          	sw	s0,24(sp)
    281c:	00912a23          	sw	s1,20(sp)
    2820:	01212823          	sw	s2,16(sp)
    2824:	01312623          	sw	s3,12(sp)
    2828:	01412423          	sw	s4,8(sp)
    282c:	00112e23          	sw	ra,28(sp)
    2830:	01512223          	sw	s5,4(sp)
    2834:	01612023          	sw	s6,0(sp)
    2838:	c0178493          	addi	s1,a5,-1023
    283c:	01300713          	li	a4,19
    2840:	00058413          	mv	s0,a1
    2844:	00050993          	mv	s3,a0
    2848:	00058913          	mv	s2,a1
    284c:	00050a13          	mv	s4,a0
    2850:	0c974863          	blt	a4,s1,2920 <floor+0x114>
    2854:	0804cc63          	bltz	s1,28ec <floor+0xe0>
    2858:	00100b37          	lui	s6,0x100
    285c:	fffb0a93          	addi	s5,s6,-1 # fffff <__bss_end+0xfaa07>
    2860:	409adab3          	sra	s5,s5,s1
    2864:	00baf7b3          	and	a5,s5,a1
    2868:	00a7e7b3          	or	a5,a5,a0
    286c:	00050693          	mv	a3,a0
    2870:	00058713          	mv	a4,a1
    2874:	04078463          	beqz	a5,28bc <floor+0xb0>
    2878:	00003797          	auipc	a5,0x3
    287c:	b4878793          	addi	a5,a5,-1208 # 53c0 <init_jk+0x48>
    2880:	0007a603          	lw	a2,0(a5)
    2884:	0047a683          	lw	a3,4(a5)
    2888:	388000ef          	jal	ra,2c10 <__adddf3>
    288c:	00000613          	li	a2,0
    2890:	00000693          	li	a3,0
    2894:	530010ef          	jal	ra,3dc4 <__gedf2>
    2898:	00a05e63          	blez	a0,28b4 <floor+0xa8>
    289c:	00045663          	bgez	s0,28a8 <floor+0x9c>
    28a0:	409b54b3          	sra	s1,s6,s1
    28a4:	00848933          	add	s2,s1,s0
    28a8:	fffaca93          	not	s5,s5
    28ac:	01597933          	and	s2,s2,s5
    28b0:	00000a13          	li	s4,0
    28b4:	000a0693          	mv	a3,s4
    28b8:	00090713          	mv	a4,s2
    28bc:	01c12083          	lw	ra,28(sp)
    28c0:	01812403          	lw	s0,24(sp)
    28c4:	01412483          	lw	s1,20(sp)
    28c8:	01012903          	lw	s2,16(sp)
    28cc:	00c12983          	lw	s3,12(sp)
    28d0:	00812a03          	lw	s4,8(sp)
    28d4:	00412a83          	lw	s5,4(sp)
    28d8:	00012b03          	lw	s6,0(sp)
    28dc:	00068513          	mv	a0,a3
    28e0:	00070593          	mv	a1,a4
    28e4:	02010113          	addi	sp,sp,32
    28e8:	00008067          	ret
    28ec:	00003797          	auipc	a5,0x3
    28f0:	ad478793          	addi	a5,a5,-1324 # 53c0 <init_jk+0x48>
    28f4:	0007a603          	lw	a2,0(a5)
    28f8:	0047a683          	lw	a3,4(a5)
    28fc:	314000ef          	jal	ra,2c10 <__adddf3>
    2900:	00000613          	li	a2,0
    2904:	00000693          	li	a3,0
    2908:	4bc010ef          	jal	ra,3dc4 <__gedf2>
    290c:	faa054e3          	blez	a0,28b4 <floor+0xa8>
    2910:	08044863          	bltz	s0,29a0 <floor+0x194>
    2914:	00000a13          	li	s4,0
    2918:	00000913          	li	s2,0
    291c:	f99ff06f          	j	28b4 <floor+0xa8>
    2920:	03300713          	li	a4,51
    2924:	02975663          	bge	a4,s1,2950 <floor+0x144>
    2928:	40000793          	li	a5,1024
    292c:	00050693          	mv	a3,a0
    2930:	00058713          	mv	a4,a1
    2934:	f8f494e3          	bne	s1,a5,28bc <floor+0xb0>
    2938:	00058693          	mv	a3,a1
    293c:	00050613          	mv	a2,a0
    2940:	2d0000ef          	jal	ra,2c10 <__adddf3>
    2944:	00050693          	mv	a3,a0
    2948:	00058713          	mv	a4,a1
    294c:	f71ff06f          	j	28bc <floor+0xb0>
    2950:	bed78793          	addi	a5,a5,-1043
    2954:	fff00a93          	li	s5,-1
    2958:	00fadab3          	srl	s5,s5,a5
    295c:	00aaf7b3          	and	a5,s5,a0
    2960:	00050693          	mv	a3,a0
    2964:	00058713          	mv	a4,a1
    2968:	f4078ae3          	beqz	a5,28bc <floor+0xb0>
    296c:	00003797          	auipc	a5,0x3
    2970:	a5478793          	addi	a5,a5,-1452 # 53c0 <init_jk+0x48>
    2974:	0007a603          	lw	a2,0(a5)
    2978:	0047a683          	lw	a3,4(a5)
    297c:	294000ef          	jal	ra,2c10 <__adddf3>
    2980:	00000613          	li	a2,0
    2984:	00000693          	li	a3,0
    2988:	43c010ef          	jal	ra,3dc4 <__gedf2>
    298c:	f2a054e3          	blez	a0,28b4 <floor+0xa8>
    2990:	02044663          	bltz	s0,29bc <floor+0x1b0>
    2994:	fffac793          	not	a5,s5
    2998:	00fa7a33          	and	s4,s4,a5
    299c:	f19ff06f          	j	28b4 <floor+0xa8>
    29a0:	00141413          	slli	s0,s0,0x1
    29a4:	00145413          	srli	s0,s0,0x1
    29a8:	01346433          	or	s0,s0,s3
    29ac:	00000a13          	li	s4,0
    29b0:	f00402e3          	beqz	s0,28b4 <floor+0xa8>
    29b4:	bff00937          	lui	s2,0xbff00
    29b8:	efdff06f          	j	28b4 <floor+0xa8>
    29bc:	01400793          	li	a5,20
    29c0:	02f48463          	beq	s1,a5,29e8 <floor+0x1dc>
    29c4:	03400793          	li	a5,52
    29c8:	409787b3          	sub	a5,a5,s1
    29cc:	00100493          	li	s1,1
    29d0:	00f494b3          	sll	s1,s1,a5
    29d4:	013489b3          	add	s3,s1,s3
    29d8:	0149fc63          	bgeu	s3,s4,29f0 <floor+0x1e4>
    29dc:	00140913          	addi	s2,s0,1
    29e0:	00098a13          	mv	s4,s3
    29e4:	fb1ff06f          	j	2994 <floor+0x188>
    29e8:	00140913          	addi	s2,s0,1
    29ec:	fa9ff06f          	j	2994 <floor+0x188>
    29f0:	00098a13          	mv	s4,s3
    29f4:	fa1ff06f          	j	2994 <floor+0x188>

Disassembly of section .text.scalbn:

000029f8 <scalbn>:
    29f8:	ff010113          	addi	sp,sp,-16
    29fc:	4145d793          	srai	a5,a1,0x14
    2a00:	00812423          	sw	s0,8(sp)
    2a04:	00112623          	sw	ra,12(sp)
    2a08:	00912223          	sw	s1,4(sp)
    2a0c:	7ff7f793          	andi	a5,a5,2047
    2a10:	00058713          	mv	a4,a1
    2a14:	00050693          	mv	a3,a0
    2a18:	00060413          	mv	s0,a2
    2a1c:	0c079263          	bnez	a5,2ae0 <scalbn+0xe8>
    2a20:	00159793          	slli	a5,a1,0x1
    2a24:	0017d793          	srli	a5,a5,0x1
    2a28:	00a7e7b3          	or	a5,a5,a0
    2a2c:	08078c63          	beqz	a5,2ac4 <scalbn+0xcc>
    2a30:	00003797          	auipc	a5,0x3
    2a34:	99878793          	addi	a5,a5,-1640 # 53c8 <init_jk+0x50>
    2a38:	0047a683          	lw	a3,4(a5)
    2a3c:	0007a603          	lw	a2,0(a5)
    2a40:	474010ef          	jal	ra,3eb4 <__muldf3>
    2a44:	ffff47b7          	lui	a5,0xffff4
    2a48:	cb078793          	addi	a5,a5,-848 # ffff3cb0 <__bss_end+0xfffee6b8>
    2a4c:	00050693          	mv	a3,a0
    2a50:	00058713          	mv	a4,a1
    2a54:	16f44063          	blt	s0,a5,2bb4 <scalbn+0x1bc>
    2a58:	4145d793          	srai	a5,a1,0x14
    2a5c:	7ff7f793          	andi	a5,a5,2047
    2a60:	00058613          	mv	a2,a1
    2a64:	fca78793          	addi	a5,a5,-54
    2a68:	00f407b3          	add	a5,s0,a5
    2a6c:	7fe00593          	li	a1,2046
    2a70:	10f5c463          	blt	a1,a5,2b78 <scalbn+0x180>
    2a74:	10f04863          	bgtz	a5,2b84 <scalbn+0x18c>
    2a78:	fcb00593          	li	a1,-53
    2a7c:	0ab7d063          	bge	a5,a1,2b1c <scalbn+0x124>
    2a80:	0000c7b7          	lui	a5,0xc
    2a84:	35078793          	addi	a5,a5,848 # c350 <__bss_end+0x6d58>
    2a88:	0e87c863          	blt	a5,s0,2b78 <scalbn+0x180>
    2a8c:	00003797          	auipc	a5,0x3
    2a90:	94478793          	addi	a5,a5,-1724 # 53d0 <init_jk+0x58>
    2a94:	0007a403          	lw	s0,0(a5)
    2a98:	0047a483          	lw	s1,4(a5)
    2a9c:	00068613          	mv	a2,a3
    2aa0:	00040513          	mv	a0,s0
    2aa4:	00070693          	mv	a3,a4
    2aa8:	00048593          	mv	a1,s1
    2aac:	140000ef          	jal	ra,2bec <copysign>
    2ab0:	00048693          	mv	a3,s1
    2ab4:	00040613          	mv	a2,s0
    2ab8:	3fc010ef          	jal	ra,3eb4 <__muldf3>
    2abc:	00050693          	mv	a3,a0
    2ac0:	00058713          	mv	a4,a1
    2ac4:	00c12083          	lw	ra,12(sp)
    2ac8:	00812403          	lw	s0,8(sp)
    2acc:	00412483          	lw	s1,4(sp)
    2ad0:	00068513          	mv	a0,a3
    2ad4:	00070593          	mv	a1,a4
    2ad8:	01010113          	addi	sp,sp,16
    2adc:	00008067          	ret
    2ae0:	7ff00813          	li	a6,2047
    2ae4:	00058613          	mv	a2,a1
    2ae8:	f90790e3          	bne	a5,a6,2a68 <scalbn+0x70>
    2aec:	00058693          	mv	a3,a1
    2af0:	00050613          	mv	a2,a0
    2af4:	11c000ef          	jal	ra,2c10 <__adddf3>
    2af8:	00c12083          	lw	ra,12(sp)
    2afc:	00812403          	lw	s0,8(sp)
    2b00:	00050693          	mv	a3,a0
    2b04:	00058713          	mv	a4,a1
    2b08:	00412483          	lw	s1,4(sp)
    2b0c:	00068513          	mv	a0,a3
    2b10:	00070593          	mv	a1,a4
    2b14:	01010113          	addi	sp,sp,16
    2b18:	00008067          	ret
    2b1c:	80100737          	lui	a4,0x80100
    2b20:	fff70713          	addi	a4,a4,-1 # 800fffff <__bss_end+0x800faa07>
    2b24:	03678793          	addi	a5,a5,54
    2b28:	00e67633          	and	a2,a2,a4
    2b2c:	01479793          	slli	a5,a5,0x14
    2b30:	00003717          	auipc	a4,0x3
    2b34:	8b070713          	addi	a4,a4,-1872 # 53e0 <init_jk+0x68>
    2b38:	00068593          	mv	a1,a3
    2b3c:	00c7e7b3          	or	a5,a5,a2
    2b40:	00472683          	lw	a3,4(a4)
    2b44:	00072603          	lw	a2,0(a4)
    2b48:	00058513          	mv	a0,a1
    2b4c:	00078593          	mv	a1,a5
    2b50:	364010ef          	jal	ra,3eb4 <__muldf3>
    2b54:	00c12083          	lw	ra,12(sp)
    2b58:	00812403          	lw	s0,8(sp)
    2b5c:	00050693          	mv	a3,a0
    2b60:	00058713          	mv	a4,a1
    2b64:	00412483          	lw	s1,4(sp)
    2b68:	00068513          	mv	a0,a3
    2b6c:	00070593          	mv	a1,a4
    2b70:	01010113          	addi	sp,sp,16
    2b74:	00008067          	ret
    2b78:	00003797          	auipc	a5,0x3
    2b7c:	86078793          	addi	a5,a5,-1952 # 53d8 <init_jk+0x60>
    2b80:	f15ff06f          	j	2a94 <scalbn+0x9c>
    2b84:	80100737          	lui	a4,0x80100
    2b88:	00c12083          	lw	ra,12(sp)
    2b8c:	00812403          	lw	s0,8(sp)
    2b90:	fff70713          	addi	a4,a4,-1 # 800fffff <__bss_end+0x800faa07>
    2b94:	00e67733          	and	a4,a2,a4
    2b98:	01479793          	slli	a5,a5,0x14
    2b9c:	00f76733          	or	a4,a4,a5
    2ba0:	00412483          	lw	s1,4(sp)
    2ba4:	00068513          	mv	a0,a3
    2ba8:	00070593          	mv	a1,a4
    2bac:	01010113          	addi	sp,sp,16
    2bb0:	00008067          	ret
    2bb4:	00003797          	auipc	a5,0x3
    2bb8:	81c78793          	addi	a5,a5,-2020 # 53d0 <init_jk+0x58>
    2bbc:	0047a683          	lw	a3,4(a5)
    2bc0:	0007a603          	lw	a2,0(a5)
    2bc4:	2f0010ef          	jal	ra,3eb4 <__muldf3>
    2bc8:	00c12083          	lw	ra,12(sp)
    2bcc:	00812403          	lw	s0,8(sp)
    2bd0:	00050693          	mv	a3,a0
    2bd4:	00058713          	mv	a4,a1
    2bd8:	00412483          	lw	s1,4(sp)
    2bdc:	00068513          	mv	a0,a3
    2be0:	00070593          	mv	a1,a4
    2be4:	01010113          	addi	sp,sp,16
    2be8:	00008067          	ret

Disassembly of section .text.copysign:

00002bec <copysign>:
    2bec:	80000737          	lui	a4,0x80000
    2bf0:	fff74793          	not	a5,a4
    2bf4:	00d776b3          	and	a3,a4,a3
    2bf8:	00b7f7b3          	and	a5,a5,a1
    2bfc:	00050713          	mv	a4,a0
    2c00:	00d7e7b3          	or	a5,a5,a3
    2c04:	00070513          	mv	a0,a4
    2c08:	00078593          	mv	a1,a5
    2c0c:	00008067          	ret

Disassembly of section .text.__adddf3:

00002c10 <__adddf3>:
    2c10:	00100837          	lui	a6,0x100
    2c14:	fe010113          	addi	sp,sp,-32
    2c18:	fff80813          	addi	a6,a6,-1 # fffff <__bss_end+0xfaa07>
    2c1c:	00b87733          	and	a4,a6,a1
    2c20:	00912a23          	sw	s1,20(sp)
    2c24:	00d87833          	and	a6,a6,a3
    2c28:	0145d493          	srli	s1,a1,0x14
    2c2c:	0146d313          	srli	t1,a3,0x14
    2c30:	00371e13          	slli	t3,a4,0x3
    2c34:	01312623          	sw	s3,12(sp)
    2c38:	01d55713          	srli	a4,a0,0x1d
    2c3c:	00381813          	slli	a6,a6,0x3
    2c40:	01d65793          	srli	a5,a2,0x1d
    2c44:	7ff4f493          	andi	s1,s1,2047
    2c48:	7ff37313          	andi	t1,t1,2047
    2c4c:	00112e23          	sw	ra,28(sp)
    2c50:	00812c23          	sw	s0,24(sp)
    2c54:	01212823          	sw	s2,16(sp)
    2c58:	01f5d993          	srli	s3,a1,0x1f
    2c5c:	01f6de93          	srli	t4,a3,0x1f
    2c60:	01c76733          	or	a4,a4,t3
    2c64:	00351f13          	slli	t5,a0,0x3
    2c68:	0107e833          	or	a6,a5,a6
    2c6c:	00361f93          	slli	t6,a2,0x3
    2c70:	40648e33          	sub	t3,s1,t1
    2c74:	1dd98463          	beq	s3,t4,2e3c <__adddf3+0x22c>
    2c78:	17c05863          	blez	t3,2de8 <__adddf3+0x1d8>
    2c7c:	20030a63          	beqz	t1,2e90 <__adddf3+0x280>
    2c80:	008006b7          	lui	a3,0x800
    2c84:	7ff00793          	li	a5,2047
    2c88:	00d86833          	or	a6,a6,a3
    2c8c:	40f48e63          	beq	s1,a5,30a8 <__adddf3+0x498>
    2c90:	03800793          	li	a5,56
    2c94:	3dc7ca63          	blt	a5,t3,3068 <__adddf3+0x458>
    2c98:	01f00793          	li	a5,31
    2c9c:	55c7c663          	blt	a5,t3,31e8 <__adddf3+0x5d8>
    2ca0:	02000513          	li	a0,32
    2ca4:	41c50533          	sub	a0,a0,t3
    2ca8:	01cfd7b3          	srl	a5,t6,t3
    2cac:	00a816b3          	sll	a3,a6,a0
    2cb0:	00af9933          	sll	s2,t6,a0
    2cb4:	00f6e6b3          	or	a3,a3,a5
    2cb8:	01203933          	snez	s2,s2
    2cbc:	01c857b3          	srl	a5,a6,t3
    2cc0:	0126e933          	or	s2,a3,s2
    2cc4:	40f70733          	sub	a4,a4,a5
    2cc8:	412f0933          	sub	s2,t5,s2
    2ccc:	012f37b3          	sltu	a5,t5,s2
    2cd0:	40f70633          	sub	a2,a4,a5
    2cd4:	00861793          	slli	a5,a2,0x8
    2cd8:	2a07d263          	bgez	a5,2f7c <__adddf3+0x36c>
    2cdc:	00800737          	lui	a4,0x800
    2ce0:	fff70713          	addi	a4,a4,-1 # 7fffff <__bss_end+0x7faa07>
    2ce4:	00e67433          	and	s0,a2,a4
    2ce8:	34040e63          	beqz	s0,3044 <__adddf3+0x434>
    2cec:	00040513          	mv	a0,s0
    2cf0:	348020ef          	jal	ra,5038 <__clzsi2>
    2cf4:	ff850713          	addi	a4,a0,-8
    2cf8:	02000793          	li	a5,32
    2cfc:	40e787b3          	sub	a5,a5,a4
    2d00:	00f957b3          	srl	a5,s2,a5
    2d04:	00e41633          	sll	a2,s0,a4
    2d08:	00c7e7b3          	or	a5,a5,a2
    2d0c:	00e91933          	sll	s2,s2,a4
    2d10:	30974c63          	blt	a4,s1,3028 <__adddf3+0x418>
    2d14:	40970533          	sub	a0,a4,s1
    2d18:	00150613          	addi	a2,a0,1
    2d1c:	01f00713          	li	a4,31
    2d20:	44c74663          	blt	a4,a2,316c <__adddf3+0x55c>
    2d24:	02000713          	li	a4,32
    2d28:	40c70733          	sub	a4,a4,a2
    2d2c:	00c956b3          	srl	a3,s2,a2
    2d30:	00e91933          	sll	s2,s2,a4
    2d34:	00e79733          	sll	a4,a5,a4
    2d38:	00d76733          	or	a4,a4,a3
    2d3c:	01203933          	snez	s2,s2
    2d40:	01276933          	or	s2,a4,s2
    2d44:	00c7d633          	srl	a2,a5,a2
    2d48:	00000493          	li	s1,0
    2d4c:	00797793          	andi	a5,s2,7
    2d50:	02078063          	beqz	a5,2d70 <__adddf3+0x160>
    2d54:	00f97713          	andi	a4,s2,15
    2d58:	00400793          	li	a5,4
    2d5c:	00f70a63          	beq	a4,a5,2d70 <__adddf3+0x160>
    2d60:	00490713          	addi	a4,s2,4 # bff00004 <__bss_end+0xbfefaa0c>
    2d64:	01273933          	sltu	s2,a4,s2
    2d68:	01260633          	add	a2,a2,s2
    2d6c:	00070913          	mv	s2,a4
    2d70:	00861793          	slli	a5,a2,0x8
    2d74:	2007d863          	bgez	a5,2f84 <__adddf3+0x374>
    2d78:	00148513          	addi	a0,s1,1
    2d7c:	7ff00793          	li	a5,2047
    2d80:	00098593          	mv	a1,s3
    2d84:	24f50c63          	beq	a0,a5,2fdc <__adddf3+0x3cc>
    2d88:	ff8007b7          	lui	a5,0xff800
    2d8c:	fff78793          	addi	a5,a5,-1 # ff7fffff <__bss_end+0xff7faa07>
    2d90:	00f677b3          	and	a5,a2,a5
    2d94:	01d79893          	slli	a7,a5,0x1d
    2d98:	00395913          	srli	s2,s2,0x3
    2d9c:	00979793          	slli	a5,a5,0x9
    2da0:	0128e8b3          	or	a7,a7,s2
    2da4:	00c7d793          	srli	a5,a5,0xc
    2da8:	7ff57513          	andi	a0,a0,2047
    2dac:	00c79693          	slli	a3,a5,0xc
    2db0:	01451513          	slli	a0,a0,0x14
    2db4:	01c12083          	lw	ra,28(sp)
    2db8:	01812403          	lw	s0,24(sp)
    2dbc:	00c6d693          	srli	a3,a3,0xc
    2dc0:	01f59593          	slli	a1,a1,0x1f
    2dc4:	00a6e6b3          	or	a3,a3,a0
    2dc8:	00b6e6b3          	or	a3,a3,a1
    2dcc:	01412483          	lw	s1,20(sp)
    2dd0:	01012903          	lw	s2,16(sp)
    2dd4:	00c12983          	lw	s3,12(sp)
    2dd8:	00088513          	mv	a0,a7
    2ddc:	00068593          	mv	a1,a3
    2de0:	02010113          	addi	sp,sp,32
    2de4:	00008067          	ret
    2de8:	0c0e1463          	bnez	t3,2eb0 <__adddf3+0x2a0>
    2dec:	00148313          	addi	t1,s1,1
    2df0:	7fe37313          	andi	t1,t1,2046
    2df4:	28031063          	bnez	t1,3074 <__adddf3+0x464>
    2df8:	01e767b3          	or	a5,a4,t5
    2dfc:	01f868b3          	or	a7,a6,t6
    2e00:	1e049663          	bnez	s1,2fec <__adddf3+0x3dc>
    2e04:	4c078063          	beqz	a5,32c4 <__adddf3+0x6b4>
    2e08:	50088863          	beqz	a7,3318 <__adddf3+0x708>
    2e0c:	41ff0933          	sub	s2,t5,t6
    2e10:	410707b3          	sub	a5,a4,a6
    2e14:	012f3633          	sltu	a2,t5,s2
    2e18:	40c78633          	sub	a2,a5,a2
    2e1c:	00861793          	slli	a5,a2,0x8
    2e20:	5a07d463          	bgez	a5,33c8 <__adddf3+0x7b8>
    2e24:	41ef8933          	sub	s2,t6,t5
    2e28:	40e807b3          	sub	a5,a6,a4
    2e2c:	012fb633          	sltu	a2,t6,s2
    2e30:	40c78633          	sub	a2,a5,a2
    2e34:	000e8993          	mv	s3,t4
    2e38:	f15ff06f          	j	2d4c <__adddf3+0x13c>
    2e3c:	0fc05a63          	blez	t3,2f30 <__adddf3+0x320>
    2e40:	0c030863          	beqz	t1,2f10 <__adddf3+0x300>
    2e44:	008006b7          	lui	a3,0x800
    2e48:	7ff00793          	li	a5,2047
    2e4c:	00d86833          	or	a6,a6,a3
    2e50:	44f48e63          	beq	s1,a5,32ac <__adddf3+0x69c>
    2e54:	03800793          	li	a5,56
    2e58:	15c7cc63          	blt	a5,t3,2fb0 <__adddf3+0x3a0>
    2e5c:	01f00793          	li	a5,31
    2e60:	3fc7da63          	bge	a5,t3,3254 <__adddf3+0x644>
    2e64:	fe0e0913          	addi	s2,t3,-32
    2e68:	02000793          	li	a5,32
    2e6c:	012856b3          	srl	a3,a6,s2
    2e70:	00fe0a63          	beq	t3,a5,2e84 <__adddf3+0x274>
    2e74:	04000913          	li	s2,64
    2e78:	41c90933          	sub	s2,s2,t3
    2e7c:	01281933          	sll	s2,a6,s2
    2e80:	012fefb3          	or	t6,t6,s2
    2e84:	01f03933          	snez	s2,t6
    2e88:	00d96933          	or	s2,s2,a3
    2e8c:	12c0006f          	j	2fb8 <__adddf3+0x3a8>
    2e90:	01f867b3          	or	a5,a6,t6
    2e94:	22078663          	beqz	a5,30c0 <__adddf3+0x4b0>
    2e98:	fffe0793          	addi	a5,t3,-1
    2e9c:	44078463          	beqz	a5,32e4 <__adddf3+0x6d4>
    2ea0:	7ff00693          	li	a3,2047
    2ea4:	20de0263          	beq	t3,a3,30a8 <__adddf3+0x498>
    2ea8:	00078e13          	mv	t3,a5
    2eac:	de5ff06f          	j	2c90 <__adddf3+0x80>
    2eb0:	409305b3          	sub	a1,t1,s1
    2eb4:	28049663          	bnez	s1,3140 <__adddf3+0x530>
    2eb8:	01e767b3          	or	a5,a4,t5
    2ebc:	3c078263          	beqz	a5,3280 <__adddf3+0x670>
    2ec0:	fff58793          	addi	a5,a1,-1
    2ec4:	50078c63          	beqz	a5,33dc <__adddf3+0x7cc>
    2ec8:	7ff00693          	li	a3,2047
    2ecc:	28d58263          	beq	a1,a3,3150 <__adddf3+0x540>
    2ed0:	00078593          	mv	a1,a5
    2ed4:	03800793          	li	a5,56
    2ed8:	32b7ce63          	blt	a5,a1,3214 <__adddf3+0x604>
    2edc:	01f00793          	li	a5,31
    2ee0:	4ab7c263          	blt	a5,a1,3384 <__adddf3+0x774>
    2ee4:	02000793          	li	a5,32
    2ee8:	40b787b3          	sub	a5,a5,a1
    2eec:	00f71933          	sll	s2,a4,a5
    2ef0:	00bf56b3          	srl	a3,t5,a1
    2ef4:	00ff17b3          	sll	a5,t5,a5
    2ef8:	00d96933          	or	s2,s2,a3
    2efc:	00f037b3          	snez	a5,a5
    2f00:	00b75733          	srl	a4,a4,a1
    2f04:	00f96933          	or	s2,s2,a5
    2f08:	40e80833          	sub	a6,a6,a4
    2f0c:	3100006f          	j	321c <__adddf3+0x60c>
    2f10:	01f867b3          	or	a5,a6,t6
    2f14:	3e078463          	beqz	a5,32fc <__adddf3+0x6ec>
    2f18:	fffe0793          	addi	a5,t3,-1
    2f1c:	28078263          	beqz	a5,31a0 <__adddf3+0x590>
    2f20:	7ff00693          	li	a3,2047
    2f24:	38de0463          	beq	t3,a3,32ac <__adddf3+0x69c>
    2f28:	00078e13          	mv	t3,a5
    2f2c:	f29ff06f          	j	2e54 <__adddf3+0x244>
    2f30:	1a0e1663          	bnez	t3,30dc <__adddf3+0x4cc>
    2f34:	00148693          	addi	a3,s1,1
    2f38:	7fe6f793          	andi	a5,a3,2046
    2f3c:	3e079a63          	bnez	a5,3330 <__adddf3+0x720>
    2f40:	01e767b3          	or	a5,a4,t5
    2f44:	34049e63          	bnez	s1,32a0 <__adddf3+0x690>
    2f48:	4a078863          	beqz	a5,33f8 <__adddf3+0x7e8>
    2f4c:	01f867b3          	or	a5,a6,t6
    2f50:	3c078463          	beqz	a5,3318 <__adddf3+0x708>
    2f54:	01ff0933          	add	s2,t5,t6
    2f58:	010707b3          	add	a5,a4,a6
    2f5c:	01e93f33          	sltu	t5,s2,t5
    2f60:	01e78633          	add	a2,a5,t5
    2f64:	00861793          	slli	a5,a2,0x8
    2f68:	0007da63          	bgez	a5,2f7c <__adddf3+0x36c>
    2f6c:	ff8007b7          	lui	a5,0xff800
    2f70:	fff78793          	addi	a5,a5,-1 # ff7fffff <__bss_end+0xff7faa07>
    2f74:	00f67633          	and	a2,a2,a5
    2f78:	00100493          	li	s1,1
    2f7c:	00797793          	andi	a5,s2,7
    2f80:	dc079ae3          	bnez	a5,2d54 <__adddf3+0x144>
    2f84:	01d61793          	slli	a5,a2,0x1d
    2f88:	00395893          	srli	a7,s2,0x3
    2f8c:	00f8e8b3          	or	a7,a7,a5
    2f90:	00365793          	srli	a5,a2,0x3
    2f94:	7ff00713          	li	a4,2047
    2f98:	06e48a63          	beq	s1,a4,300c <__adddf3+0x3fc>
    2f9c:	00c79793          	slli	a5,a5,0xc
    2fa0:	00c7d793          	srli	a5,a5,0xc
    2fa4:	7ff4f513          	andi	a0,s1,2047
    2fa8:	00098593          	mv	a1,s3
    2fac:	e01ff06f          	j	2dac <__adddf3+0x19c>
    2fb0:	01f86933          	or	s2,a6,t6
    2fb4:	01203933          	snez	s2,s2
    2fb8:	01e90933          	add	s2,s2,t5
    2fbc:	01e937b3          	sltu	a5,s2,t5
    2fc0:	00e78633          	add	a2,a5,a4
    2fc4:	00861793          	slli	a5,a2,0x8
    2fc8:	fa07dae3          	bgez	a5,2f7c <__adddf3+0x36c>
    2fcc:	00148493          	addi	s1,s1,1
    2fd0:	7ff00793          	li	a5,2047
    2fd4:	1ef49663          	bne	s1,a5,31c0 <__adddf3+0x5b0>
    2fd8:	00098593          	mv	a1,s3
    2fdc:	7ff00513          	li	a0,2047
    2fe0:	00000793          	li	a5,0
    2fe4:	00000893          	li	a7,0
    2fe8:	dc5ff06f          	j	2dac <__adddf3+0x19c>
    2fec:	0a079c63          	bnez	a5,30a4 <__adddf3+0x494>
    2ff0:	46088463          	beqz	a7,3458 <__adddf3+0x848>
    2ff4:	00361693          	slli	a3,a2,0x3
    2ff8:	01d81793          	slli	a5,a6,0x1d
    2ffc:	0036d693          	srli	a3,a3,0x3
    3000:	00d7e8b3          	or	a7,a5,a3
    3004:	000e8993          	mv	s3,t4
    3008:	00385793          	srli	a5,a6,0x3
    300c:	00f8e7b3          	or	a5,a7,a5
    3010:	fc0784e3          	beqz	a5,2fd8 <__adddf3+0x3c8>
    3014:	00000593          	li	a1,0
    3018:	7ff00513          	li	a0,2047
    301c:	000807b7          	lui	a5,0x80
    3020:	00000893          	li	a7,0
    3024:	d89ff06f          	j	2dac <__adddf3+0x19c>
    3028:	ff800637          	lui	a2,0xff800
    302c:	fff60613          	addi	a2,a2,-1 # ff7fffff <__bss_end+0xff7faa07>
    3030:	00c7f633          	and	a2,a5,a2
    3034:	00797793          	andi	a5,s2,7
    3038:	40e484b3          	sub	s1,s1,a4
    303c:	d0079ce3          	bnez	a5,2d54 <__adddf3+0x144>
    3040:	f45ff06f          	j	2f84 <__adddf3+0x374>
    3044:	00090513          	mv	a0,s2
    3048:	7f1010ef          	jal	ra,5038 <__clzsi2>
    304c:	01850713          	addi	a4,a0,24
    3050:	01f00793          	li	a5,31
    3054:	cae7d2e3          	bge	a5,a4,2cf8 <__adddf3+0xe8>
    3058:	ff850613          	addi	a2,a0,-8
    305c:	00c917b3          	sll	a5,s2,a2
    3060:	00000913          	li	s2,0
    3064:	cadff06f          	j	2d10 <__adddf3+0x100>
    3068:	01f86933          	or	s2,a6,t6
    306c:	01203933          	snez	s2,s2
    3070:	c59ff06f          	j	2cc8 <__adddf3+0xb8>
    3074:	41ff0933          	sub	s2,t5,t6
    3078:	41070633          	sub	a2,a4,a6
    307c:	012f3433          	sltu	s0,t5,s2
    3080:	40860433          	sub	s0,a2,s0
    3084:	00841793          	slli	a5,s0,0x8
    3088:	2c07cc63          	bltz	a5,3360 <__adddf3+0x750>
    308c:	008968b3          	or	a7,s2,s0
    3090:	c4089ce3          	bnez	a7,2ce8 <__adddf3+0xd8>
    3094:	00000793          	li	a5,0
    3098:	00000993          	li	s3,0
    309c:	00000493          	li	s1,0
    30a0:	efdff06f          	j	2f9c <__adddf3+0x38c>
    30a4:	f60898e3          	bnez	a7,3014 <__adddf3+0x404>
    30a8:	00351513          	slli	a0,a0,0x3
    30ac:	01d71793          	slli	a5,a4,0x1d
    30b0:	00355513          	srli	a0,a0,0x3
    30b4:	00a7e8b3          	or	a7,a5,a0
    30b8:	00375793          	srli	a5,a4,0x3
    30bc:	f51ff06f          	j	300c <__adddf3+0x3fc>
    30c0:	00351513          	slli	a0,a0,0x3
    30c4:	01d71793          	slli	a5,a4,0x1d
    30c8:	00355513          	srli	a0,a0,0x3
    30cc:	00a7e8b3          	or	a7,a5,a0
    30d0:	000e0493          	mv	s1,t3
    30d4:	00375793          	srli	a5,a4,0x3
    30d8:	ebdff06f          	j	2f94 <__adddf3+0x384>
    30dc:	40930533          	sub	a0,t1,s1
    30e0:	14048a63          	beqz	s1,3234 <__adddf3+0x624>
    30e4:	008006b7          	lui	a3,0x800
    30e8:	7ff00793          	li	a5,2047
    30ec:	00d76733          	or	a4,a4,a3
    30f0:	38f30663          	beq	t1,a5,347c <__adddf3+0x86c>
    30f4:	03800793          	li	a5,56
    30f8:	28a7c063          	blt	a5,a0,3378 <__adddf3+0x768>
    30fc:	01f00793          	li	a5,31
    3100:	32a7c663          	blt	a5,a0,342c <__adddf3+0x81c>
    3104:	02000793          	li	a5,32
    3108:	40a787b3          	sub	a5,a5,a0
    310c:	00f71933          	sll	s2,a4,a5
    3110:	00af56b3          	srl	a3,t5,a0
    3114:	00ff17b3          	sll	a5,t5,a5
    3118:	00d96933          	or	s2,s2,a3
    311c:	00f037b3          	snez	a5,a5
    3120:	00a75733          	srl	a4,a4,a0
    3124:	00f96933          	or	s2,s2,a5
    3128:	00e80833          	add	a6,a6,a4
    312c:	01f90933          	add	s2,s2,t6
    3130:	01f937b3          	sltu	a5,s2,t6
    3134:	01078633          	add	a2,a5,a6
    3138:	00030493          	mv	s1,t1
    313c:	e89ff06f          	j	2fc4 <__adddf3+0x3b4>
    3140:	008006b7          	lui	a3,0x800
    3144:	7ff00793          	li	a5,2047
    3148:	00d76733          	or	a4,a4,a3
    314c:	d8f314e3          	bne	t1,a5,2ed4 <__adddf3+0x2c4>
    3150:	00361793          	slli	a5,a2,0x3
    3154:	0037d793          	srli	a5,a5,0x3
    3158:	01d81893          	slli	a7,a6,0x1d
    315c:	0117e8b3          	or	a7,a5,a7
    3160:	000e8993          	mv	s3,t4
    3164:	00385793          	srli	a5,a6,0x3
    3168:	ea5ff06f          	j	300c <__adddf3+0x3fc>
    316c:	fe150713          	addi	a4,a0,-31
    3170:	02000693          	li	a3,32
    3174:	00e7d733          	srl	a4,a5,a4
    3178:	00d60a63          	beq	a2,a3,318c <__adddf3+0x57c>
    317c:	04000693          	li	a3,64
    3180:	40c68633          	sub	a2,a3,a2
    3184:	00c79633          	sll	a2,a5,a2
    3188:	00c96933          	or	s2,s2,a2
    318c:	01203933          	snez	s2,s2
    3190:	00e96933          	or	s2,s2,a4
    3194:	00000613          	li	a2,0
    3198:	00000493          	li	s1,0
    319c:	de1ff06f          	j	2f7c <__adddf3+0x36c>
    31a0:	01ff0933          	add	s2,t5,t6
    31a4:	010707b3          	add	a5,a4,a6
    31a8:	01e93633          	sltu	a2,s2,t5
    31ac:	00c78633          	add	a2,a5,a2
    31b0:	00861793          	slli	a5,a2,0x8
    31b4:	00100493          	li	s1,1
    31b8:	dc07d2e3          	bgez	a5,2f7c <__adddf3+0x36c>
    31bc:	00200493          	li	s1,2
    31c0:	ff8007b7          	lui	a5,0xff800
    31c4:	fff78793          	addi	a5,a5,-1 # ff7fffff <__bss_end+0xff7faa07>
    31c8:	00f677b3          	and	a5,a2,a5
    31cc:	00195713          	srli	a4,s2,0x1
    31d0:	00197913          	andi	s2,s2,1
    31d4:	01276933          	or	s2,a4,s2
    31d8:	01f79893          	slli	a7,a5,0x1f
    31dc:	0128e933          	or	s2,a7,s2
    31e0:	0017d613          	srli	a2,a5,0x1
    31e4:	b69ff06f          	j	2d4c <__adddf3+0x13c>
    31e8:	fe0e0913          	addi	s2,t3,-32
    31ec:	02000793          	li	a5,32
    31f0:	012856b3          	srl	a3,a6,s2
    31f4:	00fe0a63          	beq	t3,a5,3208 <__adddf3+0x5f8>
    31f8:	04000913          	li	s2,64
    31fc:	41c90933          	sub	s2,s2,t3
    3200:	01281933          	sll	s2,a6,s2
    3204:	012fefb3          	or	t6,t6,s2
    3208:	01f03933          	snez	s2,t6
    320c:	00d96933          	or	s2,s2,a3
    3210:	ab9ff06f          	j	2cc8 <__adddf3+0xb8>
    3214:	01e76933          	or	s2,a4,t5
    3218:	01203933          	snez	s2,s2
    321c:	412f8933          	sub	s2,t6,s2
    3220:	012fb7b3          	sltu	a5,t6,s2
    3224:	40f80633          	sub	a2,a6,a5
    3228:	00030493          	mv	s1,t1
    322c:	000e8993          	mv	s3,t4
    3230:	aa5ff06f          	j	2cd4 <__adddf3+0xc4>
    3234:	01e767b3          	or	a5,a4,t5
    3238:	1c078c63          	beqz	a5,3410 <__adddf3+0x800>
    323c:	fff50793          	addi	a5,a0,-1
    3240:	22078463          	beqz	a5,3468 <__adddf3+0x858>
    3244:	7ff00693          	li	a3,2047
    3248:	16d50463          	beq	a0,a3,33b0 <__adddf3+0x7a0>
    324c:	00078513          	mv	a0,a5
    3250:	ea5ff06f          	j	30f4 <__adddf3+0x4e4>
    3254:	02000793          	li	a5,32
    3258:	41c787b3          	sub	a5,a5,t3
    325c:	00f816b3          	sll	a3,a6,a5
    3260:	00ff9933          	sll	s2,t6,a5
    3264:	01cfd633          	srl	a2,t6,t3
    3268:	00c6e6b3          	or	a3,a3,a2
    326c:	01203933          	snez	s2,s2
    3270:	01c857b3          	srl	a5,a6,t3
    3274:	0126e933          	or	s2,a3,s2
    3278:	00f70733          	add	a4,a4,a5
    327c:	d3dff06f          	j	2fb8 <__adddf3+0x3a8>
    3280:	00361793          	slli	a5,a2,0x3
    3284:	0037d793          	srli	a5,a5,0x3
    3288:	01d81893          	slli	a7,a6,0x1d
    328c:	0117e8b3          	or	a7,a5,a7
    3290:	00058493          	mv	s1,a1
    3294:	00385793          	srli	a5,a6,0x3
    3298:	000e8993          	mv	s3,t4
    329c:	cf9ff06f          	j	2f94 <__adddf3+0x384>
    32a0:	10078863          	beqz	a5,33b0 <__adddf3+0x7a0>
    32a4:	01f86933          	or	s2,a6,t6
    32a8:	d60916e3          	bnez	s2,3014 <__adddf3+0x404>
    32ac:	00351513          	slli	a0,a0,0x3
    32b0:	01d71793          	slli	a5,a4,0x1d
    32b4:	00355513          	srli	a0,a0,0x3
    32b8:	00f568b3          	or	a7,a0,a5
    32bc:	00375793          	srli	a5,a4,0x3
    32c0:	d4dff06f          	j	300c <__adddf3+0x3fc>
    32c4:	10088663          	beqz	a7,33d0 <__adddf3+0x7c0>
    32c8:	00361693          	slli	a3,a2,0x3
    32cc:	01d81793          	slli	a5,a6,0x1d
    32d0:	0036d693          	srli	a3,a3,0x3
    32d4:	00d7e8b3          	or	a7,a5,a3
    32d8:	000e8993          	mv	s3,t4
    32dc:	00385793          	srli	a5,a6,0x3
    32e0:	cbdff06f          	j	2f9c <__adddf3+0x38c>
    32e4:	41ff0933          	sub	s2,t5,t6
    32e8:	410707b3          	sub	a5,a4,a6
    32ec:	012f3f33          	sltu	t5,t5,s2
    32f0:	41e78633          	sub	a2,a5,t5
    32f4:	00100493          	li	s1,1
    32f8:	9ddff06f          	j	2cd4 <__adddf3+0xc4>
    32fc:	00351513          	slli	a0,a0,0x3
    3300:	01d71793          	slli	a5,a4,0x1d
    3304:	00355513          	srli	a0,a0,0x3
    3308:	00f568b3          	or	a7,a0,a5
    330c:	000e0493          	mv	s1,t3
    3310:	00375793          	srli	a5,a4,0x3
    3314:	c81ff06f          	j	2f94 <__adddf3+0x384>
    3318:	00351513          	slli	a0,a0,0x3
    331c:	01d71793          	slli	a5,a4,0x1d
    3320:	00355513          	srli	a0,a0,0x3
    3324:	00a7e8b3          	or	a7,a5,a0
    3328:	00375793          	srli	a5,a4,0x3
    332c:	c71ff06f          	j	2f9c <__adddf3+0x38c>
    3330:	7ff00793          	li	a5,2047
    3334:	caf682e3          	beq	a3,a5,2fd8 <__adddf3+0x3c8>
    3338:	01ff0933          	add	s2,t5,t6
    333c:	01e93633          	sltu	a2,s2,t5
    3340:	010707b3          	add	a5,a4,a6
    3344:	00c787b3          	add	a5,a5,a2
    3348:	01f79893          	slli	a7,a5,0x1f
    334c:	00195913          	srli	s2,s2,0x1
    3350:	0128e933          	or	s2,a7,s2
    3354:	0017d613          	srli	a2,a5,0x1
    3358:	00068493          	mv	s1,a3
    335c:	c21ff06f          	j	2f7c <__adddf3+0x36c>
    3360:	41ef8933          	sub	s2,t6,t5
    3364:	40e80733          	sub	a4,a6,a4
    3368:	012fb633          	sltu	a2,t6,s2
    336c:	40c70433          	sub	s0,a4,a2
    3370:	000e8993          	mv	s3,t4
    3374:	975ff06f          	j	2ce8 <__adddf3+0xd8>
    3378:	01e76933          	or	s2,a4,t5
    337c:	01203933          	snez	s2,s2
    3380:	dadff06f          	j	312c <__adddf3+0x51c>
    3384:	fe058793          	addi	a5,a1,-32
    3388:	02000693          	li	a3,32
    338c:	00f757b3          	srl	a5,a4,a5
    3390:	00d58a63          	beq	a1,a3,33a4 <__adddf3+0x794>
    3394:	04000693          	li	a3,64
    3398:	40b685b3          	sub	a1,a3,a1
    339c:	00b71733          	sll	a4,a4,a1
    33a0:	00ef6f33          	or	t5,t5,a4
    33a4:	01e03933          	snez	s2,t5
    33a8:	00f96933          	or	s2,s2,a5
    33ac:	e71ff06f          	j	321c <__adddf3+0x60c>
    33b0:	00361793          	slli	a5,a2,0x3
    33b4:	0037d793          	srli	a5,a5,0x3
    33b8:	01d81893          	slli	a7,a6,0x1d
    33bc:	0117e8b3          	or	a7,a5,a7
    33c0:	00385793          	srli	a5,a6,0x3
    33c4:	c49ff06f          	j	300c <__adddf3+0x3fc>
    33c8:	00c968b3          	or	a7,s2,a2
    33cc:	ba0898e3          	bnez	a7,2f7c <__adddf3+0x36c>
    33d0:	00000793          	li	a5,0
    33d4:	00000993          	li	s3,0
    33d8:	bc5ff06f          	j	2f9c <__adddf3+0x38c>
    33dc:	41ef8933          	sub	s2,t6,t5
    33e0:	40e807b3          	sub	a5,a6,a4
    33e4:	012fb633          	sltu	a2,t6,s2
    33e8:	40c78633          	sub	a2,a5,a2
    33ec:	000e8993          	mv	s3,t4
    33f0:	00100493          	li	s1,1
    33f4:	8e1ff06f          	j	2cd4 <__adddf3+0xc4>
    33f8:	00361693          	slli	a3,a2,0x3
    33fc:	01d81793          	slli	a5,a6,0x1d
    3400:	0036d693          	srli	a3,a3,0x3
    3404:	00d7e8b3          	or	a7,a5,a3
    3408:	00385793          	srli	a5,a6,0x3
    340c:	b91ff06f          	j	2f9c <__adddf3+0x38c>
    3410:	00361693          	slli	a3,a2,0x3
    3414:	01d81793          	slli	a5,a6,0x1d
    3418:	0036d693          	srli	a3,a3,0x3
    341c:	00d7e8b3          	or	a7,a5,a3
    3420:	00050493          	mv	s1,a0
    3424:	00385793          	srli	a5,a6,0x3
    3428:	b6dff06f          	j	2f94 <__adddf3+0x384>
    342c:	fe050793          	addi	a5,a0,-32
    3430:	02000693          	li	a3,32
    3434:	00f757b3          	srl	a5,a4,a5
    3438:	00d50a63          	beq	a0,a3,344c <__adddf3+0x83c>
    343c:	04000693          	li	a3,64
    3440:	40a68533          	sub	a0,a3,a0
    3444:	00a71733          	sll	a4,a4,a0
    3448:	00ef6f33          	or	t5,t5,a4
    344c:	01e03933          	snez	s2,t5
    3450:	00f96933          	or	s2,s2,a5
    3454:	cd9ff06f          	j	312c <__adddf3+0x51c>
    3458:	00000593          	li	a1,0
    345c:	7ff00513          	li	a0,2047
    3460:	000807b7          	lui	a5,0x80
    3464:	949ff06f          	j	2dac <__adddf3+0x19c>
    3468:	01ff0933          	add	s2,t5,t6
    346c:	010707b3          	add	a5,a4,a6
    3470:	01f93633          	sltu	a2,s2,t6
    3474:	00c78633          	add	a2,a5,a2
    3478:	d39ff06f          	j	31b0 <__adddf3+0x5a0>
    347c:	00361693          	slli	a3,a2,0x3
    3480:	01d81793          	slli	a5,a6,0x1d
    3484:	0036d693          	srli	a3,a3,0x3
    3488:	00d7e8b3          	or	a7,a5,a3
    348c:	00385793          	srli	a5,a6,0x3
    3490:	b7dff06f          	j	300c <__adddf3+0x3fc>

Disassembly of section .text.__divdf3:

00003494 <__divdf3>:
    3494:	fb010113          	addi	sp,sp,-80
    3498:	0145d713          	srli	a4,a1,0x14
    349c:	04812423          	sw	s0,72(sp)
    34a0:	04912223          	sw	s1,68(sp)
    34a4:	03512a23          	sw	s5,52(sp)
    34a8:	00c59413          	slli	s0,a1,0xc
    34ac:	04112623          	sw	ra,76(sp)
    34b0:	05212023          	sw	s2,64(sp)
    34b4:	03312e23          	sw	s3,60(sp)
    34b8:	03412c23          	sw	s4,56(sp)
    34bc:	03612823          	sw	s6,48(sp)
    34c0:	03712623          	sw	s7,44(sp)
    34c4:	03812423          	sw	s8,40(sp)
    34c8:	03912223          	sw	s9,36(sp)
    34cc:	03a12023          	sw	s10,32(sp)
    34d0:	01b12e23          	sw	s11,28(sp)
    34d4:	7ff77713          	andi	a4,a4,2047
    34d8:	00050493          	mv	s1,a0
    34dc:	00c45413          	srli	s0,s0,0xc
    34e0:	01f5da93          	srli	s5,a1,0x1f
    34e4:	18070463          	beqz	a4,366c <__divdf3+0x1d8>
    34e8:	7ff00793          	li	a5,2047
    34ec:	1cf70e63          	beq	a4,a5,36c8 <__divdf3+0x234>
    34f0:	01d55b13          	srli	s6,a0,0x1d
    34f4:	00341413          	slli	s0,s0,0x3
    34f8:	008b6433          	or	s0,s6,s0
    34fc:	00800b37          	lui	s6,0x800
    3500:	01646b33          	or	s6,s0,s6
    3504:	00351b93          	slli	s7,a0,0x3
    3508:	c0170913          	addi	s2,a4,-1023
    350c:	00000413          	li	s0,0
    3510:	00000c13          	li	s8,0
    3514:	0146d713          	srli	a4,a3,0x14
    3518:	00c69993          	slli	s3,a3,0xc
    351c:	7ff77713          	andi	a4,a4,2047
    3520:	00060813          	mv	a6,a2
    3524:	00c9d993          	srli	s3,s3,0xc
    3528:	01f6da13          	srli	s4,a3,0x1f
    352c:	0e070863          	beqz	a4,361c <__divdf3+0x188>
    3530:	7ff00793          	li	a5,2047
    3534:	04f70863          	beq	a4,a5,3584 <__divdf3+0xf0>
    3538:	01d65493          	srli	s1,a2,0x1d
    353c:	00399993          	slli	s3,s3,0x3
    3540:	0134e9b3          	or	s3,s1,s3
    3544:	c0170713          	addi	a4,a4,-1023
    3548:	008007b7          	lui	a5,0x800
    354c:	00361813          	slli	a6,a2,0x3
    3550:	00f9e4b3          	or	s1,s3,a5
    3554:	40e90933          	sub	s2,s2,a4
    3558:	00000613          	li	a2,0
    355c:	00f00793          	li	a5,15
    3560:	014ac9b3          	xor	s3,s5,s4
    3564:	2687e863          	bltu	a5,s0,37d4 <__divdf3+0x340>
    3568:	00002797          	auipc	a5,0x2
    356c:	e8078793          	addi	a5,a5,-384 # 53e8 <init_jk+0x70>
    3570:	00241413          	slli	s0,s0,0x2
    3574:	00f40433          	add	s0,s0,a5
    3578:	00042703          	lw	a4,0(s0)
    357c:	00f70733          	add	a4,a4,a5
    3580:	00070067          	jr	a4
    3584:	00c9e4b3          	or	s1,s3,a2
    3588:	80190913          	addi	s2,s2,-2047
    358c:	18049a63          	bnez	s1,3720 <__divdf3+0x28c>
    3590:	00246413          	ori	s0,s0,2
    3594:	00000813          	li	a6,0
    3598:	00200613          	li	a2,2
    359c:	fc1ff06f          	j	355c <__divdf3+0xc8>
    35a0:	7ff00613          	li	a2,2047
    35a4:	00000793          	li	a5,0
    35a8:	00000713          	li	a4,0
    35ac:	00c79793          	slli	a5,a5,0xc
    35b0:	04c12083          	lw	ra,76(sp)
    35b4:	04812403          	lw	s0,72(sp)
    35b8:	01461613          	slli	a2,a2,0x14
    35bc:	00c7d793          	srli	a5,a5,0xc
    35c0:	01f99993          	slli	s3,s3,0x1f
    35c4:	00c7e7b3          	or	a5,a5,a2
    35c8:	0137e7b3          	or	a5,a5,s3
    35cc:	04412483          	lw	s1,68(sp)
    35d0:	04012903          	lw	s2,64(sp)
    35d4:	03c12983          	lw	s3,60(sp)
    35d8:	03812a03          	lw	s4,56(sp)
    35dc:	03412a83          	lw	s5,52(sp)
    35e0:	03012b03          	lw	s6,48(sp)
    35e4:	02c12b83          	lw	s7,44(sp)
    35e8:	02812c03          	lw	s8,40(sp)
    35ec:	02412c83          	lw	s9,36(sp)
    35f0:	02012d03          	lw	s10,32(sp)
    35f4:	01c12d83          	lw	s11,28(sp)
    35f8:	00070513          	mv	a0,a4
    35fc:	00078593          	mv	a1,a5
    3600:	05010113          	addi	sp,sp,80
    3604:	00008067          	ret
    3608:	00000993          	li	s3,0
    360c:	7ff00613          	li	a2,2047
    3610:	000807b7          	lui	a5,0x80
    3614:	00000713          	li	a4,0
    3618:	f95ff06f          	j	35ac <__divdf3+0x118>
    361c:	00c9e4b3          	or	s1,s3,a2
    3620:	0e048863          	beqz	s1,3710 <__divdf3+0x27c>
    3624:	4e098463          	beqz	s3,3b0c <__divdf3+0x678>
    3628:	00098513          	mv	a0,s3
    362c:	00c12423          	sw	a2,8(sp)
    3630:	209010ef          	jal	ra,5038 <__clzsi2>
    3634:	00812603          	lw	a2,8(sp)
    3638:	00050693          	mv	a3,a0
    363c:	ff550493          	addi	s1,a0,-11
    3640:	01d00793          	li	a5,29
    3644:	ff868713          	addi	a4,a3,-8 # 7ffff8 <__bss_end+0x7faa00>
    3648:	409787b3          	sub	a5,a5,s1
    364c:	00e999b3          	sll	s3,s3,a4
    3650:	00f657b3          	srl	a5,a2,a5
    3654:	0137e4b3          	or	s1,a5,s3
    3658:	00e61833          	sll	a6,a2,a4
    365c:	01268733          	add	a4,a3,s2
    3660:	3f370913          	addi	s2,a4,1011
    3664:	00000613          	li	a2,0
    3668:	ef5ff06f          	j	355c <__divdf3+0xc8>
    366c:	00a46b33          	or	s6,s0,a0
    3670:	080b0663          	beqz	s6,36fc <__divdf3+0x268>
    3674:	00d12623          	sw	a3,12(sp)
    3678:	00c12423          	sw	a2,8(sp)
    367c:	46040263          	beqz	s0,3ae0 <__divdf3+0x64c>
    3680:	00040513          	mv	a0,s0
    3684:	1b5010ef          	jal	ra,5038 <__clzsi2>
    3688:	00812603          	lw	a2,8(sp)
    368c:	00c12683          	lw	a3,12(sp)
    3690:	00050913          	mv	s2,a0
    3694:	ff550713          	addi	a4,a0,-11
    3698:	01d00b13          	li	s6,29
    369c:	ff890b93          	addi	s7,s2,-8
    36a0:	40eb0b33          	sub	s6,s6,a4
    36a4:	01741433          	sll	s0,s0,s7
    36a8:	0164db33          	srl	s6,s1,s6
    36ac:	008b6b33          	or	s6,s6,s0
    36b0:	01749bb3          	sll	s7,s1,s7
    36b4:	c0d00713          	li	a4,-1011
    36b8:	41270933          	sub	s2,a4,s2
    36bc:	00000413          	li	s0,0
    36c0:	00000c13          	li	s8,0
    36c4:	e51ff06f          	j	3514 <__divdf3+0x80>
    36c8:	00a46b33          	or	s6,s0,a0
    36cc:	000b1c63          	bnez	s6,36e4 <__divdf3+0x250>
    36d0:	00800413          	li	s0,8
    36d4:	00000b93          	li	s7,0
    36d8:	7ff00913          	li	s2,2047
    36dc:	00200c13          	li	s8,2
    36e0:	e35ff06f          	j	3514 <__divdf3+0x80>
    36e4:	00040b13          	mv	s6,s0
    36e8:	00050b93          	mv	s7,a0
    36ec:	00c00413          	li	s0,12
    36f0:	7ff00913          	li	s2,2047
    36f4:	00300c13          	li	s8,3
    36f8:	e1dff06f          	j	3514 <__divdf3+0x80>
    36fc:	00400413          	li	s0,4
    3700:	00000b93          	li	s7,0
    3704:	00000913          	li	s2,0
    3708:	00100c13          	li	s8,1
    370c:	e09ff06f          	j	3514 <__divdf3+0x80>
    3710:	00146413          	ori	s0,s0,1
    3714:	00000813          	li	a6,0
    3718:	00100613          	li	a2,1
    371c:	e41ff06f          	j	355c <__divdf3+0xc8>
    3720:	00346413          	ori	s0,s0,3
    3724:	00098493          	mv	s1,s3
    3728:	00300613          	li	a2,3
    372c:	e31ff06f          	j	355c <__divdf3+0xc8>
    3730:	4a040663          	beqz	s0,3bdc <__divdf3+0x748>
    3734:	00100793          	li	a5,1
    3738:	408787b3          	sub	a5,a5,s0
    373c:	03800713          	li	a4,56
    3740:	50f75663          	bge	a4,a5,3c4c <__divdf3+0x7b8>
    3744:	00000613          	li	a2,0
    3748:	00000793          	li	a5,0
    374c:	00000713          	li	a4,0
    3750:	e5dff06f          	j	35ac <__divdf3+0x118>
    3754:	000a0693          	mv	a3,s4
    3758:	00200793          	li	a5,2
    375c:	5af60c63          	beq	a2,a5,3d14 <__divdf3+0x880>
    3760:	00300793          	li	a5,3
    3764:	eaf602e3          	beq	a2,a5,3608 <__divdf3+0x174>
    3768:	00100793          	li	a5,1
    376c:	00068993          	mv	s3,a3
    3770:	fcf60ae3          	beq	a2,a5,3744 <__divdf3+0x2b0>
    3774:	3ff90413          	addi	s0,s2,1023
    3778:	fa805ce3          	blez	s0,3730 <__divdf3+0x29c>
    377c:	00787793          	andi	a5,a6,7
    3780:	42079063          	bnez	a5,3ba0 <__divdf3+0x70c>
    3784:	00385813          	srli	a6,a6,0x3
    3788:	00749793          	slli	a5,s1,0x7
    378c:	0007da63          	bgez	a5,37a0 <__divdf3+0x30c>
    3790:	ff0007b7          	lui	a5,0xff000
    3794:	fff78793          	addi	a5,a5,-1 # feffffff <__bss_end+0xfeffaa07>
    3798:	00f4f4b3          	and	s1,s1,a5
    379c:	40090413          	addi	s0,s2,1024
    37a0:	7fe00793          	li	a5,2046
    37a4:	de87cee3          	blt	a5,s0,35a0 <__divdf3+0x10c>
    37a8:	01d49713          	slli	a4,s1,0x1d
    37ac:	00949793          	slli	a5,s1,0x9
    37b0:	01076733          	or	a4,a4,a6
    37b4:	00c7d793          	srli	a5,a5,0xc
    37b8:	7ff47613          	andi	a2,s0,2047
    37bc:	df1ff06f          	j	35ac <__divdf3+0x118>
    37c0:	000a8693          	mv	a3,s5
    37c4:	000b0493          	mv	s1,s6
    37c8:	000b8813          	mv	a6,s7
    37cc:	000c0613          	mv	a2,s8
    37d0:	f89ff06f          	j	3758 <__divdf3+0x2c4>
    37d4:	3964ec63          	bltu	s1,s6,3b6c <__divdf3+0x6d8>
    37d8:	389b0863          	beq	s6,s1,3b68 <__divdf3+0x6d4>
    37dc:	fff90913          	addi	s2,s2,-1
    37e0:	000b8a13          	mv	s4,s7
    37e4:	00000d93          	li	s11,0
    37e8:	00849793          	slli	a5,s1,0x8
    37ec:	01885d13          	srli	s10,a6,0x18
    37f0:	00fd6d33          	or	s10,s10,a5
    37f4:	010d5a93          	srli	s5,s10,0x10
    37f8:	000a8593          	mv	a1,s5
    37fc:	010d1c93          	slli	s9,s10,0x10
    3800:	000b0513          	mv	a0,s6
    3804:	00881c13          	slli	s8,a6,0x8
    3808:	010cdc93          	srli	s9,s9,0x10
    380c:	b74fd0ef          	jal	ra,b80 <__udivsi3>
    3810:	00050593          	mv	a1,a0
    3814:	00050493          	mv	s1,a0
    3818:	000c8513          	mv	a0,s9
    381c:	b38fd0ef          	jal	ra,b54 <__mulsi3>
    3820:	00050b93          	mv	s7,a0
    3824:	000a8593          	mv	a1,s5
    3828:	000b0513          	mv	a0,s6
    382c:	b9cfd0ef          	jal	ra,bc8 <__umodsi3>
    3830:	01051513          	slli	a0,a0,0x10
    3834:	010a5713          	srli	a4,s4,0x10
    3838:	00a76533          	or	a0,a4,a0
    383c:	01757e63          	bgeu	a0,s7,3858 <__divdf3+0x3c4>
    3840:	01a50533          	add	a0,a0,s10
    3844:	fff48793          	addi	a5,s1,-1
    3848:	3fa56e63          	bltu	a0,s10,3c44 <__divdf3+0x7b0>
    384c:	3f757c63          	bgeu	a0,s7,3c44 <__divdf3+0x7b0>
    3850:	ffe48493          	addi	s1,s1,-2
    3854:	01a50533          	add	a0,a0,s10
    3858:	41750433          	sub	s0,a0,s7
    385c:	000a8593          	mv	a1,s5
    3860:	00040513          	mv	a0,s0
    3864:	b1cfd0ef          	jal	ra,b80 <__udivsi3>
    3868:	00050593          	mv	a1,a0
    386c:	00050b13          	mv	s6,a0
    3870:	000c8513          	mv	a0,s9
    3874:	ae0fd0ef          	jal	ra,b54 <__mulsi3>
    3878:	00050b93          	mv	s7,a0
    387c:	000a8593          	mv	a1,s5
    3880:	00040513          	mv	a0,s0
    3884:	b44fd0ef          	jal	ra,bc8 <__umodsi3>
    3888:	010a1a13          	slli	s4,s4,0x10
    388c:	01051513          	slli	a0,a0,0x10
    3890:	010a5a13          	srli	s4,s4,0x10
    3894:	00aa6533          	or	a0,s4,a0
    3898:	01757e63          	bgeu	a0,s7,38b4 <__divdf3+0x420>
    389c:	01a50533          	add	a0,a0,s10
    38a0:	fffb0793          	addi	a5,s6,-1 # 7fffff <__bss_end+0x7faa07>
    38a4:	39a56c63          	bltu	a0,s10,3c3c <__divdf3+0x7a8>
    38a8:	39757a63          	bgeu	a0,s7,3c3c <__divdf3+0x7a8>
    38ac:	ffeb0b13          	addi	s6,s6,-2
    38b0:	01a50533          	add	a0,a0,s10
    38b4:	00010e37          	lui	t3,0x10
    38b8:	01049493          	slli	s1,s1,0x10
    38bc:	0164e4b3          	or	s1,s1,s6
    38c0:	fffe0b13          	addi	s6,t3,-1 # ffff <__bss_end+0xaa07>
    38c4:	0164f833          	and	a6,s1,s6
    38c8:	016c7b33          	and	s6,s8,s6
    38cc:	41750bb3          	sub	s7,a0,s7
    38d0:	0104d713          	srli	a4,s1,0x10
    38d4:	010c5793          	srli	a5,s8,0x10
    38d8:	00080513          	mv	a0,a6
    38dc:	000b0593          	mv	a1,s6
    38e0:	a74fd0ef          	jal	ra,b54 <__mulsi3>
    38e4:	00050893          	mv	a7,a0
    38e8:	00078593          	mv	a1,a5
    38ec:	00080513          	mv	a0,a6
    38f0:	a64fd0ef          	jal	ra,b54 <__mulsi3>
    38f4:	00050813          	mv	a6,a0
    38f8:	000b0593          	mv	a1,s6
    38fc:	00070513          	mv	a0,a4
    3900:	a54fd0ef          	jal	ra,b54 <__mulsi3>
    3904:	00050313          	mv	t1,a0
    3908:	00078593          	mv	a1,a5
    390c:	00070513          	mv	a0,a4
    3910:	a44fd0ef          	jal	ra,b54 <__mulsi3>
    3914:	0108d713          	srli	a4,a7,0x10
    3918:	00680833          	add	a6,a6,t1
    391c:	01070733          	add	a4,a4,a6
    3920:	00677463          	bgeu	a4,t1,3928 <__divdf3+0x494>
    3924:	01c50533          	add	a0,a0,t3
    3928:	00010637          	lui	a2,0x10
    392c:	fff60613          	addi	a2,a2,-1 # ffff <__bss_end+0xaa07>
    3930:	01075693          	srli	a3,a4,0x10
    3934:	00c77a33          	and	s4,a4,a2
    3938:	010a1a13          	slli	s4,s4,0x10
    393c:	00c8f733          	and	a4,a7,a2
    3940:	00a68533          	add	a0,a3,a0
    3944:	00ea0a33          	add	s4,s4,a4
    3948:	1eabec63          	bltu	s7,a0,3b40 <__divdf3+0x6ac>
    394c:	1eab8863          	beq	s7,a0,3b3c <__divdf3+0x6a8>
    3950:	414d8a33          	sub	s4,s11,s4
    3954:	40ab8533          	sub	a0,s7,a0
    3958:	014dbbb3          	sltu	s7,s11,s4
    395c:	00f12423          	sw	a5,8(sp)
    3960:	41750bb3          	sub	s7,a0,s7
    3964:	3ff90413          	addi	s0,s2,1023
    3968:	257d0e63          	beq	s10,s7,3bc4 <__divdf3+0x730>
    396c:	000a8593          	mv	a1,s5
    3970:	000b8513          	mv	a0,s7
    3974:	a0cfd0ef          	jal	ra,b80 <__udivsi3>
    3978:	00050593          	mv	a1,a0
    397c:	00050d93          	mv	s11,a0
    3980:	000c8513          	mv	a0,s9
    3984:	9d0fd0ef          	jal	ra,b54 <__mulsi3>
    3988:	00a12623          	sw	a0,12(sp)
    398c:	000a8593          	mv	a1,s5
    3990:	000b8513          	mv	a0,s7
    3994:	a34fd0ef          	jal	ra,bc8 <__umodsi3>
    3998:	00c12703          	lw	a4,12(sp)
    399c:	01051513          	slli	a0,a0,0x10
    39a0:	010a5693          	srli	a3,s4,0x10
    39a4:	00a6e533          	or	a0,a3,a0
    39a8:	00812783          	lw	a5,8(sp)
    39ac:	00e57e63          	bgeu	a0,a4,39c8 <__divdf3+0x534>
    39b0:	01a50533          	add	a0,a0,s10
    39b4:	fffd8693          	addi	a3,s11,-1
    39b8:	31a56c63          	bltu	a0,s10,3cd0 <__divdf3+0x83c>
    39bc:	30e57a63          	bgeu	a0,a4,3cd0 <__divdf3+0x83c>
    39c0:	ffed8d93          	addi	s11,s11,-2
    39c4:	01a50533          	add	a0,a0,s10
    39c8:	40e50bb3          	sub	s7,a0,a4
    39cc:	000a8593          	mv	a1,s5
    39d0:	000b8513          	mv	a0,s7
    39d4:	00f12623          	sw	a5,12(sp)
    39d8:	9a8fd0ef          	jal	ra,b80 <__udivsi3>
    39dc:	00050593          	mv	a1,a0
    39e0:	00a12423          	sw	a0,8(sp)
    39e4:	000c8513          	mv	a0,s9
    39e8:	96cfd0ef          	jal	ra,b54 <__mulsi3>
    39ec:	00050c93          	mv	s9,a0
    39f0:	000a8593          	mv	a1,s5
    39f4:	000b8513          	mv	a0,s7
    39f8:	9d0fd0ef          	jal	ra,bc8 <__umodsi3>
    39fc:	010a1a13          	slli	s4,s4,0x10
    3a00:	01051513          	slli	a0,a0,0x10
    3a04:	010a5a13          	srli	s4,s4,0x10
    3a08:	00aa6a33          	or	s4,s4,a0
    3a0c:	00812803          	lw	a6,8(sp)
    3a10:	00c12783          	lw	a5,12(sp)
    3a14:	019a7e63          	bgeu	s4,s9,3a30 <__divdf3+0x59c>
    3a18:	01aa0a33          	add	s4,s4,s10
    3a1c:	fff80713          	addi	a4,a6,-1
    3a20:	2baa6c63          	bltu	s4,s10,3cd8 <__divdf3+0x844>
    3a24:	2b9a7a63          	bgeu	s4,s9,3cd8 <__divdf3+0x844>
    3a28:	ffe80813          	addi	a6,a6,-2
    3a2c:	01aa0a33          	add	s4,s4,s10
    3a30:	010d9713          	slli	a4,s11,0x10
    3a34:	01076833          	or	a6,a4,a6
    3a38:	01081713          	slli	a4,a6,0x10
    3a3c:	01075713          	srli	a4,a4,0x10
    3a40:	419a0a33          	sub	s4,s4,s9
    3a44:	01085e13          	srli	t3,a6,0x10
    3a48:	00070513          	mv	a0,a4
    3a4c:	000b0593          	mv	a1,s6
    3a50:	904fd0ef          	jal	ra,b54 <__mulsi3>
    3a54:	00050893          	mv	a7,a0
    3a58:	00078593          	mv	a1,a5
    3a5c:	00070513          	mv	a0,a4
    3a60:	8f4fd0ef          	jal	ra,b54 <__mulsi3>
    3a64:	00050713          	mv	a4,a0
    3a68:	000b0593          	mv	a1,s6
    3a6c:	000e0513          	mv	a0,t3
    3a70:	8e4fd0ef          	jal	ra,b54 <__mulsi3>
    3a74:	00050313          	mv	t1,a0
    3a78:	00078593          	mv	a1,a5
    3a7c:	000e0513          	mv	a0,t3
    3a80:	8d4fd0ef          	jal	ra,b54 <__mulsi3>
    3a84:	0108d793          	srli	a5,a7,0x10
    3a88:	00670733          	add	a4,a4,t1
    3a8c:	00e787b3          	add	a5,a5,a4
    3a90:	0067f663          	bgeu	a5,t1,3a9c <__divdf3+0x608>
    3a94:	00010737          	lui	a4,0x10
    3a98:	00e50533          	add	a0,a0,a4
    3a9c:	000106b7          	lui	a3,0x10
    3aa0:	fff68693          	addi	a3,a3,-1 # ffff <__bss_end+0xaa07>
    3aa4:	0107d713          	srli	a4,a5,0x10
    3aa8:	00d7f7b3          	and	a5,a5,a3
    3aac:	01079793          	slli	a5,a5,0x10
    3ab0:	00d8f8b3          	and	a7,a7,a3
    3ab4:	00a70533          	add	a0,a4,a0
    3ab8:	011787b3          	add	a5,a5,a7
    3abc:	0caa7463          	bgeu	s4,a0,3b84 <__divdf3+0x6f0>
    3ac0:	014d0a33          	add	s4,s10,s4
    3ac4:	fff80713          	addi	a4,a6,-1
    3ac8:	25aa6063          	bltu	s4,s10,3d08 <__divdf3+0x874>
    3acc:	20aa6a63          	bltu	s4,a0,3ce0 <__divdf3+0x84c>
    3ad0:	24aa0c63          	beq	s4,a0,3d28 <__divdf3+0x894>
    3ad4:	00070813          	mv	a6,a4
    3ad8:	00186813          	ori	a6,a6,1
    3adc:	c9dff06f          	j	3778 <__divdf3+0x2e4>
    3ae0:	558010ef          	jal	ra,5038 <__clzsi2>
    3ae4:	01550713          	addi	a4,a0,21
    3ae8:	01c00593          	li	a1,28
    3aec:	02050913          	addi	s2,a0,32
    3af0:	00812603          	lw	a2,8(sp)
    3af4:	00c12683          	lw	a3,12(sp)
    3af8:	bae5d0e3          	bge	a1,a4,3698 <__divdf3+0x204>
    3afc:	ff850413          	addi	s0,a0,-8
    3b00:	00849b33          	sll	s6,s1,s0
    3b04:	00000b93          	li	s7,0
    3b08:	badff06f          	j	36b4 <__divdf3+0x220>
    3b0c:	00060513          	mv	a0,a2
    3b10:	00c12423          	sw	a2,8(sp)
    3b14:	524010ef          	jal	ra,5038 <__clzsi2>
    3b18:	01550493          	addi	s1,a0,21
    3b1c:	01c00793          	li	a5,28
    3b20:	02050693          	addi	a3,a0,32
    3b24:	00812603          	lw	a2,8(sp)
    3b28:	b097dce3          	bge	a5,s1,3640 <__divdf3+0x1ac>
    3b2c:	ff850793          	addi	a5,a0,-8
    3b30:	00f614b3          	sll	s1,a2,a5
    3b34:	00000813          	li	a6,0
    3b38:	b25ff06f          	j	365c <__divdf3+0x1c8>
    3b3c:	e14dfae3          	bgeu	s11,s4,3950 <__divdf3+0x4bc>
    3b40:	018d8db3          	add	s11,s11,s8
    3b44:	018db733          	sltu	a4,s11,s8
    3b48:	01a70733          	add	a4,a4,s10
    3b4c:	00eb8bb3          	add	s7,s7,a4
    3b50:	fff48713          	addi	a4,s1,-1
    3b54:	037d7e63          	bgeu	s10,s7,3b90 <__divdf3+0x6fc>
    3b58:	16abe063          	bltu	s7,a0,3cb8 <__divdf3+0x824>
    3b5c:	15750c63          	beq	a0,s7,3cb4 <__divdf3+0x820>
    3b60:	00070493          	mv	s1,a4
    3b64:	dedff06f          	j	3950 <__divdf3+0x4bc>
    3b68:	c70beae3          	bltu	s7,a6,37dc <__divdf3+0x348>
    3b6c:	01fb1a13          	slli	s4,s6,0x1f
    3b70:	001bd793          	srli	a5,s7,0x1
    3b74:	001b5b13          	srli	s6,s6,0x1
    3b78:	00fa6a33          	or	s4,s4,a5
    3b7c:	01fb9d93          	slli	s11,s7,0x1f
    3b80:	c69ff06f          	j	37e8 <__divdf3+0x354>
    3b84:	f4aa1ae3          	bne	s4,a0,3ad8 <__divdf3+0x644>
    3b88:	be0788e3          	beqz	a5,3778 <__divdf3+0x2e4>
    3b8c:	f35ff06f          	j	3ac0 <__divdf3+0x62c>
    3b90:	fd7d18e3          	bne	s10,s7,3b60 <__divdf3+0x6cc>
    3b94:	fd8df2e3          	bgeu	s11,s8,3b58 <__divdf3+0x6c4>
    3b98:	00070493          	mv	s1,a4
    3b9c:	db5ff06f          	j	3950 <__divdf3+0x4bc>
    3ba0:	00f87793          	andi	a5,a6,15
    3ba4:	00400713          	li	a4,4
    3ba8:	bce78ee3          	beq	a5,a4,3784 <__divdf3+0x2f0>
    3bac:	ffc83793          	sltiu	a5,a6,-4
    3bb0:	00480813          	addi	a6,a6,4
    3bb4:	0017c793          	xori	a5,a5,1
    3bb8:	00385813          	srli	a6,a6,0x3
    3bbc:	00f484b3          	add	s1,s1,a5
    3bc0:	bc9ff06f          	j	3788 <__divdf3+0x2f4>
    3bc4:	00000813          	li	a6,0
    3bc8:	00100793          	li	a5,1
    3bcc:	fe8048e3          	bgtz	s0,3bbc <__divdf3+0x728>
    3bd0:	fff00813          	li	a6,-1
    3bd4:	b60410e3          	bnez	s0,3734 <__divdf3+0x2a0>
    3bd8:	c0100913          	li	s2,-1023
    3bdc:	00100793          	li	a5,1
    3be0:	41e90713          	addi	a4,s2,1054
    3be4:	00e496b3          	sll	a3,s1,a4
    3be8:	00f85633          	srl	a2,a6,a5
    3bec:	00e81833          	sll	a6,a6,a4
    3bf0:	01003833          	snez	a6,a6
    3bf4:	00c6e733          	or	a4,a3,a2
    3bf8:	01076733          	or	a4,a4,a6
    3bfc:	00777693          	andi	a3,a4,7
    3c00:	00f4d4b3          	srl	s1,s1,a5
    3c04:	02068063          	beqz	a3,3c24 <__divdf3+0x790>
    3c08:	00f77793          	andi	a5,a4,15
    3c0c:	00400693          	li	a3,4
    3c10:	00d78a63          	beq	a5,a3,3c24 <__divdf3+0x790>
    3c14:	00470793          	addi	a5,a4,4 # 10004 <__bss_end+0xaa0c>
    3c18:	00e7b733          	sltu	a4,a5,a4
    3c1c:	00e484b3          	add	s1,s1,a4
    3c20:	00078713          	mv	a4,a5
    3c24:	00849793          	slli	a5,s1,0x8
    3c28:	0607d863          	bgez	a5,3c98 <__divdf3+0x804>
    3c2c:	00100613          	li	a2,1
    3c30:	00000793          	li	a5,0
    3c34:	00000713          	li	a4,0
    3c38:	975ff06f          	j	35ac <__divdf3+0x118>
    3c3c:	00078b13          	mv	s6,a5
    3c40:	c75ff06f          	j	38b4 <__divdf3+0x420>
    3c44:	00078493          	mv	s1,a5
    3c48:	c11ff06f          	j	3858 <__divdf3+0x3c4>
    3c4c:	01f00713          	li	a4,31
    3c50:	f8f758e3          	bge	a4,a5,3be0 <__divdf3+0x74c>
    3c54:	fe100613          	li	a2,-31
    3c58:	40860633          	sub	a2,a2,s0
    3c5c:	02000713          	li	a4,32
    3c60:	00c4d633          	srl	a2,s1,a2
    3c64:	00e78863          	beq	a5,a4,3c74 <__divdf3+0x7e0>
    3c68:	43e90793          	addi	a5,s2,1086
    3c6c:	00f497b3          	sll	a5,s1,a5
    3c70:	00f86833          	or	a6,a6,a5
    3c74:	01003733          	snez	a4,a6
    3c78:	00c76733          	or	a4,a4,a2
    3c7c:	00777493          	andi	s1,a4,7
    3c80:	00000793          	li	a5,0
    3c84:	02048063          	beqz	s1,3ca4 <__divdf3+0x810>
    3c88:	00f77793          	andi	a5,a4,15
    3c8c:	00400693          	li	a3,4
    3c90:	00000493          	li	s1,0
    3c94:	f8d790e3          	bne	a5,a3,3c14 <__divdf3+0x780>
    3c98:	00949793          	slli	a5,s1,0x9
    3c9c:	00c7d793          	srli	a5,a5,0xc
    3ca0:	01d49493          	slli	s1,s1,0x1d
    3ca4:	00375713          	srli	a4,a4,0x3
    3ca8:	00976733          	or	a4,a4,s1
    3cac:	00000613          	li	a2,0
    3cb0:	8fdff06f          	j	35ac <__divdf3+0x118>
    3cb4:	eb4df6e3          	bgeu	s11,s4,3b60 <__divdf3+0x6cc>
    3cb8:	018d8db3          	add	s11,s11,s8
    3cbc:	018db733          	sltu	a4,s11,s8
    3cc0:	01a70733          	add	a4,a4,s10
    3cc4:	ffe48493          	addi	s1,s1,-2
    3cc8:	00eb8bb3          	add	s7,s7,a4
    3ccc:	c85ff06f          	j	3950 <__divdf3+0x4bc>
    3cd0:	00068d93          	mv	s11,a3
    3cd4:	cf5ff06f          	j	39c8 <__divdf3+0x534>
    3cd8:	00070813          	mv	a6,a4
    3cdc:	d55ff06f          	j	3a30 <__divdf3+0x59c>
    3ce0:	001c1713          	slli	a4,s8,0x1
    3ce4:	01873c33          	sltu	s8,a4,s8
    3ce8:	01ac0d33          	add	s10,s8,s10
    3cec:	01aa0a33          	add	s4,s4,s10
    3cf0:	ffe80813          	addi	a6,a6,-2
    3cf4:	00070c13          	mv	s8,a4
    3cf8:	deaa10e3          	bne	s4,a0,3ad8 <__divdf3+0x644>
    3cfc:	a7878ee3          	beq	a5,s8,3778 <__divdf3+0x2e4>
    3d00:	00186813          	ori	a6,a6,1
    3d04:	a75ff06f          	j	3778 <__divdf3+0x2e4>
    3d08:	00070813          	mv	a6,a4
    3d0c:	feaa08e3          	beq	s4,a0,3cfc <__divdf3+0x868>
    3d10:	dc9ff06f          	j	3ad8 <__divdf3+0x644>
    3d14:	00068993          	mv	s3,a3
    3d18:	7ff00613          	li	a2,2047
    3d1c:	00000793          	li	a5,0
    3d20:	00000713          	li	a4,0
    3d24:	889ff06f          	j	35ac <__divdf3+0x118>
    3d28:	fafc6ce3          	bltu	s8,a5,3ce0 <__divdf3+0x84c>
    3d2c:	00070813          	mv	a6,a4
    3d30:	fd8798e3          	bne	a5,s8,3d00 <__divdf3+0x86c>
    3d34:	a45ff06f          	j	3778 <__divdf3+0x2e4>

Disassembly of section .text.__eqdf2:

00003d38 <__eqdf2>:
    3d38:	0145d713          	srli	a4,a1,0x14
    3d3c:	001007b7          	lui	a5,0x100
    3d40:	fff78793          	addi	a5,a5,-1 # fffff <__bss_end+0xfaa07>
    3d44:	0146d813          	srli	a6,a3,0x14
    3d48:	7ff77713          	andi	a4,a4,2047
    3d4c:	7ff00893          	li	a7,2047
    3d50:	00b7fe33          	and	t3,a5,a1
    3d54:	00050e93          	mv	t4,a0
    3d58:	00d7f7b3          	and	a5,a5,a3
    3d5c:	01f5d593          	srli	a1,a1,0x1f
    3d60:	00060f13          	mv	t5,a2
    3d64:	7ff87813          	andi	a6,a6,2047
    3d68:	01f6d693          	srli	a3,a3,0x1f
    3d6c:	01170e63          	beq	a4,a7,3d88 <__eqdf2+0x50>
    3d70:	00100313          	li	t1,1
    3d74:	01180663          	beq	a6,a7,3d80 <__eqdf2+0x48>
    3d78:	01071463          	bne	a4,a6,3d80 <__eqdf2+0x48>
    3d7c:	02fe0263          	beq	t3,a5,3da0 <__eqdf2+0x68>
    3d80:	00030513          	mv	a0,t1
    3d84:	00008067          	ret
    3d88:	00ae68b3          	or	a7,t3,a0
    3d8c:	00100313          	li	t1,1
    3d90:	fe0898e3          	bnez	a7,3d80 <__eqdf2+0x48>
    3d94:	fee816e3          	bne	a6,a4,3d80 <__eqdf2+0x48>
    3d98:	00c7e7b3          	or	a5,a5,a2
    3d9c:	fe0792e3          	bnez	a5,3d80 <__eqdf2+0x48>
    3da0:	00100313          	li	t1,1
    3da4:	fdee9ee3          	bne	t4,t5,3d80 <__eqdf2+0x48>
    3da8:	00000313          	li	t1,0
    3dac:	fcd58ae3          	beq	a1,a3,3d80 <__eqdf2+0x48>
    3db0:	00100313          	li	t1,1
    3db4:	fc0716e3          	bnez	a4,3d80 <__eqdf2+0x48>
    3db8:	00ae6533          	or	a0,t3,a0
    3dbc:	00a03333          	snez	t1,a0
    3dc0:	fc1ff06f          	j	3d80 <__eqdf2+0x48>

Disassembly of section .text.__gedf2:

00003dc4 <__gedf2>:
    3dc4:	0145d713          	srli	a4,a1,0x14
    3dc8:	001007b7          	lui	a5,0x100
    3dcc:	fff78793          	addi	a5,a5,-1 # fffff <__bss_end+0xfaa07>
    3dd0:	0146d813          	srli	a6,a3,0x14
    3dd4:	7ff77713          	andi	a4,a4,2047
    3dd8:	7ff00893          	li	a7,2047
    3ddc:	00b7f333          	and	t1,a5,a1
    3de0:	00050e13          	mv	t3,a0
    3de4:	00d7f7b3          	and	a5,a5,a3
    3de8:	01f5d593          	srli	a1,a1,0x1f
    3dec:	00060e93          	mv	t4,a2
    3df0:	7ff87813          	andi	a6,a6,2047
    3df4:	01f6d693          	srli	a3,a3,0x1f
    3df8:	05170063          	beq	a4,a7,3e38 <__gedf2+0x74>
    3dfc:	03180663          	beq	a6,a7,3e28 <__gedf2+0x64>
    3e00:	04071263          	bnez	a4,3e44 <__gedf2+0x80>
    3e04:	00a368b3          	or	a7,t1,a0
    3e08:	00081663          	bnez	a6,3e14 <__gedf2+0x50>
    3e0c:	00c7e633          	or	a2,a5,a2
    3e10:	06060863          	beqz	a2,3e80 <__gedf2+0xbc>
    3e14:	06088063          	beqz	a7,3e74 <__gedf2+0xb0>
    3e18:	04d58063          	beq	a1,a3,3e58 <__gedf2+0x94>
    3e1c:	00100513          	li	a0,1
    3e20:	04059663          	bnez	a1,3e6c <__gedf2+0xa8>
    3e24:	00008067          	ret
    3e28:	00c7e8b3          	or	a7,a5,a2
    3e2c:	fc088ae3          	beqz	a7,3e00 <__gedf2+0x3c>
    3e30:	ffe00513          	li	a0,-2
    3e34:	00008067          	ret
    3e38:	00a36533          	or	a0,t1,a0
    3e3c:	fe051ae3          	bnez	a0,3e30 <__gedf2+0x6c>
    3e40:	04e80663          	beq	a6,a4,3e8c <__gedf2+0xc8>
    3e44:	00081663          	bnez	a6,3e50 <__gedf2+0x8c>
    3e48:	00c7e633          	or	a2,a5,a2
    3e4c:	fc0608e3          	beqz	a2,3e1c <__gedf2+0x58>
    3e50:	fcd596e3          	bne	a1,a3,3e1c <__gedf2+0x58>
    3e54:	fce844e3          	blt	a6,a4,3e1c <__gedf2+0x58>
    3e58:	01074863          	blt	a4,a6,3e68 <__gedf2+0xa4>
    3e5c:	fc67e0e3          	bltu	a5,t1,3e1c <__gedf2+0x58>
    3e60:	04f30063          	beq	t1,a5,3ea0 <__gedf2+0xdc>
    3e64:	02f37a63          	bgeu	t1,a5,3e98 <__gedf2+0xd4>
    3e68:	00059863          	bnez	a1,3e78 <__gedf2+0xb4>
    3e6c:	fff00513          	li	a0,-1
    3e70:	00008067          	ret
    3e74:	fe068ce3          	beqz	a3,3e6c <__gedf2+0xa8>
    3e78:	00100513          	li	a0,1
    3e7c:	00008067          	ret
    3e80:	00000513          	li	a0,0
    3e84:	f8089ce3          	bnez	a7,3e1c <__gedf2+0x58>
    3e88:	00008067          	ret
    3e8c:	00c7e633          	or	a2,a5,a2
    3e90:	fc0600e3          	beqz	a2,3e50 <__gedf2+0x8c>
    3e94:	f9dff06f          	j	3e30 <__gedf2+0x6c>
    3e98:	00000513          	li	a0,0
    3e9c:	00008067          	ret
    3ea0:	f7ceeee3          	bltu	t4,t3,3e1c <__gedf2+0x58>
    3ea4:	00000513          	li	a0,0
    3ea8:	f7de7ee3          	bgeu	t3,t4,3e24 <__gedf2+0x60>
    3eac:	fc0596e3          	bnez	a1,3e78 <__gedf2+0xb4>
    3eb0:	fbdff06f          	j	3e6c <__gedf2+0xa8>

Disassembly of section .text.__muldf3:

00003eb4 <__muldf3>:
    3eb4:	fc010113          	addi	sp,sp,-64
    3eb8:	03212823          	sw	s2,48(sp)
    3ebc:	0145d913          	srli	s2,a1,0x14
    3ec0:	03312623          	sw	s3,44(sp)
    3ec4:	03412423          	sw	s4,40(sp)
    3ec8:	03512223          	sw	s5,36(sp)
    3ecc:	00c59993          	slli	s3,a1,0xc
    3ed0:	02112e23          	sw	ra,60(sp)
    3ed4:	02812c23          	sw	s0,56(sp)
    3ed8:	02912a23          	sw	s1,52(sp)
    3edc:	03612023          	sw	s6,32(sp)
    3ee0:	01712e23          	sw	s7,28(sp)
    3ee4:	7ff97913          	andi	s2,s2,2047
    3ee8:	00050a13          	mv	s4,a0
    3eec:	00c9d993          	srli	s3,s3,0xc
    3ef0:	01f5da93          	srli	s5,a1,0x1f
    3ef4:	14090e63          	beqz	s2,4050 <__muldf3+0x19c>
    3ef8:	7ff00793          	li	a5,2047
    3efc:	20f90c63          	beq	s2,a5,4114 <__muldf3+0x260>
    3f00:	01d55413          	srli	s0,a0,0x1d
    3f04:	00399993          	slli	s3,s3,0x3
    3f08:	013469b3          	or	s3,s0,s3
    3f0c:	00800437          	lui	s0,0x800
    3f10:	0089e433          	or	s0,s3,s0
    3f14:	00351493          	slli	s1,a0,0x3
    3f18:	c0190913          	addi	s2,s2,-1023
    3f1c:	00000993          	li	s3,0
    3f20:	00000b93          	li	s7,0
    3f24:	0146d793          	srli	a5,a3,0x14
    3f28:	00c69a13          	slli	s4,a3,0xc
    3f2c:	7ff7f793          	andi	a5,a5,2047
    3f30:	00060593          	mv	a1,a2
    3f34:	00ca5a13          	srli	s4,s4,0xc
    3f38:	01f6db13          	srli	s6,a3,0x1f
    3f3c:	18078463          	beqz	a5,40c4 <__muldf3+0x210>
    3f40:	7ff00713          	li	a4,2047
    3f44:	04e78c63          	beq	a5,a4,3f9c <__muldf3+0xe8>
    3f48:	01d65713          	srli	a4,a2,0x1d
    3f4c:	003a1a13          	slli	s4,s4,0x3
    3f50:	01476a33          	or	s4,a4,s4
    3f54:	c0178793          	addi	a5,a5,-1023
    3f58:	00800737          	lui	a4,0x800
    3f5c:	00ea6733          	or	a4,s4,a4
    3f60:	00361593          	slli	a1,a2,0x3
    3f64:	00f90933          	add	s2,s2,a5
    3f68:	00000513          	li	a0,0
    3f6c:	016ac833          	xor	a6,s5,s6
    3f70:	00f00793          	li	a5,15
    3f74:	00080613          	mv	a2,a6
    3f78:	00190893          	addi	a7,s2,1
    3f7c:	2337e063          	bltu	a5,s3,419c <__muldf3+0x2e8>
    3f80:	00001697          	auipc	a3,0x1
    3f84:	4a868693          	addi	a3,a3,1192 # 5428 <init_jk+0xb0>
    3f88:	00299993          	slli	s3,s3,0x2
    3f8c:	00d989b3          	add	s3,s3,a3
    3f90:	0009a783          	lw	a5,0(s3)
    3f94:	00d787b3          	add	a5,a5,a3
    3f98:	00078067          	jr	a5
    3f9c:	00ca6733          	or	a4,s4,a2
    3fa0:	7ff90913          	addi	s2,s2,2047
    3fa4:	1c071463          	bnez	a4,416c <__muldf3+0x2b8>
    3fa8:	0029e993          	ori	s3,s3,2
    3fac:	00000593          	li	a1,0
    3fb0:	00200513          	li	a0,2
    3fb4:	fb9ff06f          	j	3f6c <__muldf3+0xb8>
    3fb8:	00000813          	li	a6,0
    3fbc:	7ff00793          	li	a5,2047
    3fc0:	00080437          	lui	s0,0x80
    3fc4:	00000493          	li	s1,0
    3fc8:	00c41413          	slli	s0,s0,0xc
    3fcc:	01479793          	slli	a5,a5,0x14
    3fd0:	00c45413          	srli	s0,s0,0xc
    3fd4:	01f81813          	slli	a6,a6,0x1f
    3fd8:	00f46433          	or	s0,s0,a5
    3fdc:	01046433          	or	s0,s0,a6
    3fe0:	00040593          	mv	a1,s0
    3fe4:	03c12083          	lw	ra,60(sp)
    3fe8:	03812403          	lw	s0,56(sp)
    3fec:	00048513          	mv	a0,s1
    3ff0:	03012903          	lw	s2,48(sp)
    3ff4:	03412483          	lw	s1,52(sp)
    3ff8:	02c12983          	lw	s3,44(sp)
    3ffc:	02812a03          	lw	s4,40(sp)
    4000:	02412a83          	lw	s5,36(sp)
    4004:	02012b03          	lw	s6,32(sp)
    4008:	01c12b83          	lw	s7,28(sp)
    400c:	04010113          	addi	sp,sp,64
    4010:	00008067          	ret
    4014:	000b0613          	mv	a2,s6
    4018:	00070413          	mv	s0,a4
    401c:	00058493          	mv	s1,a1
    4020:	00050b93          	mv	s7,a0
    4024:	00200793          	li	a5,2
    4028:	16fb8063          	beq	s7,a5,4188 <__muldf3+0x2d4>
    402c:	00300793          	li	a5,3
    4030:	f8fb84e3          	beq	s7,a5,3fb8 <__muldf3+0x104>
    4034:	00100793          	li	a5,1
    4038:	00060813          	mv	a6,a2
    403c:	58fb9263          	bne	s7,a5,45c0 <__muldf3+0x70c>
    4040:	00000793          	li	a5,0
    4044:	00000413          	li	s0,0
    4048:	00000493          	li	s1,0
    404c:	f7dff06f          	j	3fc8 <__muldf3+0x114>
    4050:	00a9e433          	or	s0,s3,a0
    4054:	10040263          	beqz	s0,4158 <__muldf3+0x2a4>
    4058:	00d12623          	sw	a3,12(sp)
    405c:	00c12423          	sw	a2,8(sp)
    4060:	44098663          	beqz	s3,44ac <__muldf3+0x5f8>
    4064:	00098513          	mv	a0,s3
    4068:	7d1000ef          	jal	ra,5038 <__clzsi2>
    406c:	00812603          	lw	a2,8(sp)
    4070:	00c12683          	lw	a3,12(sp)
    4074:	00050793          	mv	a5,a0
    4078:	ff550713          	addi	a4,a0,-11
    407c:	01d00413          	li	s0,29
    4080:	ff878493          	addi	s1,a5,-8
    4084:	40e40433          	sub	s0,s0,a4
    4088:	009999b3          	sll	s3,s3,s1
    408c:	008a5433          	srl	s0,s4,s0
    4090:	01346433          	or	s0,s0,s3
    4094:	009a14b3          	sll	s1,s4,s1
    4098:	c0d00913          	li	s2,-1011
    409c:	40f90933          	sub	s2,s2,a5
    40a0:	0146d793          	srli	a5,a3,0x14
    40a4:	00c69a13          	slli	s4,a3,0xc
    40a8:	7ff7f793          	andi	a5,a5,2047
    40ac:	00000993          	li	s3,0
    40b0:	00000b93          	li	s7,0
    40b4:	00060593          	mv	a1,a2
    40b8:	00ca5a13          	srli	s4,s4,0xc
    40bc:	01f6db13          	srli	s6,a3,0x1f
    40c0:	e80790e3          	bnez	a5,3f40 <__muldf3+0x8c>
    40c4:	00ca6733          	or	a4,s4,a2
    40c8:	06070463          	beqz	a4,4130 <__muldf3+0x27c>
    40cc:	3a0a0863          	beqz	s4,447c <__muldf3+0x5c8>
    40d0:	000a0513          	mv	a0,s4
    40d4:	00c12423          	sw	a2,8(sp)
    40d8:	761000ef          	jal	ra,5038 <__clzsi2>
    40dc:	00812603          	lw	a2,8(sp)
    40e0:	00050793          	mv	a5,a0
    40e4:	ff550693          	addi	a3,a0,-11
    40e8:	01d00713          	li	a4,29
    40ec:	ff878593          	addi	a1,a5,-8
    40f0:	40d70733          	sub	a4,a4,a3
    40f4:	00ba1a33          	sll	s4,s4,a1
    40f8:	00e65733          	srl	a4,a2,a4
    40fc:	01476733          	or	a4,a4,s4
    4100:	00b615b3          	sll	a1,a2,a1
    4104:	40f90933          	sub	s2,s2,a5
    4108:	c0d90913          	addi	s2,s2,-1011
    410c:	00000513          	li	a0,0
    4110:	e5dff06f          	j	3f6c <__muldf3+0xb8>
    4114:	00a9e433          	or	s0,s3,a0
    4118:	02041463          	bnez	s0,4140 <__muldf3+0x28c>
    411c:	00800993          	li	s3,8
    4120:	00000493          	li	s1,0
    4124:	7ff00913          	li	s2,2047
    4128:	00200b93          	li	s7,2
    412c:	df9ff06f          	j	3f24 <__muldf3+0x70>
    4130:	0019e993          	ori	s3,s3,1
    4134:	00000593          	li	a1,0
    4138:	00100513          	li	a0,1
    413c:	e31ff06f          	j	3f6c <__muldf3+0xb8>
    4140:	00098413          	mv	s0,s3
    4144:	00050493          	mv	s1,a0
    4148:	00c00993          	li	s3,12
    414c:	7ff00913          	li	s2,2047
    4150:	00300b93          	li	s7,3
    4154:	dd1ff06f          	j	3f24 <__muldf3+0x70>
    4158:	00400993          	li	s3,4
    415c:	00000493          	li	s1,0
    4160:	00000913          	li	s2,0
    4164:	00100b93          	li	s7,1
    4168:	dbdff06f          	j	3f24 <__muldf3+0x70>
    416c:	0039e993          	ori	s3,s3,3
    4170:	000a0713          	mv	a4,s4
    4174:	00300513          	li	a0,3
    4178:	df5ff06f          	j	3f6c <__muldf3+0xb8>
    417c:	00200793          	li	a5,2
    4180:	000a8613          	mv	a2,s5
    4184:	eafb94e3          	bne	s7,a5,402c <__muldf3+0x178>
    4188:	00060813          	mv	a6,a2
    418c:	7ff00793          	li	a5,2047
    4190:	00000413          	li	s0,0
    4194:	00000493          	li	s1,0
    4198:	e31ff06f          	j	3fc8 <__muldf3+0x114>
    419c:	000109b7          	lui	s3,0x10
    41a0:	fff98e13          	addi	t3,s3,-1 # ffff <__bss_end+0xaa07>
    41a4:	01c4ff33          	and	t5,s1,t3
    41a8:	01c5fe33          	and	t3,a1,t3
    41ac:	0105df93          	srli	t6,a1,0x10
    41b0:	0104d313          	srli	t1,s1,0x10
    41b4:	000f0513          	mv	a0,t5
    41b8:	000e0593          	mv	a1,t3
    41bc:	999fc0ef          	jal	ra,b54 <__mulsi3>
    41c0:	00050e93          	mv	t4,a0
    41c4:	000f8593          	mv	a1,t6
    41c8:	000f0513          	mv	a0,t5
    41cc:	989fc0ef          	jal	ra,b54 <__mulsi3>
    41d0:	00050793          	mv	a5,a0
    41d4:	000e0593          	mv	a1,t3
    41d8:	00030513          	mv	a0,t1
    41dc:	979fc0ef          	jal	ra,b54 <__mulsi3>
    41e0:	00050393          	mv	t2,a0
    41e4:	000f8593          	mv	a1,t6
    41e8:	00030513          	mv	a0,t1
    41ec:	969fc0ef          	jal	ra,b54 <__mulsi3>
    41f0:	010ed693          	srli	a3,t4,0x10
    41f4:	007787b3          	add	a5,a5,t2
    41f8:	00f686b3          	add	a3,a3,a5
    41fc:	00050293          	mv	t0,a0
    4200:	0076f463          	bgeu	a3,t2,4208 <__muldf3+0x354>
    4204:	013502b3          	add	t0,a0,s3
    4208:	000109b7          	lui	s3,0x10
    420c:	fff98a13          	addi	s4,s3,-1 # ffff <__bss_end+0xaa07>
    4210:	0146f4b3          	and	s1,a3,s4
    4214:	01049793          	slli	a5,s1,0x10
    4218:	014ef4b3          	and	s1,t4,s4
    421c:	01477a33          	and	s4,a4,s4
    4220:	0106de93          	srli	t4,a3,0x10
    4224:	009784b3          	add	s1,a5,s1
    4228:	01075713          	srli	a4,a4,0x10
    422c:	000f0513          	mv	a0,t5
    4230:	000a0593          	mv	a1,s4
    4234:	921fc0ef          	jal	ra,b54 <__mulsi3>
    4238:	00050393          	mv	t2,a0
    423c:	00070593          	mv	a1,a4
    4240:	000f0513          	mv	a0,t5
    4244:	911fc0ef          	jal	ra,b54 <__mulsi3>
    4248:	00050f13          	mv	t5,a0
    424c:	000a0593          	mv	a1,s4
    4250:	00030513          	mv	a0,t1
    4254:	901fc0ef          	jal	ra,b54 <__mulsi3>
    4258:	00050a93          	mv	s5,a0
    425c:	00070593          	mv	a1,a4
    4260:	00030513          	mv	a0,t1
    4264:	8f1fc0ef          	jal	ra,b54 <__mulsi3>
    4268:	0103d793          	srli	a5,t2,0x10
    426c:	015f0f33          	add	t5,t5,s5
    4270:	01e787b3          	add	a5,a5,t5
    4274:	0157f463          	bgeu	a5,s5,427c <__muldf3+0x3c8>
    4278:	01350533          	add	a0,a0,s3
    427c:	00010ab7          	lui	s5,0x10
    4280:	fffa8693          	addi	a3,s5,-1 # ffff <__bss_end+0xaa07>
    4284:	00d7f333          	and	t1,a5,a3
    4288:	01031313          	slli	t1,t1,0x10
    428c:	00d3f3b3          	and	t2,t2,a3
    4290:	007309b3          	add	s3,t1,t2
    4294:	0107d793          	srli	a5,a5,0x10
    4298:	00d47333          	and	t1,s0,a3
    429c:	00a78f33          	add	t5,a5,a0
    42a0:	013e8eb3          	add	t4,t4,s3
    42a4:	01045413          	srli	s0,s0,0x10
    42a8:	00030513          	mv	a0,t1
    42ac:	000e0593          	mv	a1,t3
    42b0:	8a5fc0ef          	jal	ra,b54 <__mulsi3>
    42b4:	00050793          	mv	a5,a0
    42b8:	000f8593          	mv	a1,t6
    42bc:	00030513          	mv	a0,t1
    42c0:	895fc0ef          	jal	ra,b54 <__mulsi3>
    42c4:	00050393          	mv	t2,a0
    42c8:	000e0593          	mv	a1,t3
    42cc:	00040513          	mv	a0,s0
    42d0:	885fc0ef          	jal	ra,b54 <__mulsi3>
    42d4:	00050e13          	mv	t3,a0
    42d8:	000f8593          	mv	a1,t6
    42dc:	00040513          	mv	a0,s0
    42e0:	875fc0ef          	jal	ra,b54 <__mulsi3>
    42e4:	0107d613          	srli	a2,a5,0x10
    42e8:	01c383b3          	add	t2,t2,t3
    42ec:	00760633          	add	a2,a2,t2
    42f0:	01c67463          	bgeu	a2,t3,42f8 <__muldf3+0x444>
    42f4:	01550533          	add	a0,a0,s5
    42f8:	00010ab7          	lui	s5,0x10
    42fc:	fffa8393          	addi	t2,s5,-1 # ffff <__bss_end+0xaa07>
    4300:	007676b3          	and	a3,a2,t2
    4304:	01069693          	slli	a3,a3,0x10
    4308:	01065613          	srli	a2,a2,0x10
    430c:	0077f7b3          	and	a5,a5,t2
    4310:	00a60fb3          	add	t6,a2,a0
    4314:	00f683b3          	add	t2,a3,a5
    4318:	00030513          	mv	a0,t1
    431c:	000a0593          	mv	a1,s4
    4320:	835fc0ef          	jal	ra,b54 <__mulsi3>
    4324:	00050e13          	mv	t3,a0
    4328:	00070593          	mv	a1,a4
    432c:	00030513          	mv	a0,t1
    4330:	825fc0ef          	jal	ra,b54 <__mulsi3>
    4334:	00050793          	mv	a5,a0
    4338:	000a0593          	mv	a1,s4
    433c:	00040513          	mv	a0,s0
    4340:	815fc0ef          	jal	ra,b54 <__mulsi3>
    4344:	00050313          	mv	t1,a0
    4348:	00070593          	mv	a1,a4
    434c:	00040513          	mv	a0,s0
    4350:	805fc0ef          	jal	ra,b54 <__mulsi3>
    4354:	010e5593          	srli	a1,t3,0x10
    4358:	006787b3          	add	a5,a5,t1
    435c:	00f585b3          	add	a1,a1,a5
    4360:	0065f463          	bgeu	a1,t1,4368 <__muldf3+0x4b4>
    4364:	01550533          	add	a0,a0,s5
    4368:	00010737          	lui	a4,0x10
    436c:	fff70713          	addi	a4,a4,-1 # ffff <__bss_end+0xaa07>
    4370:	00e5f7b3          	and	a5,a1,a4
    4374:	00ee7e33          	and	t3,t3,a4
    4378:	01079793          	slli	a5,a5,0x10
    437c:	005e8733          	add	a4,t4,t0
    4380:	01c787b3          	add	a5,a5,t3
    4384:	01373333          	sltu	t1,a4,s3
    4388:	01e787b3          	add	a5,a5,t5
    438c:	00770733          	add	a4,a4,t2
    4390:	00678e33          	add	t3,a5,t1
    4394:	007736b3          	sltu	a3,a4,t2
    4398:	01fe0633          	add	a2,t3,t6
    439c:	00d60eb3          	add	t4,a2,a3
    43a0:	01e7b7b3          	sltu	a5,a5,t5
    43a4:	006e3333          	sltu	t1,t3,t1
    43a8:	0067e433          	or	s0,a5,t1
    43ac:	0105d593          	srli	a1,a1,0x10
    43b0:	01f63633          	sltu	a2,a2,t6
    43b4:	00deb6b3          	sltu	a3,t4,a3
    43b8:	00b40433          	add	s0,s0,a1
    43bc:	00d666b3          	or	a3,a2,a3
    43c0:	00971793          	slli	a5,a4,0x9
    43c4:	00d40433          	add	s0,s0,a3
    43c8:	00a40433          	add	s0,s0,a0
    43cc:	0097e4b3          	or	s1,a5,s1
    43d0:	00941413          	slli	s0,s0,0x9
    43d4:	017ed513          	srli	a0,t4,0x17
    43d8:	009034b3          	snez	s1,s1
    43dc:	01775713          	srli	a4,a4,0x17
    43e0:	009e9793          	slli	a5,t4,0x9
    43e4:	00e4e4b3          	or	s1,s1,a4
    43e8:	00a46433          	or	s0,s0,a0
    43ec:	00f4e4b3          	or	s1,s1,a5
    43f0:	00741793          	slli	a5,s0,0x7
    43f4:	0207d063          	bgez	a5,4414 <__muldf3+0x560>
    43f8:	0014d793          	srli	a5,s1,0x1
    43fc:	0014f493          	andi	s1,s1,1
    4400:	01f41713          	slli	a4,s0,0x1f
    4404:	0097e4b3          	or	s1,a5,s1
    4408:	00e4e4b3          	or	s1,s1,a4
    440c:	00145413          	srli	s0,s0,0x1
    4410:	00088913          	mv	s2,a7
    4414:	3ff90793          	addi	a5,s2,1023
    4418:	0cf05063          	blez	a5,44d8 <__muldf3+0x624>
    441c:	0074f713          	andi	a4,s1,7
    4420:	02070063          	beqz	a4,4440 <__muldf3+0x58c>
    4424:	00f4f713          	andi	a4,s1,15
    4428:	00400693          	li	a3,4
    442c:	00d70a63          	beq	a4,a3,4440 <__muldf3+0x58c>
    4430:	00448713          	addi	a4,s1,4
    4434:	009734b3          	sltu	s1,a4,s1
    4438:	00940433          	add	s0,s0,s1
    443c:	00070493          	mv	s1,a4
    4440:	00741713          	slli	a4,s0,0x7
    4444:	00075a63          	bgez	a4,4458 <__muldf3+0x5a4>
    4448:	ff0007b7          	lui	a5,0xff000
    444c:	fff78793          	addi	a5,a5,-1 # feffffff <__bss_end+0xfeffaa07>
    4450:	00f47433          	and	s0,s0,a5
    4454:	40090793          	addi	a5,s2,1024
    4458:	7fe00713          	li	a4,2046
    445c:	14f74a63          	blt	a4,a5,45b0 <__muldf3+0x6fc>
    4460:	0034d713          	srli	a4,s1,0x3
    4464:	01d41493          	slli	s1,s0,0x1d
    4468:	00941413          	slli	s0,s0,0x9
    446c:	00e4e4b3          	or	s1,s1,a4
    4470:	00c45413          	srli	s0,s0,0xc
    4474:	7ff7f793          	andi	a5,a5,2047
    4478:	b51ff06f          	j	3fc8 <__muldf3+0x114>
    447c:	00060513          	mv	a0,a2
    4480:	00c12423          	sw	a2,8(sp)
    4484:	3b5000ef          	jal	ra,5038 <__clzsi2>
    4488:	01550693          	addi	a3,a0,21
    448c:	01c00713          	li	a4,28
    4490:	02050793          	addi	a5,a0,32
    4494:	00812603          	lw	a2,8(sp)
    4498:	c4d758e3          	bge	a4,a3,40e8 <__muldf3+0x234>
    449c:	ff850513          	addi	a0,a0,-8
    44a0:	00a61733          	sll	a4,a2,a0
    44a4:	00000593          	li	a1,0
    44a8:	c5dff06f          	j	4104 <__muldf3+0x250>
    44ac:	38d000ef          	jal	ra,5038 <__clzsi2>
    44b0:	01550713          	addi	a4,a0,21
    44b4:	01c00593          	li	a1,28
    44b8:	02050793          	addi	a5,a0,32
    44bc:	00812603          	lw	a2,8(sp)
    44c0:	00c12683          	lw	a3,12(sp)
    44c4:	bae5dce3          	bge	a1,a4,407c <__muldf3+0x1c8>
    44c8:	ff850513          	addi	a0,a0,-8
    44cc:	00aa1433          	sll	s0,s4,a0
    44d0:	00000493          	li	s1,0
    44d4:	bc5ff06f          	j	4098 <__muldf3+0x1e4>
    44d8:	00100713          	li	a4,1
    44dc:	40f70733          	sub	a4,a4,a5
    44e0:	06079063          	bnez	a5,4540 <__muldf3+0x68c>
    44e4:	41e90913          	addi	s2,s2,1054
    44e8:	012497b3          	sll	a5,s1,s2
    44ec:	00e4d4b3          	srl	s1,s1,a4
    44f0:	01241933          	sll	s2,s0,s2
    44f4:	00f037b3          	snez	a5,a5
    44f8:	009964b3          	or	s1,s2,s1
    44fc:	00f4e4b3          	or	s1,s1,a5
    4500:	0074f793          	andi	a5,s1,7
    4504:	00e45733          	srl	a4,s0,a4
    4508:	02078063          	beqz	a5,4528 <__muldf3+0x674>
    450c:	00f4f793          	andi	a5,s1,15
    4510:	00400693          	li	a3,4
    4514:	00d78a63          	beq	a5,a3,4528 <__muldf3+0x674>
    4518:	00448793          	addi	a5,s1,4
    451c:	0097b4b3          	sltu	s1,a5,s1
    4520:	00970733          	add	a4,a4,s1
    4524:	00078493          	mv	s1,a5
    4528:	00871793          	slli	a5,a4,0x8
    452c:	0607d463          	bgez	a5,4594 <__muldf3+0x6e0>
    4530:	00100793          	li	a5,1
    4534:	00000413          	li	s0,0
    4538:	00000493          	li	s1,0
    453c:	a8dff06f          	j	3fc8 <__muldf3+0x114>
    4540:	03800693          	li	a3,56
    4544:	aee6cee3          	blt	a3,a4,4040 <__muldf3+0x18c>
    4548:	01f00693          	li	a3,31
    454c:	f8e6dce3          	bge	a3,a4,44e4 <__muldf3+0x630>
    4550:	fe100693          	li	a3,-31
    4554:	40f687b3          	sub	a5,a3,a5
    4558:	02000613          	li	a2,32
    455c:	00f456b3          	srl	a3,s0,a5
    4560:	00c70863          	beq	a4,a2,4570 <__muldf3+0x6bc>
    4564:	43e90913          	addi	s2,s2,1086
    4568:	012417b3          	sll	a5,s0,s2
    456c:	00f4e4b3          	or	s1,s1,a5
    4570:	009034b3          	snez	s1,s1
    4574:	00d4e4b3          	or	s1,s1,a3
    4578:	0074f713          	andi	a4,s1,7
    457c:	00000413          	li	s0,0
    4580:	02070063          	beqz	a4,45a0 <__muldf3+0x6ec>
    4584:	00f4f793          	andi	a5,s1,15
    4588:	00400693          	li	a3,4
    458c:	00000713          	li	a4,0
    4590:	f8d794e3          	bne	a5,a3,4518 <__muldf3+0x664>
    4594:	00971413          	slli	s0,a4,0x9
    4598:	00c45413          	srli	s0,s0,0xc
    459c:	01d71713          	slli	a4,a4,0x1d
    45a0:	0034d493          	srli	s1,s1,0x3
    45a4:	00e4e4b3          	or	s1,s1,a4
    45a8:	00000793          	li	a5,0
    45ac:	a1dff06f          	j	3fc8 <__muldf3+0x114>
    45b0:	7ff00793          	li	a5,2047
    45b4:	00000413          	li	s0,0
    45b8:	00000493          	li	s1,0
    45bc:	a0dff06f          	j	3fc8 <__muldf3+0x114>
    45c0:	00088913          	mv	s2,a7
    45c4:	e51ff06f          	j	4414 <__muldf3+0x560>

Disassembly of section .text.__subdf3:

000045c8 <__subdf3>:
    45c8:	00100737          	lui	a4,0x100
    45cc:	fff70713          	addi	a4,a4,-1 # fffff <__bss_end+0xfaa07>
    45d0:	fe010113          	addi	sp,sp,-32
    45d4:	00b77333          	and	t1,a4,a1
    45d8:	0146d893          	srli	a7,a3,0x14
    45dc:	00d77733          	and	a4,a4,a3
    45e0:	01d65e93          	srli	t4,a2,0x1d
    45e4:	00812c23          	sw	s0,24(sp)
    45e8:	00912a23          	sw	s1,20(sp)
    45ec:	00331313          	slli	t1,t1,0x3
    45f0:	0145d493          	srli	s1,a1,0x14
    45f4:	01d55793          	srli	a5,a0,0x1d
    45f8:	00371713          	slli	a4,a4,0x3
    45fc:	00112e23          	sw	ra,28(sp)
    4600:	01212823          	sw	s2,16(sp)
    4604:	01312623          	sw	s3,12(sp)
    4608:	7ff8f893          	andi	a7,a7,2047
    460c:	7ff00e13          	li	t3,2047
    4610:	00eee733          	or	a4,t4,a4
    4614:	7ff4f493          	andi	s1,s1,2047
    4618:	01f5d413          	srli	s0,a1,0x1f
    461c:	0067e333          	or	t1,a5,t1
    4620:	00351f13          	slli	t5,a0,0x3
    4624:	01f6d693          	srli	a3,a3,0x1f
    4628:	00361e93          	slli	t4,a2,0x3
    462c:	1dc88663          	beq	a7,t3,47f8 <__subdf3+0x230>
    4630:	0016c693          	xori	a3,a3,1
    4634:	411485b3          	sub	a1,s1,a7
    4638:	16d40863          	beq	s0,a3,47a8 <__subdf3+0x1e0>
    463c:	1cb05863          	blez	a1,480c <__subdf3+0x244>
    4640:	20088463          	beqz	a7,4848 <__subdf3+0x280>
    4644:	008007b7          	lui	a5,0x800
    4648:	00f76733          	or	a4,a4,a5
    464c:	67c48a63          	beq	s1,t3,4cc0 <__subdf3+0x6f8>
    4650:	03800793          	li	a5,56
    4654:	3eb7c263          	blt	a5,a1,4a38 <__subdf3+0x470>
    4658:	01f00793          	li	a5,31
    465c:	54b7ca63          	blt	a5,a1,4bb0 <__subdf3+0x5e8>
    4660:	02000793          	li	a5,32
    4664:	40b787b3          	sub	a5,a5,a1
    4668:	00bed9b3          	srl	s3,t4,a1
    466c:	00f71833          	sll	a6,a4,a5
    4670:	00fe9eb3          	sll	t4,t4,a5
    4674:	01386833          	or	a6,a6,s3
    4678:	00b75733          	srl	a4,a4,a1
    467c:	01d039b3          	snez	s3,t4
    4680:	01386833          	or	a6,a6,s3
    4684:	40e30333          	sub	t1,t1,a4
    4688:	410f09b3          	sub	s3,t5,a6
    468c:	013f37b3          	sltu	a5,t5,s3
    4690:	40f30633          	sub	a2,t1,a5
    4694:	00861793          	slli	a5,a2,0x8
    4698:	2a07d863          	bgez	a5,4948 <__subdf3+0x380>
    469c:	00800937          	lui	s2,0x800
    46a0:	fff90913          	addi	s2,s2,-1 # 7fffff <__bss_end+0x7faa07>
    46a4:	01267933          	and	s2,a2,s2
    46a8:	36090663          	beqz	s2,4a14 <__subdf3+0x44c>
    46ac:	00090513          	mv	a0,s2
    46b0:	189000ef          	jal	ra,5038 <__clzsi2>
    46b4:	ff850713          	addi	a4,a0,-8
    46b8:	02000793          	li	a5,32
    46bc:	40e787b3          	sub	a5,a5,a4
    46c0:	00f9d7b3          	srl	a5,s3,a5
    46c4:	00e91633          	sll	a2,s2,a4
    46c8:	00c7e7b3          	or	a5,a5,a2
    46cc:	00e999b3          	sll	s3,s3,a4
    46d0:	32974463          	blt	a4,s1,49f8 <__subdf3+0x430>
    46d4:	40970733          	sub	a4,a4,s1
    46d8:	00170613          	addi	a2,a4,1
    46dc:	01f00693          	li	a3,31
    46e0:	44c6ca63          	blt	a3,a2,4b34 <__subdf3+0x56c>
    46e4:	02000713          	li	a4,32
    46e8:	40c70733          	sub	a4,a4,a2
    46ec:	00c9d6b3          	srl	a3,s3,a2
    46f0:	00e99833          	sll	a6,s3,a4
    46f4:	00e79733          	sll	a4,a5,a4
    46f8:	00d76733          	or	a4,a4,a3
    46fc:	01003833          	snez	a6,a6
    4700:	010769b3          	or	s3,a4,a6
    4704:	00c7d633          	srl	a2,a5,a2
    4708:	00000493          	li	s1,0
    470c:	0079f793          	andi	a5,s3,7
    4710:	02078063          	beqz	a5,4730 <__subdf3+0x168>
    4714:	00f9f693          	andi	a3,s3,15
    4718:	00400793          	li	a5,4
    471c:	00f68a63          	beq	a3,a5,4730 <__subdf3+0x168>
    4720:	00498693          	addi	a3,s3,4
    4724:	0136b833          	sltu	a6,a3,s3
    4728:	01060633          	add	a2,a2,a6
    472c:	00068993          	mv	s3,a3
    4730:	00861793          	slli	a5,a2,0x8
    4734:	2007de63          	bgez	a5,4950 <__subdf3+0x388>
    4738:	00148713          	addi	a4,s1,1
    473c:	7ff00793          	li	a5,2047
    4740:	00147413          	andi	s0,s0,1
    4744:	26f70463          	beq	a4,a5,49ac <__subdf3+0x3e4>
    4748:	ff8007b7          	lui	a5,0xff800
    474c:	fff78793          	addi	a5,a5,-1 # ff7fffff <__bss_end+0xff7faa07>
    4750:	00f677b3          	and	a5,a2,a5
    4754:	01d79813          	slli	a6,a5,0x1d
    4758:	0039d993          	srli	s3,s3,0x3
    475c:	00979793          	slli	a5,a5,0x9
    4760:	01386833          	or	a6,a6,s3
    4764:	00c7d793          	srli	a5,a5,0xc
    4768:	7ff77713          	andi	a4,a4,2047
    476c:	00c79693          	slli	a3,a5,0xc
    4770:	01471713          	slli	a4,a4,0x14
    4774:	00c6d693          	srli	a3,a3,0xc
    4778:	01f41413          	slli	s0,s0,0x1f
    477c:	00e6e6b3          	or	a3,a3,a4
    4780:	0086e6b3          	or	a3,a3,s0
    4784:	01c12083          	lw	ra,28(sp)
    4788:	01812403          	lw	s0,24(sp)
    478c:	01412483          	lw	s1,20(sp)
    4790:	01012903          	lw	s2,16(sp)
    4794:	00c12983          	lw	s3,12(sp)
    4798:	00080513          	mv	a0,a6
    479c:	00068593          	mv	a1,a3
    47a0:	02010113          	addi	sp,sp,32
    47a4:	00008067          	ret
    47a8:	0ab05e63          	blez	a1,4864 <__subdf3+0x29c>
    47ac:	14088a63          	beqz	a7,4900 <__subdf3+0x338>
    47b0:	008007b7          	lui	a5,0x800
    47b4:	00f76733          	or	a4,a4,a5
    47b8:	33c48c63          	beq	s1,t3,4af0 <__subdf3+0x528>
    47bc:	03800793          	li	a5,56
    47c0:	1cb7c063          	blt	a5,a1,4980 <__subdf3+0x3b8>
    47c4:	01f00793          	li	a5,31
    47c8:	44b7da63          	bge	a5,a1,4c1c <__subdf3+0x654>
    47cc:	fe058813          	addi	a6,a1,-32
    47d0:	02000793          	li	a5,32
    47d4:	010759b3          	srl	s3,a4,a6
    47d8:	00f58a63          	beq	a1,a5,47ec <__subdf3+0x224>
    47dc:	04000793          	li	a5,64
    47e0:	40b785b3          	sub	a1,a5,a1
    47e4:	00b71733          	sll	a4,a4,a1
    47e8:	00eeeeb3          	or	t4,t4,a4
    47ec:	01d03833          	snez	a6,t4
    47f0:	01386833          	or	a6,a6,s3
    47f4:	1940006f          	j	4988 <__subdf3+0x3c0>
    47f8:	01d767b3          	or	a5,a4,t4
    47fc:	80148593          	addi	a1,s1,-2047
    4800:	00079463          	bnez	a5,4808 <__subdf3+0x240>
    4804:	0016c693          	xori	a3,a3,1
    4808:	04d40e63          	beq	s0,a3,4864 <__subdf3+0x29c>
    480c:	08059a63          	bnez	a1,48a0 <__subdf3+0x2d8>
    4810:	00148793          	addi	a5,s1,1
    4814:	7fe7f793          	andi	a5,a5,2046
    4818:	24079263          	bnez	a5,4a5c <__subdf3+0x494>
    481c:	01e367b3          	or	a5,t1,t5
    4820:	01d76833          	or	a6,a4,t4
    4824:	18049c63          	bnez	s1,49bc <__subdf3+0x3f4>
    4828:	46078063          	beqz	a5,4c88 <__subdf3+0x6c0>
    482c:	4c081e63          	bnez	a6,4d08 <__subdf3+0x740>
    4830:	00351813          	slli	a6,a0,0x3
    4834:	01d31693          	slli	a3,t1,0x1d
    4838:	00385813          	srli	a6,a6,0x3
    483c:	0106e833          	or	a6,a3,a6
    4840:	00335793          	srli	a5,t1,0x3
    4844:	1280006f          	j	496c <__subdf3+0x3a4>
    4848:	01d767b3          	or	a5,a4,t4
    484c:	1e078c63          	beqz	a5,4a44 <__subdf3+0x47c>
    4850:	fff58793          	addi	a5,a1,-1
    4854:	44078a63          	beqz	a5,4ca8 <__subdf3+0x6e0>
    4858:	29c58c63          	beq	a1,t3,4af0 <__subdf3+0x528>
    485c:	00078593          	mv	a1,a5
    4860:	df1ff06f          	j	4650 <__subdf3+0x88>
    4864:	22059263          	bnez	a1,4a88 <__subdf3+0x4c0>
    4868:	00148693          	addi	a3,s1,1
    486c:	7fe6f793          	andi	a5,a3,2046
    4870:	0a079663          	bnez	a5,491c <__subdf3+0x354>
    4874:	01e367b3          	or	a5,t1,t5
    4878:	3e049663          	bnez	s1,4c64 <__subdf3+0x69c>
    487c:	50078863          	beqz	a5,4d8c <__subdf3+0x7c4>
    4880:	01d767b3          	or	a5,a4,t4
    4884:	52079063          	bnez	a5,4da4 <__subdf3+0x7dc>
    4888:	00351513          	slli	a0,a0,0x3
    488c:	01d31813          	slli	a6,t1,0x1d
    4890:	00355513          	srli	a0,a0,0x3
    4894:	00a86833          	or	a6,a6,a0
    4898:	00335793          	srli	a5,t1,0x3
    489c:	0d00006f          	j	496c <__subdf3+0x3a4>
    48a0:	409885b3          	sub	a1,a7,s1
    48a4:	26049263          	bnez	s1,4b08 <__subdf3+0x540>
    48a8:	01e367b3          	or	a5,t1,t5
    48ac:	38078e63          	beqz	a5,4c48 <__subdf3+0x680>
    48b0:	fff58793          	addi	a5,a1,-1
    48b4:	4a078e63          	beqz	a5,4d70 <__subdf3+0x7a8>
    48b8:	7ff00513          	li	a0,2047
    48bc:	24a58e63          	beq	a1,a0,4b18 <__subdf3+0x550>
    48c0:	00078593          	mv	a1,a5
    48c4:	03800793          	li	a5,56
    48c8:	30b7ca63          	blt	a5,a1,4bdc <__subdf3+0x614>
    48cc:	01f00793          	li	a5,31
    48d0:	46b7ca63          	blt	a5,a1,4d44 <__subdf3+0x77c>
    48d4:	02000793          	li	a5,32
    48d8:	40b787b3          	sub	a5,a5,a1
    48dc:	00f31833          	sll	a6,t1,a5
    48e0:	00bf5633          	srl	a2,t5,a1
    48e4:	00ff17b3          	sll	a5,t5,a5
    48e8:	00c86833          	or	a6,a6,a2
    48ec:	00f039b3          	snez	s3,a5
    48f0:	00b35333          	srl	t1,t1,a1
    48f4:	01386833          	or	a6,a6,s3
    48f8:	40670733          	sub	a4,a4,t1
    48fc:	2e80006f          	j	4be4 <__subdf3+0x61c>
    4900:	01d767b3          	or	a5,a4,t4
    4904:	14078063          	beqz	a5,4a44 <__subdf3+0x47c>
    4908:	fff58793          	addi	a5,a1,-1
    490c:	24078e63          	beqz	a5,4b68 <__subdf3+0x5a0>
    4910:	37c58063          	beq	a1,t3,4c70 <__subdf3+0x6a8>
    4914:	00078593          	mv	a1,a5
    4918:	ea5ff06f          	j	47bc <__subdf3+0x1f4>
    491c:	7ff00793          	li	a5,2047
    4920:	08f68463          	beq	a3,a5,49a8 <__subdf3+0x3e0>
    4924:	01df0eb3          	add	t4,t5,t4
    4928:	01eeb633          	sltu	a2,t4,t5
    492c:	00e307b3          	add	a5,t1,a4
    4930:	00c787b3          	add	a5,a5,a2
    4934:	01f79813          	slli	a6,a5,0x1f
    4938:	001ede93          	srli	t4,t4,0x1
    493c:	01d869b3          	or	s3,a6,t4
    4940:	0017d613          	srli	a2,a5,0x1
    4944:	00068493          	mv	s1,a3
    4948:	0079f793          	andi	a5,s3,7
    494c:	dc0794e3          	bnez	a5,4714 <__subdf3+0x14c>
    4950:	01d61793          	slli	a5,a2,0x1d
    4954:	0039d813          	srli	a6,s3,0x3
    4958:	00f86833          	or	a6,a6,a5
    495c:	00048593          	mv	a1,s1
    4960:	00365793          	srli	a5,a2,0x3
    4964:	7ff00713          	li	a4,2047
    4968:	06e58a63          	beq	a1,a4,49dc <__subdf3+0x414>
    496c:	00c79793          	slli	a5,a5,0xc
    4970:	00c7d793          	srli	a5,a5,0xc
    4974:	7ff5f713          	andi	a4,a1,2047
    4978:	00147413          	andi	s0,s0,1
    497c:	df1ff06f          	j	476c <__subdf3+0x1a4>
    4980:	01d76733          	or	a4,a4,t4
    4984:	00e03833          	snez	a6,a4
    4988:	01e809b3          	add	s3,a6,t5
    498c:	01e9b7b3          	sltu	a5,s3,t5
    4990:	00678633          	add	a2,a5,t1
    4994:	00861793          	slli	a5,a2,0x8
    4998:	fa07d8e3          	bgez	a5,4948 <__subdf3+0x380>
    499c:	00148493          	addi	s1,s1,1
    49a0:	7ff00793          	li	a5,2047
    49a4:	1ef49263          	bne	s1,a5,4b88 <__subdf3+0x5c0>
    49a8:	00147413          	andi	s0,s0,1
    49ac:	7ff00713          	li	a4,2047
    49b0:	00000793          	li	a5,0
    49b4:	00000813          	li	a6,0
    49b8:	db5ff06f          	j	476c <__subdf3+0x1a4>
    49bc:	12079863          	bnez	a5,4aec <__subdf3+0x524>
    49c0:	46080063          	beqz	a6,4e20 <__subdf3+0x858>
    49c4:	00361813          	slli	a6,a2,0x3
    49c8:	01d71793          	slli	a5,a4,0x1d
    49cc:	00385813          	srli	a6,a6,0x3
    49d0:	00f86833          	or	a6,a6,a5
    49d4:	00068413          	mv	s0,a3
    49d8:	00375793          	srli	a5,a4,0x3
    49dc:	00f867b3          	or	a5,a6,a5
    49e0:	fc0784e3          	beqz	a5,49a8 <__subdf3+0x3e0>
    49e4:	00000413          	li	s0,0
    49e8:	7ff00713          	li	a4,2047
    49ec:	000807b7          	lui	a5,0x80
    49f0:	00000813          	li	a6,0
    49f4:	d79ff06f          	j	476c <__subdf3+0x1a4>
    49f8:	ff800637          	lui	a2,0xff800
    49fc:	fff60613          	addi	a2,a2,-1 # ff7fffff <__bss_end+0xff7faa07>
    4a00:	00c7f633          	and	a2,a5,a2
    4a04:	0079f793          	andi	a5,s3,7
    4a08:	40e484b3          	sub	s1,s1,a4
    4a0c:	d00794e3          	bnez	a5,4714 <__subdf3+0x14c>
    4a10:	f41ff06f          	j	4950 <__subdf3+0x388>
    4a14:	00098513          	mv	a0,s3
    4a18:	620000ef          	jal	ra,5038 <__clzsi2>
    4a1c:	01850713          	addi	a4,a0,24
    4a20:	01f00793          	li	a5,31
    4a24:	c8e7dae3          	bge	a5,a4,46b8 <__subdf3+0xf0>
    4a28:	ff850613          	addi	a2,a0,-8
    4a2c:	00c997b3          	sll	a5,s3,a2
    4a30:	00000993          	li	s3,0
    4a34:	c9dff06f          	j	46d0 <__subdf3+0x108>
    4a38:	01d76833          	or	a6,a4,t4
    4a3c:	01003833          	snez	a6,a6
    4a40:	c49ff06f          	j	4688 <__subdf3+0xc0>
    4a44:	00351813          	slli	a6,a0,0x3
    4a48:	01d31793          	slli	a5,t1,0x1d
    4a4c:	00385813          	srli	a6,a6,0x3
    4a50:	00f86833          	or	a6,a6,a5
    4a54:	00335793          	srli	a5,t1,0x3
    4a58:	f0dff06f          	j	4964 <__subdf3+0x39c>
    4a5c:	41df09b3          	sub	s3,t5,t4
    4a60:	40e30933          	sub	s2,t1,a4
    4a64:	013f3633          	sltu	a2,t5,s3
    4a68:	40c90933          	sub	s2,s2,a2
    4a6c:	00891793          	slli	a5,s2,0x8
    4a70:	2607c463          	bltz	a5,4cd8 <__subdf3+0x710>
    4a74:	0129e833          	or	a6,s3,s2
    4a78:	c20818e3          	bnez	a6,46a8 <__subdf3+0xe0>
    4a7c:	00000793          	li	a5,0
    4a80:	00000413          	li	s0,0
    4a84:	ee9ff06f          	j	496c <__subdf3+0x3a4>
    4a88:	409885b3          	sub	a1,a7,s1
    4a8c:	16048863          	beqz	s1,4bfc <__subdf3+0x634>
    4a90:	008006b7          	lui	a3,0x800
    4a94:	7ff00793          	li	a5,2047
    4a98:	00d36333          	or	t1,t1,a3
    4a9c:	24f88a63          	beq	a7,a5,4cf0 <__subdf3+0x728>
    4aa0:	03800793          	li	a5,56
    4aa4:	28b7ca63          	blt	a5,a1,4d38 <__subdf3+0x770>
    4aa8:	01f00793          	li	a5,31
    4aac:	34b7c463          	blt	a5,a1,4df4 <__subdf3+0x82c>
    4ab0:	02000793          	li	a5,32
    4ab4:	40b787b3          	sub	a5,a5,a1
    4ab8:	00f31833          	sll	a6,t1,a5
    4abc:	00bf56b3          	srl	a3,t5,a1
    4ac0:	00ff17b3          	sll	a5,t5,a5
    4ac4:	00d86833          	or	a6,a6,a3
    4ac8:	00f039b3          	snez	s3,a5
    4acc:	00b35333          	srl	t1,t1,a1
    4ad0:	01386833          	or	a6,a6,s3
    4ad4:	00670733          	add	a4,a4,t1
    4ad8:	01d809b3          	add	s3,a6,t4
    4adc:	01d9b7b3          	sltu	a5,s3,t4
    4ae0:	00e78633          	add	a2,a5,a4
    4ae4:	00088493          	mv	s1,a7
    4ae8:	eadff06f          	j	4994 <__subdf3+0x3cc>
    4aec:	ee081ce3          	bnez	a6,49e4 <__subdf3+0x41c>
    4af0:	00351813          	slli	a6,a0,0x3
    4af4:	01d31793          	slli	a5,t1,0x1d
    4af8:	00385813          	srli	a6,a6,0x3
    4afc:	00f86833          	or	a6,a6,a5
    4b00:	00335793          	srli	a5,t1,0x3
    4b04:	ed9ff06f          	j	49dc <__subdf3+0x414>
    4b08:	00800537          	lui	a0,0x800
    4b0c:	7ff00793          	li	a5,2047
    4b10:	00a36333          	or	t1,t1,a0
    4b14:	daf898e3          	bne	a7,a5,48c4 <__subdf3+0x2fc>
    4b18:	00361613          	slli	a2,a2,0x3
    4b1c:	01d71813          	slli	a6,a4,0x1d
    4b20:	00365613          	srli	a2,a2,0x3
    4b24:	00c86833          	or	a6,a6,a2
    4b28:	00375793          	srli	a5,a4,0x3
    4b2c:	00068413          	mv	s0,a3
    4b30:	eadff06f          	j	49dc <__subdf3+0x414>
    4b34:	fe170713          	addi	a4,a4,-31
    4b38:	02000693          	li	a3,32
    4b3c:	00e7d733          	srl	a4,a5,a4
    4b40:	00d60a63          	beq	a2,a3,4b54 <__subdf3+0x58c>
    4b44:	04000693          	li	a3,64
    4b48:	40c68633          	sub	a2,a3,a2
    4b4c:	00c79633          	sll	a2,a5,a2
    4b50:	00c9e9b3          	or	s3,s3,a2
    4b54:	01303833          	snez	a6,s3
    4b58:	00e869b3          	or	s3,a6,a4
    4b5c:	00000613          	li	a2,0
    4b60:	00000493          	li	s1,0
    4b64:	de5ff06f          	j	4948 <__subdf3+0x380>
    4b68:	01df09b3          	add	s3,t5,t4
    4b6c:	00e307b3          	add	a5,t1,a4
    4b70:	01e9bf33          	sltu	t5,s3,t5
    4b74:	01e78633          	add	a2,a5,t5
    4b78:	00861793          	slli	a5,a2,0x8
    4b7c:	00100493          	li	s1,1
    4b80:	dc07d4e3          	bgez	a5,4948 <__subdf3+0x380>
    4b84:	00200493          	li	s1,2
    4b88:	ff8007b7          	lui	a5,0xff800
    4b8c:	fff78793          	addi	a5,a5,-1 # ff7fffff <__bss_end+0xff7faa07>
    4b90:	00f677b3          	and	a5,a2,a5
    4b94:	0019d713          	srli	a4,s3,0x1
    4b98:	0019f813          	andi	a6,s3,1
    4b9c:	01076833          	or	a6,a4,a6
    4ba0:	01f79993          	slli	s3,a5,0x1f
    4ba4:	0109e9b3          	or	s3,s3,a6
    4ba8:	0017d613          	srli	a2,a5,0x1
    4bac:	b61ff06f          	j	470c <__subdf3+0x144>
    4bb0:	fe058813          	addi	a6,a1,-32
    4bb4:	02000793          	li	a5,32
    4bb8:	010759b3          	srl	s3,a4,a6
    4bbc:	00f58a63          	beq	a1,a5,4bd0 <__subdf3+0x608>
    4bc0:	04000793          	li	a5,64
    4bc4:	40b785b3          	sub	a1,a5,a1
    4bc8:	00b71733          	sll	a4,a4,a1
    4bcc:	00eeeeb3          	or	t4,t4,a4
    4bd0:	01d03833          	snez	a6,t4
    4bd4:	01386833          	or	a6,a6,s3
    4bd8:	ab1ff06f          	j	4688 <__subdf3+0xc0>
    4bdc:	01e36333          	or	t1,t1,t5
    4be0:	00603833          	snez	a6,t1
    4be4:	410e89b3          	sub	s3,t4,a6
    4be8:	013eb7b3          	sltu	a5,t4,s3
    4bec:	40f70633          	sub	a2,a4,a5
    4bf0:	00088493          	mv	s1,a7
    4bf4:	00068413          	mv	s0,a3
    4bf8:	a9dff06f          	j	4694 <__subdf3+0xcc>
    4bfc:	01e367b3          	or	a5,t1,t5
    4c00:	1c078863          	beqz	a5,4dd0 <__subdf3+0x808>
    4c04:	fff58793          	addi	a5,a1,-1
    4c08:	22078463          	beqz	a5,4e30 <__subdf3+0x868>
    4c0c:	7ff00693          	li	a3,2047
    4c10:	0ed58063          	beq	a1,a3,4cf0 <__subdf3+0x728>
    4c14:	00078593          	mv	a1,a5
    4c18:	e89ff06f          	j	4aa0 <__subdf3+0x4d8>
    4c1c:	02000793          	li	a5,32
    4c20:	40b787b3          	sub	a5,a5,a1
    4c24:	00bed9b3          	srl	s3,t4,a1
    4c28:	00f71833          	sll	a6,a4,a5
    4c2c:	00fe9eb3          	sll	t4,t4,a5
    4c30:	01386833          	or	a6,a6,s3
    4c34:	00b75733          	srl	a4,a4,a1
    4c38:	01d039b3          	snez	s3,t4
    4c3c:	01386833          	or	a6,a6,s3
    4c40:	00e30333          	add	t1,t1,a4
    4c44:	d45ff06f          	j	4988 <__subdf3+0x3c0>
    4c48:	00361813          	slli	a6,a2,0x3
    4c4c:	01d71793          	slli	a5,a4,0x1d
    4c50:	00385813          	srli	a6,a6,0x3
    4c54:	0107e833          	or	a6,a5,a6
    4c58:	00068413          	mv	s0,a3
    4c5c:	00375793          	srli	a5,a4,0x3
    4c60:	d05ff06f          	j	4964 <__subdf3+0x39c>
    4c64:	08078663          	beqz	a5,4cf0 <__subdf3+0x728>
    4c68:	01d76733          	or	a4,a4,t4
    4c6c:	d6071ce3          	bnez	a4,49e4 <__subdf3+0x41c>
    4c70:	00351513          	slli	a0,a0,0x3
    4c74:	01d31813          	slli	a6,t1,0x1d
    4c78:	00355513          	srli	a0,a0,0x3
    4c7c:	00a86833          	or	a6,a6,a0
    4c80:	00335793          	srli	a5,t1,0x3
    4c84:	d59ff06f          	j	49dc <__subdf3+0x414>
    4c88:	de080ae3          	beqz	a6,4a7c <__subdf3+0x4b4>
    4c8c:	00361813          	slli	a6,a2,0x3
    4c90:	01d71793          	slli	a5,a4,0x1d
    4c94:	00385813          	srli	a6,a6,0x3
    4c98:	00f86833          	or	a6,a6,a5
    4c9c:	00068413          	mv	s0,a3
    4ca0:	00375793          	srli	a5,a4,0x3
    4ca4:	cc9ff06f          	j	496c <__subdf3+0x3a4>
    4ca8:	41df09b3          	sub	s3,t5,t4
    4cac:	40e307b3          	sub	a5,t1,a4
    4cb0:	013f3f33          	sltu	t5,t5,s3
    4cb4:	41e78633          	sub	a2,a5,t5
    4cb8:	00100493          	li	s1,1
    4cbc:	9d9ff06f          	j	4694 <__subdf3+0xcc>
    4cc0:	00351813          	slli	a6,a0,0x3
    4cc4:	01d31693          	slli	a3,t1,0x1d
    4cc8:	00385813          	srli	a6,a6,0x3
    4ccc:	0106e833          	or	a6,a3,a6
    4cd0:	00335793          	srli	a5,t1,0x3
    4cd4:	d09ff06f          	j	49dc <__subdf3+0x414>
    4cd8:	41ee89b3          	sub	s3,t4,t5
    4cdc:	40670633          	sub	a2,a4,t1
    4ce0:	013eb933          	sltu	s2,t4,s3
    4ce4:	41260933          	sub	s2,a2,s2
    4ce8:	00068413          	mv	s0,a3
    4cec:	9bdff06f          	j	46a8 <__subdf3+0xe0>
    4cf0:	00361613          	slli	a2,a2,0x3
    4cf4:	01d71813          	slli	a6,a4,0x1d
    4cf8:	00365613          	srli	a2,a2,0x3
    4cfc:	00c86833          	or	a6,a6,a2
    4d00:	00375793          	srli	a5,a4,0x3
    4d04:	cd9ff06f          	j	49dc <__subdf3+0x414>
    4d08:	41df09b3          	sub	s3,t5,t4
    4d0c:	40e307b3          	sub	a5,t1,a4
    4d10:	013f3633          	sltu	a2,t5,s3
    4d14:	40c78633          	sub	a2,a5,a2
    4d18:	00861793          	slli	a5,a2,0x8
    4d1c:	0c07d663          	bgez	a5,4de8 <__subdf3+0x820>
    4d20:	41ee89b3          	sub	s3,t4,t5
    4d24:	406707b3          	sub	a5,a4,t1
    4d28:	013ebeb3          	sltu	t4,t4,s3
    4d2c:	41d78633          	sub	a2,a5,t4
    4d30:	00068413          	mv	s0,a3
    4d34:	9d9ff06f          	j	470c <__subdf3+0x144>
    4d38:	01e36333          	or	t1,t1,t5
    4d3c:	00603833          	snez	a6,t1
    4d40:	d99ff06f          	j	4ad8 <__subdf3+0x510>
    4d44:	fe058813          	addi	a6,a1,-32
    4d48:	02000793          	li	a5,32
    4d4c:	010359b3          	srl	s3,t1,a6
    4d50:	00f58a63          	beq	a1,a5,4d64 <__subdf3+0x79c>
    4d54:	04000793          	li	a5,64
    4d58:	40b785b3          	sub	a1,a5,a1
    4d5c:	00b31333          	sll	t1,t1,a1
    4d60:	006f6f33          	or	t5,t5,t1
    4d64:	01e03833          	snez	a6,t5
    4d68:	01386833          	or	a6,a6,s3
    4d6c:	e79ff06f          	j	4be4 <__subdf3+0x61c>
    4d70:	41ee89b3          	sub	s3,t4,t5
    4d74:	406707b3          	sub	a5,a4,t1
    4d78:	013ebeb3          	sltu	t4,t4,s3
    4d7c:	41d78633          	sub	a2,a5,t4
    4d80:	00068413          	mv	s0,a3
    4d84:	00100493          	li	s1,1
    4d88:	90dff06f          	j	4694 <__subdf3+0xcc>
    4d8c:	00361813          	slli	a6,a2,0x3
    4d90:	01d71793          	slli	a5,a4,0x1d
    4d94:	00385813          	srli	a6,a6,0x3
    4d98:	00f86833          	or	a6,a6,a5
    4d9c:	00375793          	srli	a5,a4,0x3
    4da0:	bcdff06f          	j	496c <__subdf3+0x3a4>
    4da4:	01df09b3          	add	s3,t5,t4
    4da8:	00e307b3          	add	a5,t1,a4
    4dac:	01e9bf33          	sltu	t5,s3,t5
    4db0:	01e78633          	add	a2,a5,t5
    4db4:	00861793          	slli	a5,a2,0x8
    4db8:	b807d8e3          	bgez	a5,4948 <__subdf3+0x380>
    4dbc:	ff8007b7          	lui	a5,0xff800
    4dc0:	fff78793          	addi	a5,a5,-1 # ff7fffff <__bss_end+0xff7faa07>
    4dc4:	00f67633          	and	a2,a2,a5
    4dc8:	00100493          	li	s1,1
    4dcc:	b7dff06f          	j	4948 <__subdf3+0x380>
    4dd0:	00361613          	slli	a2,a2,0x3
    4dd4:	01d71813          	slli	a6,a4,0x1d
    4dd8:	00365613          	srli	a2,a2,0x3
    4ddc:	00c86833          	or	a6,a6,a2
    4de0:	00375793          	srli	a5,a4,0x3
    4de4:	b81ff06f          	j	4964 <__subdf3+0x39c>
    4de8:	00c9e833          	or	a6,s3,a2
    4dec:	c80808e3          	beqz	a6,4a7c <__subdf3+0x4b4>
    4df0:	b59ff06f          	j	4948 <__subdf3+0x380>
    4df4:	fe058813          	addi	a6,a1,-32
    4df8:	02000793          	li	a5,32
    4dfc:	010359b3          	srl	s3,t1,a6
    4e00:	00f58a63          	beq	a1,a5,4e14 <__subdf3+0x84c>
    4e04:	04000793          	li	a5,64
    4e08:	40b785b3          	sub	a1,a5,a1
    4e0c:	00b31333          	sll	t1,t1,a1
    4e10:	006f6f33          	or	t5,t5,t1
    4e14:	01e03833          	snez	a6,t5
    4e18:	01386833          	or	a6,a6,s3
    4e1c:	cbdff06f          	j	4ad8 <__subdf3+0x510>
    4e20:	00000413          	li	s0,0
    4e24:	7ff00713          	li	a4,2047
    4e28:	000807b7          	lui	a5,0x80
    4e2c:	941ff06f          	j	476c <__subdf3+0x1a4>
    4e30:	01df09b3          	add	s3,t5,t4
    4e34:	00e307b3          	add	a5,t1,a4
    4e38:	01d9beb3          	sltu	t4,s3,t4
    4e3c:	01d78633          	add	a2,a5,t4
    4e40:	d39ff06f          	j	4b78 <__subdf3+0x5b0>

Disassembly of section .text.__fixdfsi:

00004e44 <__fixdfsi>:
    4e44:	0145d793          	srli	a5,a1,0x14
    4e48:	001006b7          	lui	a3,0x100
    4e4c:	fff68713          	addi	a4,a3,-1 # fffff <__bss_end+0xfaa07>
    4e50:	7ff7f793          	andi	a5,a5,2047
    4e54:	3fe00613          	li	a2,1022
    4e58:	00b77733          	and	a4,a4,a1
    4e5c:	01f5d593          	srli	a1,a1,0x1f
    4e60:	00f65e63          	bge	a2,a5,4e7c <__fixdfsi+0x38>
    4e64:	41d00613          	li	a2,1053
    4e68:	00f65e63          	bge	a2,a5,4e84 <__fixdfsi+0x40>
    4e6c:	80000537          	lui	a0,0x80000
    4e70:	fff54513          	not	a0,a0
    4e74:	00a58533          	add	a0,a1,a0
    4e78:	00008067          	ret
    4e7c:	00000513          	li	a0,0
    4e80:	00008067          	ret
    4e84:	43300613          	li	a2,1075
    4e88:	40f60633          	sub	a2,a2,a5
    4e8c:	01f00813          	li	a6,31
    4e90:	00d76733          	or	a4,a4,a3
    4e94:	02c85063          	bge	a6,a2,4eb4 <__fixdfsi+0x70>
    4e98:	41300693          	li	a3,1043
    4e9c:	40f687b3          	sub	a5,a3,a5
    4ea0:	00f757b3          	srl	a5,a4,a5
    4ea4:	40f00533          	neg	a0,a5
    4ea8:	fc059ce3          	bnez	a1,4e80 <__fixdfsi+0x3c>
    4eac:	00078513          	mv	a0,a5
    4eb0:	00008067          	ret
    4eb4:	bed78793          	addi	a5,a5,-1043 # 7fbed <__bss_end+0x7a5f5>
    4eb8:	00f717b3          	sll	a5,a4,a5
    4ebc:	00c55533          	srl	a0,a0,a2
    4ec0:	00a7e7b3          	or	a5,a5,a0
    4ec4:	fe1ff06f          	j	4ea4 <__fixdfsi+0x60>

Disassembly of section .text.__floatsidf:

00004ec8 <__floatsidf>:
    4ec8:	ff010113          	addi	sp,sp,-16
    4ecc:	00112623          	sw	ra,12(sp)
    4ed0:	00812423          	sw	s0,8(sp)
    4ed4:	00912223          	sw	s1,4(sp)
    4ed8:	04050a63          	beqz	a0,4f2c <__floatsidf+0x64>
    4edc:	41f55793          	srai	a5,a0,0x1f
    4ee0:	00a7c4b3          	xor	s1,a5,a0
    4ee4:	40f484b3          	sub	s1,s1,a5
    4ee8:	00050413          	mv	s0,a0
    4eec:	00048513          	mv	a0,s1
    4ef0:	148000ef          	jal	ra,5038 <__clzsi2>
    4ef4:	41e00693          	li	a3,1054
    4ef8:	40a686b3          	sub	a3,a3,a0
    4efc:	00a00793          	li	a5,10
    4f00:	01f45413          	srli	s0,s0,0x1f
    4f04:	7ff6f693          	andi	a3,a3,2047
    4f08:	06a7c463          	blt	a5,a0,4f70 <__floatsidf+0xa8>
    4f0c:	00b00713          	li	a4,11
    4f10:	40a70733          	sub	a4,a4,a0
    4f14:	00e4d7b3          	srl	a5,s1,a4
    4f18:	01550513          	addi	a0,a0,21 # 80000015 <__bss_end+0x7fffaa1d>
    4f1c:	00c79793          	slli	a5,a5,0xc
    4f20:	00a494b3          	sll	s1,s1,a0
    4f24:	00c7d793          	srli	a5,a5,0xc
    4f28:	0140006f          	j	4f3c <__floatsidf+0x74>
    4f2c:	00000413          	li	s0,0
    4f30:	00000693          	li	a3,0
    4f34:	00000793          	li	a5,0
    4f38:	00000493          	li	s1,0
    4f3c:	00c79793          	slli	a5,a5,0xc
    4f40:	01469693          	slli	a3,a3,0x14
    4f44:	00c7d793          	srli	a5,a5,0xc
    4f48:	01f41413          	slli	s0,s0,0x1f
    4f4c:	00d7e7b3          	or	a5,a5,a3
    4f50:	0087e7b3          	or	a5,a5,s0
    4f54:	00c12083          	lw	ra,12(sp)
    4f58:	00812403          	lw	s0,8(sp)
    4f5c:	00048513          	mv	a0,s1
    4f60:	00078593          	mv	a1,a5
    4f64:	00412483          	lw	s1,4(sp)
    4f68:	01010113          	addi	sp,sp,16
    4f6c:	00008067          	ret
    4f70:	ff550513          	addi	a0,a0,-11
    4f74:	00a497b3          	sll	a5,s1,a0
    4f78:	00c79793          	slli	a5,a5,0xc
    4f7c:	00c7d793          	srli	a5,a5,0xc
    4f80:	00000493          	li	s1,0
    4f84:	fb9ff06f          	j	4f3c <__floatsidf+0x74>

Disassembly of section .text.__floatunsidf:

00004f88 <__floatunsidf>:
    4f88:	06050463          	beqz	a0,4ff0 <__floatunsidf+0x68>
    4f8c:	ff010113          	addi	sp,sp,-16
    4f90:	00812423          	sw	s0,8(sp)
    4f94:	00112623          	sw	ra,12(sp)
    4f98:	00050413          	mv	s0,a0
    4f9c:	09c000ef          	jal	ra,5038 <__clzsi2>
    4fa0:	41e00693          	li	a3,1054
    4fa4:	40a686b3          	sub	a3,a3,a0
    4fa8:	00a00793          	li	a5,10
    4fac:	7ff6f693          	andi	a3,a3,2047
    4fb0:	06a7d463          	bge	a5,a0,5018 <__floatunsidf+0x90>
    4fb4:	ff550513          	addi	a0,a0,-11
    4fb8:	00a417b3          	sll	a5,s0,a0
    4fbc:	00c79793          	slli	a5,a5,0xc
    4fc0:	00c7d793          	srli	a5,a5,0xc
    4fc4:	00000713          	li	a4,0
    4fc8:	00c12083          	lw	ra,12(sp)
    4fcc:	00812403          	lw	s0,8(sp)
    4fd0:	00c79793          	slli	a5,a5,0xc
    4fd4:	01469693          	slli	a3,a3,0x14
    4fd8:	00c7d793          	srli	a5,a5,0xc
    4fdc:	00d7e7b3          	or	a5,a5,a3
    4fe0:	00070513          	mv	a0,a4
    4fe4:	00078593          	mv	a1,a5
    4fe8:	01010113          	addi	sp,sp,16
    4fec:	00008067          	ret
    4ff0:	00000793          	li	a5,0
    4ff4:	00000693          	li	a3,0
    4ff8:	00c79793          	slli	a5,a5,0xc
    4ffc:	01469693          	slli	a3,a3,0x14
    5000:	00c7d793          	srli	a5,a5,0xc
    5004:	00000713          	li	a4,0
    5008:	00d7e7b3          	or	a5,a5,a3
    500c:	00070513          	mv	a0,a4
    5010:	00078593          	mv	a1,a5
    5014:	00008067          	ret
    5018:	00b00713          	li	a4,11
    501c:	40a70733          	sub	a4,a4,a0
    5020:	00e457b3          	srl	a5,s0,a4
    5024:	00c79793          	slli	a5,a5,0xc
    5028:	01550713          	addi	a4,a0,21
    502c:	00e41733          	sll	a4,s0,a4
    5030:	00c7d793          	srli	a5,a5,0xc
    5034:	f95ff06f          	j	4fc8 <__floatunsidf+0x40>

Disassembly of section .text.__clzsi2:

00005038 <__clzsi2>:
    5038:	000107b7          	lui	a5,0x10
    503c:	04f57463          	bgeu	a0,a5,5084 <__clzsi2+0x4c>
    5040:	0ff00793          	li	a5,255
    5044:	02000713          	li	a4,32
    5048:	00a7ee63          	bltu	a5,a0,5064 <__clzsi2+0x2c>
    504c:	00000797          	auipc	a5,0x0
    5050:	41c78793          	addi	a5,a5,1052 # 5468 <__clz_tab>
    5054:	00a787b3          	add	a5,a5,a0
    5058:	0007c503          	lbu	a0,0(a5)
    505c:	40a70533          	sub	a0,a4,a0
    5060:	00008067          	ret
    5064:	00855513          	srli	a0,a0,0x8
    5068:	00000797          	auipc	a5,0x0
    506c:	40078793          	addi	a5,a5,1024 # 5468 <__clz_tab>
    5070:	00a787b3          	add	a5,a5,a0
    5074:	0007c503          	lbu	a0,0(a5)
    5078:	01800713          	li	a4,24
    507c:	40a70533          	sub	a0,a4,a0
    5080:	00008067          	ret
    5084:	010007b7          	lui	a5,0x1000
    5088:	02f56263          	bltu	a0,a5,50ac <__clzsi2+0x74>
    508c:	01855513          	srli	a0,a0,0x18
    5090:	00000797          	auipc	a5,0x0
    5094:	3d878793          	addi	a5,a5,984 # 5468 <__clz_tab>
    5098:	00a787b3          	add	a5,a5,a0
    509c:	0007c503          	lbu	a0,0(a5)
    50a0:	00800713          	li	a4,8
    50a4:	40a70533          	sub	a0,a4,a0
    50a8:	00008067          	ret
    50ac:	01055513          	srli	a0,a0,0x10
    50b0:	00000797          	auipc	a5,0x0
    50b4:	3b878793          	addi	a5,a5,952 # 5468 <__clz_tab>
    50b8:	00a787b3          	add	a5,a5,a0
    50bc:	0007c503          	lbu	a0,0(a5)
    50c0:	01000713          	li	a4,16
    50c4:	40a70533          	sub	a0,a4,a0
    50c8:	00008067          	ret
